
autopilot_reverse.elf:     file format elf32-littlearm

Sections:
Idx Name          Size      VMA       LMA       File off  Algn
  0 .isr_vector   0000010c  08000000  08000000  00010000  2**0
                  CONTENTS, ALLOC, LOAD, READONLY, DATA
  1 .text         00005f84  08000110  08000110  00010110  2**3
                  CONTENTS, ALLOC, LOAD, READONLY, CODE
  2 .rodata       000002a8  08006098  08006098  00016098  2**3
                  CONTENTS, ALLOC, LOAD, READONLY, DATA
  3 .ARM.extab    00000000  08006340  08006340  00020070  2**0
                  CONTENTS
  4 .ARM          00000000  08006340  08006340  00020070  2**0
                  CONTENTS
  5 .preinit_array 00000000  08006340  08006340  00020070  2**0
                  CONTENTS, ALLOC, LOAD, DATA
  6 .init_array   00000004  08006340  08006340  00016340  2**2
                  CONTENTS, ALLOC, LOAD, DATA
  7 .fini_array   00000004  08006344  08006344  00016344  2**2
                  CONTENTS, ALLOC, LOAD, DATA
  8 .data         00000070  20000000  08006348  00020000  2**2
                  CONTENTS, ALLOC, LOAD, DATA
  9 .bss          000001fc  20000070  080063b8  00020070  2**2
                  ALLOC
 10 ._user_heap_stack 00000604  2000026c  080063b8  0002026c  2**0
                  ALLOC
 11 .ARM.attributes 00000029  00000000  00000000  00020070  2**0
                  CONTENTS, READONLY
 12 .comment      00000050  00000000  00000000  00020099  2**0
                  CONTENTS, READONLY
 13 .debug_frame  00000a10  00000000  00000000  000200ec  2**2
                  CONTENTS, READONLY, DEBUGGING, OCTETS

Disassembly of section .text:

08000110 <__do_global_dtors_aux>:
 8000110:	b510      	push	{r4, lr}
 8000112:	4c05      	ldr	r4, [pc, #20]	; (8000128 <__do_global_dtors_aux+0x18>)
 8000114:	7823      	ldrb	r3, [r4, #0]
 8000116:	b933      	cbnz	r3, 8000126 <__do_global_dtors_aux+0x16>
 8000118:	4b04      	ldr	r3, [pc, #16]	; (800012c <__do_global_dtors_aux+0x1c>)
 800011a:	b113      	cbz	r3, 8000122 <__do_global_dtors_aux+0x12>
 800011c:	4804      	ldr	r0, [pc, #16]	; (8000130 <__do_global_dtors_aux+0x20>)
 800011e:	f3af 8000 	nop.w
 8000122:	2301      	movs	r3, #1
 8000124:	7023      	strb	r3, [r4, #0]
 8000126:	bd10      	pop	{r4, pc}
 8000128:	20000070 	.word	0x20000070
 800012c:	00000000 	.word	0x00000000
 8000130:	0800607c 	.word	0x0800607c

08000134 <frame_dummy>:
 8000134:	b508      	push	{r3, lr}
 8000136:	4b03      	ldr	r3, [pc, #12]	; (8000144 <frame_dummy+0x10>)
 8000138:	b11b      	cbz	r3, 8000142 <frame_dummy+0xe>
 800013a:	4903      	ldr	r1, [pc, #12]	; (8000148 <frame_dummy+0x14>)
 800013c:	4803      	ldr	r0, [pc, #12]	; (800014c <frame_dummy+0x18>)
 800013e:	f3af 8000 	nop.w
 8000142:	bd08      	pop	{r3, pc}
 8000144:	00000000 	.word	0x00000000
 8000148:	20000074 	.word	0x20000074
 800014c:	0800607c 	.word	0x0800607c

08000150 <__aeabi_drsub>:
 8000150:	f081 4100 	eor.w	r1, r1, #2147483648	; 0x80000000
 8000154:	e002      	b.n	800015c <__adddf3>
 8000156:	bf00      	nop

08000158 <__aeabi_dsub>:
 8000158:	f083 4300 	eor.w	r3, r3, #2147483648	; 0x80000000

0800015c <__adddf3>:
 800015c:	b530      	push	{r4, r5, lr}
 800015e:	ea4f 0441 	mov.w	r4, r1, lsl #1
 8000162:	ea4f 0543 	mov.w	r5, r3, lsl #1
 8000166:	ea94 0f05 	teq	r4, r5
 800016a:	bf08      	it	eq
 800016c:	ea90 0f02 	teqeq	r0, r2
 8000170:	bf1f      	itttt	ne
 8000172:	ea54 0c00 	orrsne.w	ip, r4, r0
 8000176:	ea55 0c02 	orrsne.w	ip, r5, r2
 800017a:	ea7f 5c64 	mvnsne.w	ip, r4, asr #21
 800017e:	ea7f 5c65 	mvnsne.w	ip, r5, asr #21
 8000182:	f000 80e2 	beq.w	800034a <__adddf3+0x1ee>
 8000186:	ea4f 5454 	mov.w	r4, r4, lsr #21
 800018a:	ebd4 5555 	rsbs	r5, r4, r5, lsr #21
 800018e:	bfb8      	it	lt
 8000190:	426d      	neglt	r5, r5
 8000192:	dd0c      	ble.n	80001ae <__adddf3+0x52>
 8000194:	442c      	add	r4, r5
 8000196:	ea80 0202 	eor.w	r2, r0, r2
 800019a:	ea81 0303 	eor.w	r3, r1, r3
 800019e:	ea82 0000 	eor.w	r0, r2, r0
 80001a2:	ea83 0101 	eor.w	r1, r3, r1
 80001a6:	ea80 0202 	eor.w	r2, r0, r2
 80001aa:	ea81 0303 	eor.w	r3, r1, r3
 80001ae:	2d36      	cmp	r5, #54	; 0x36
 80001b0:	bf88      	it	hi
 80001b2:	bd30      	pophi	{r4, r5, pc}
 80001b4:	f011 4f00 	tst.w	r1, #2147483648	; 0x80000000
 80001b8:	ea4f 3101 	mov.w	r1, r1, lsl #12
 80001bc:	f44f 1c80 	mov.w	ip, #1048576	; 0x100000
 80001c0:	ea4c 3111 	orr.w	r1, ip, r1, lsr #12
 80001c4:	d002      	beq.n	80001cc <__adddf3+0x70>
 80001c6:	4240      	negs	r0, r0
 80001c8:	eb61 0141 	sbc.w	r1, r1, r1, lsl #1
 80001cc:	f013 4f00 	tst.w	r3, #2147483648	; 0x80000000
 80001d0:	ea4f 3303 	mov.w	r3, r3, lsl #12
 80001d4:	ea4c 3313 	orr.w	r3, ip, r3, lsr #12
 80001d8:	d002      	beq.n	80001e0 <__adddf3+0x84>
 80001da:	4252      	negs	r2, r2
 80001dc:	eb63 0343 	sbc.w	r3, r3, r3, lsl #1
 80001e0:	ea94 0f05 	teq	r4, r5
 80001e4:	f000 80a7 	beq.w	8000336 <__adddf3+0x1da>
 80001e8:	f1a4 0401 	sub.w	r4, r4, #1
 80001ec:	f1d5 0e20 	rsbs	lr, r5, #32
 80001f0:	db0d      	blt.n	800020e <__adddf3+0xb2>
 80001f2:	fa02 fc0e 	lsl.w	ip, r2, lr
 80001f6:	fa22 f205 	lsr.w	r2, r2, r5
 80001fa:	1880      	adds	r0, r0, r2
 80001fc:	f141 0100 	adc.w	r1, r1, #0
 8000200:	fa03 f20e 	lsl.w	r2, r3, lr
 8000204:	1880      	adds	r0, r0, r2
 8000206:	fa43 f305 	asr.w	r3, r3, r5
 800020a:	4159      	adcs	r1, r3
 800020c:	e00e      	b.n	800022c <__adddf3+0xd0>
 800020e:	f1a5 0520 	sub.w	r5, r5, #32
 8000212:	f10e 0e20 	add.w	lr, lr, #32
 8000216:	2a01      	cmp	r2, #1
 8000218:	fa03 fc0e 	lsl.w	ip, r3, lr
 800021c:	bf28      	it	cs
 800021e:	f04c 0c02 	orrcs.w	ip, ip, #2
 8000222:	fa43 f305 	asr.w	r3, r3, r5
 8000226:	18c0      	adds	r0, r0, r3
 8000228:	eb51 71e3 	adcs.w	r1, r1, r3, asr #31
 800022c:	f001 4500 	and.w	r5, r1, #2147483648	; 0x80000000
 8000230:	d507      	bpl.n	8000242 <__adddf3+0xe6>
 8000232:	f04f 0e00 	mov.w	lr, #0
 8000236:	f1dc 0c00 	rsbs	ip, ip, #0
 800023a:	eb7e 0000 	sbcs.w	r0, lr, r0
 800023e:	eb6e 0101 	sbc.w	r1, lr, r1
 8000242:	f5b1 1f80 	cmp.w	r1, #1048576	; 0x100000
 8000246:	d31b      	bcc.n	8000280 <__adddf3+0x124>
 8000248:	f5b1 1f00 	cmp.w	r1, #2097152	; 0x200000
 800024c:	d30c      	bcc.n	8000268 <__adddf3+0x10c>
 800024e:	0849      	lsrs	r1, r1, #1
 8000250:	ea5f 0030 	movs.w	r0, r0, rrx
 8000254:	ea4f 0c3c 	mov.w	ip, ip, rrx
 8000258:	f104 0401 	add.w	r4, r4, #1
 800025c:	ea4f 5244 	mov.w	r2, r4, lsl #21
 8000260:	f512 0f80 	cmn.w	r2, #4194304	; 0x400000
 8000264:	f080 809a 	bcs.w	800039c <__adddf3+0x240>
 8000268:	f1bc 4f00 	cmp.w	ip, #2147483648	; 0x80000000
 800026c:	bf08      	it	eq
 800026e:	ea5f 0c50 	movseq.w	ip, r0, lsr #1
 8000272:	f150 0000 	adcs.w	r0, r0, #0
 8000276:	eb41 5104 	adc.w	r1, r1, r4, lsl #20
 800027a:	ea41 0105 	orr.w	r1, r1, r5
 800027e:	bd30      	pop	{r4, r5, pc}
 8000280:	ea5f 0c4c 	movs.w	ip, ip, lsl #1
 8000284:	4140      	adcs	r0, r0
 8000286:	eb41 0101 	adc.w	r1, r1, r1
 800028a:	3c01      	subs	r4, #1
 800028c:	bf28      	it	cs
 800028e:	f5b1 1f80 	cmpcs.w	r1, #1048576	; 0x100000
 8000292:	d2e9      	bcs.n	8000268 <__adddf3+0x10c>
 8000294:	f091 0f00 	teq	r1, #0
 8000298:	bf04      	itt	eq
 800029a:	4601      	moveq	r1, r0
 800029c:	2000      	moveq	r0, #0
 800029e:	fab1 f381 	clz	r3, r1
 80002a2:	bf08      	it	eq
 80002a4:	3320      	addeq	r3, #32
 80002a6:	f1a3 030b 	sub.w	r3, r3, #11
 80002aa:	f1b3 0220 	subs.w	r2, r3, #32
 80002ae:	da0c      	bge.n	80002ca <__adddf3+0x16e>
 80002b0:	320c      	adds	r2, #12
 80002b2:	dd08      	ble.n	80002c6 <__adddf3+0x16a>
 80002b4:	f102 0c14 	add.w	ip, r2, #20
 80002b8:	f1c2 020c 	rsb	r2, r2, #12
 80002bc:	fa01 f00c 	lsl.w	r0, r1, ip
 80002c0:	fa21 f102 	lsr.w	r1, r1, r2
 80002c4:	e00c      	b.n	80002e0 <__adddf3+0x184>
 80002c6:	f102 0214 	add.w	r2, r2, #20
 80002ca:	bfd8      	it	le
 80002cc:	f1c2 0c20 	rsble	ip, r2, #32
 80002d0:	fa01 f102 	lsl.w	r1, r1, r2
 80002d4:	fa20 fc0c 	lsr.w	ip, r0, ip
 80002d8:	bfdc      	itt	le
 80002da:	ea41 010c 	orrle.w	r1, r1, ip
 80002de:	4090      	lslle	r0, r2
 80002e0:	1ae4      	subs	r4, r4, r3
 80002e2:	bfa2      	ittt	ge
 80002e4:	eb01 5104 	addge.w	r1, r1, r4, lsl #20
 80002e8:	4329      	orrge	r1, r5
 80002ea:	bd30      	popge	{r4, r5, pc}
 80002ec:	ea6f 0404 	mvn.w	r4, r4
 80002f0:	3c1f      	subs	r4, #31
 80002f2:	da1c      	bge.n	800032e <__adddf3+0x1d2>
 80002f4:	340c      	adds	r4, #12
 80002f6:	dc0e      	bgt.n	8000316 <__adddf3+0x1ba>
 80002f8:	f104 0414 	add.w	r4, r4, #20
 80002fc:	f1c4 0220 	rsb	r2, r4, #32
 8000300:	fa20 f004 	lsr.w	r0, r0, r4
 8000304:	fa01 f302 	lsl.w	r3, r1, r2
 8000308:	ea40 0003 	orr.w	r0, r0, r3
 800030c:	fa21 f304 	lsr.w	r3, r1, r4
 8000310:	ea45 0103 	orr.w	r1, r5, r3
 8000314:	bd30      	pop	{r4, r5, pc}
 8000316:	f1c4 040c 	rsb	r4, r4, #12
 800031a:	f1c4 0220 	rsb	r2, r4, #32
 800031e:	fa20 f002 	lsr.w	r0, r0, r2
 8000322:	fa01 f304 	lsl.w	r3, r1, r4
 8000326:	ea40 0003 	orr.w	r0, r0, r3
 800032a:	4629      	mov	r1, r5
 800032c:	bd30      	pop	{r4, r5, pc}
 800032e:	fa21 f004 	lsr.w	r0, r1, r4
 8000332:	4629      	mov	r1, r5
 8000334:	bd30      	pop	{r4, r5, pc}
 8000336:	f094 0f00 	teq	r4, #0
 800033a:	f483 1380 	eor.w	r3, r3, #1048576	; 0x100000
 800033e:	bf06      	itte	eq
 8000340:	f481 1180 	eoreq.w	r1, r1, #1048576	; 0x100000
 8000344:	3401      	addeq	r4, #1
 8000346:	3d01      	subne	r5, #1
 8000348:	e74e      	b.n	80001e8 <__adddf3+0x8c>
 800034a:	ea7f 5c64 	mvns.w	ip, r4, asr #21
 800034e:	bf18      	it	ne
 8000350:	ea7f 5c65 	mvnsne.w	ip, r5, asr #21
 8000354:	d029      	beq.n	80003aa <__adddf3+0x24e>
 8000356:	ea94 0f05 	teq	r4, r5
 800035a:	bf08      	it	eq
 800035c:	ea90 0f02 	teqeq	r0, r2
 8000360:	d005      	beq.n	800036e <__adddf3+0x212>
 8000362:	ea54 0c00 	orrs.w	ip, r4, r0
 8000366:	bf04      	itt	eq
 8000368:	4619      	moveq	r1, r3
 800036a:	4610      	moveq	r0, r2
 800036c:	bd30      	pop	{r4, r5, pc}
 800036e:	ea91 0f03 	teq	r1, r3
 8000372:	bf1e      	ittt	ne
 8000374:	2100      	movne	r1, #0
 8000376:	2000      	movne	r0, #0
 8000378:	bd30      	popne	{r4, r5, pc}
 800037a:	ea5f 5c54 	movs.w	ip, r4, lsr #21
 800037e:	d105      	bne.n	800038c <__adddf3+0x230>
 8000380:	0040      	lsls	r0, r0, #1
 8000382:	4149      	adcs	r1, r1
 8000384:	bf28      	it	cs
 8000386:	f041 4100 	orrcs.w	r1, r1, #2147483648	; 0x80000000
 800038a:	bd30      	pop	{r4, r5, pc}
 800038c:	f514 0480 	adds.w	r4, r4, #4194304	; 0x400000
 8000390:	bf3c      	itt	cc
 8000392:	f501 1180 	addcc.w	r1, r1, #1048576	; 0x100000
 8000396:	bd30      	popcc	{r4, r5, pc}
 8000398:	f001 4500 	and.w	r5, r1, #2147483648	; 0x80000000
 800039c:	f045 41fe 	orr.w	r1, r5, #2130706432	; 0x7f000000
 80003a0:	f441 0170 	orr.w	r1, r1, #15728640	; 0xf00000
 80003a4:	f04f 0000 	mov.w	r0, #0
 80003a8:	bd30      	pop	{r4, r5, pc}
 80003aa:	ea7f 5c64 	mvns.w	ip, r4, asr #21
 80003ae:	bf1a      	itte	ne
 80003b0:	4619      	movne	r1, r3
 80003b2:	4610      	movne	r0, r2
 80003b4:	ea7f 5c65 	mvnseq.w	ip, r5, asr #21
 80003b8:	bf1c      	itt	ne
 80003ba:	460b      	movne	r3, r1
 80003bc:	4602      	movne	r2, r0
 80003be:	ea50 3401 	orrs.w	r4, r0, r1, lsl #12
 80003c2:	bf06      	itte	eq
 80003c4:	ea52 3503 	orrseq.w	r5, r2, r3, lsl #12
 80003c8:	ea91 0f03 	teqeq	r1, r3
 80003cc:	f441 2100 	orrne.w	r1, r1, #524288	; 0x80000
 80003d0:	bd30      	pop	{r4, r5, pc}
 80003d2:	bf00      	nop

080003d4 <__aeabi_ui2d>:
 80003d4:	f090 0f00 	teq	r0, #0
 80003d8:	bf04      	itt	eq
 80003da:	2100      	moveq	r1, #0
 80003dc:	4770      	bxeq	lr
 80003de:	b530      	push	{r4, r5, lr}
 80003e0:	f44f 6480 	mov.w	r4, #1024	; 0x400
 80003e4:	f104 0432 	add.w	r4, r4, #50	; 0x32
 80003e8:	f04f 0500 	mov.w	r5, #0
 80003ec:	f04f 0100 	mov.w	r1, #0
 80003f0:	e750      	b.n	8000294 <__adddf3+0x138>
 80003f2:	bf00      	nop

080003f4 <__aeabi_i2d>:
 80003f4:	f090 0f00 	teq	r0, #0
 80003f8:	bf04      	itt	eq
 80003fa:	2100      	moveq	r1, #0
 80003fc:	4770      	bxeq	lr
 80003fe:	b530      	push	{r4, r5, lr}
 8000400:	f44f 6480 	mov.w	r4, #1024	; 0x400
 8000404:	f104 0432 	add.w	r4, r4, #50	; 0x32
 8000408:	f010 4500 	ands.w	r5, r0, #2147483648	; 0x80000000
 800040c:	bf48      	it	mi
 800040e:	4240      	negmi	r0, r0
 8000410:	f04f 0100 	mov.w	r1, #0
 8000414:	e73e      	b.n	8000294 <__adddf3+0x138>
 8000416:	bf00      	nop

08000418 <__aeabi_f2d>:
 8000418:	0042      	lsls	r2, r0, #1
 800041a:	ea4f 01e2 	mov.w	r1, r2, asr #3
 800041e:	ea4f 0131 	mov.w	r1, r1, rrx
 8000422:	ea4f 7002 	mov.w	r0, r2, lsl #28
 8000426:	bf1f      	itttt	ne
 8000428:	f012 437f 	andsne.w	r3, r2, #4278190080	; 0xff000000
 800042c:	f093 4f7f 	teqne	r3, #4278190080	; 0xff000000
 8000430:	f081 5160 	eorne.w	r1, r1, #939524096	; 0x38000000
 8000434:	4770      	bxne	lr
 8000436:	f032 427f 	bics.w	r2, r2, #4278190080	; 0xff000000
 800043a:	bf08      	it	eq
 800043c:	4770      	bxeq	lr
 800043e:	f093 4f7f 	teq	r3, #4278190080	; 0xff000000
 8000442:	bf04      	itt	eq
 8000444:	f441 2100 	orreq.w	r1, r1, #524288	; 0x80000
 8000448:	4770      	bxeq	lr
 800044a:	b530      	push	{r4, r5, lr}
 800044c:	f44f 7460 	mov.w	r4, #896	; 0x380
 8000450:	f001 4500 	and.w	r5, r1, #2147483648	; 0x80000000
 8000454:	f021 4100 	bic.w	r1, r1, #2147483648	; 0x80000000
 8000458:	e71c      	b.n	8000294 <__adddf3+0x138>
 800045a:	bf00      	nop

0800045c <__aeabi_ul2d>:
 800045c:	ea50 0201 	orrs.w	r2, r0, r1
 8000460:	bf08      	it	eq
 8000462:	4770      	bxeq	lr
 8000464:	b530      	push	{r4, r5, lr}
 8000466:	f04f 0500 	mov.w	r5, #0
 800046a:	e00a      	b.n	8000482 <__aeabi_l2d+0x16>

0800046c <__aeabi_l2d>:
 800046c:	ea50 0201 	orrs.w	r2, r0, r1
 8000470:	bf08      	it	eq
 8000472:	4770      	bxeq	lr
 8000474:	b530      	push	{r4, r5, lr}
 8000476:	f011 4500 	ands.w	r5, r1, #2147483648	; 0x80000000
 800047a:	d502      	bpl.n	8000482 <__aeabi_l2d+0x16>
 800047c:	4240      	negs	r0, r0
 800047e:	eb61 0141 	sbc.w	r1, r1, r1, lsl #1
 8000482:	f44f 6480 	mov.w	r4, #1024	; 0x400
 8000486:	f104 0432 	add.w	r4, r4, #50	; 0x32
 800048a:	ea5f 5c91 	movs.w	ip, r1, lsr #22
 800048e:	f43f aed8 	beq.w	8000242 <__adddf3+0xe6>
 8000492:	f04f 0203 	mov.w	r2, #3
 8000496:	ea5f 0cdc 	movs.w	ip, ip, lsr #3
 800049a:	bf18      	it	ne
 800049c:	3203      	addne	r2, #3
 800049e:	ea5f 0cdc 	movs.w	ip, ip, lsr #3
 80004a2:	bf18      	it	ne
 80004a4:	3203      	addne	r2, #3
 80004a6:	eb02 02dc 	add.w	r2, r2, ip, lsr #3
 80004aa:	f1c2 0320 	rsb	r3, r2, #32
 80004ae:	fa00 fc03 	lsl.w	ip, r0, r3
 80004b2:	fa20 f002 	lsr.w	r0, r0, r2
 80004b6:	fa01 fe03 	lsl.w	lr, r1, r3
 80004ba:	ea40 000e 	orr.w	r0, r0, lr
 80004be:	fa21 f102 	lsr.w	r1, r1, r2
 80004c2:	4414      	add	r4, r2
 80004c4:	e6bd      	b.n	8000242 <__adddf3+0xe6>
 80004c6:	bf00      	nop

080004c8 <__aeabi_dmul>:
 80004c8:	b570      	push	{r4, r5, r6, lr}
 80004ca:	f04f 0cff 	mov.w	ip, #255	; 0xff
 80004ce:	f44c 6ce0 	orr.w	ip, ip, #1792	; 0x700
 80004d2:	ea1c 5411 	ands.w	r4, ip, r1, lsr #20
 80004d6:	bf1d      	ittte	ne
 80004d8:	ea1c 5513 	andsne.w	r5, ip, r3, lsr #20
 80004dc:	ea94 0f0c 	teqne	r4, ip
 80004e0:	ea95 0f0c 	teqne	r5, ip
 80004e4:	f000 f8de 	bleq	80006a4 <__aeabi_dmul+0x1dc>
 80004e8:	442c      	add	r4, r5
 80004ea:	ea81 0603 	eor.w	r6, r1, r3
 80004ee:	ea21 514c 	bic.w	r1, r1, ip, lsl #21
 80004f2:	ea23 534c 	bic.w	r3, r3, ip, lsl #21
 80004f6:	ea50 3501 	orrs.w	r5, r0, r1, lsl #12
 80004fa:	bf18      	it	ne
 80004fc:	ea52 3503 	orrsne.w	r5, r2, r3, lsl #12
 8000500:	f441 1180 	orr.w	r1, r1, #1048576	; 0x100000
 8000504:	f443 1380 	orr.w	r3, r3, #1048576	; 0x100000
 8000508:	d038      	beq.n	800057c <__aeabi_dmul+0xb4>
 800050a:	fba0 ce02 	umull	ip, lr, r0, r2
 800050e:	f04f 0500 	mov.w	r5, #0
 8000512:	fbe1 e502 	umlal	lr, r5, r1, r2
 8000516:	f006 4200 	and.w	r2, r6, #2147483648	; 0x80000000
 800051a:	fbe0 e503 	umlal	lr, r5, r0, r3
 800051e:	f04f 0600 	mov.w	r6, #0
 8000522:	fbe1 5603 	umlal	r5, r6, r1, r3
 8000526:	f09c 0f00 	teq	ip, #0
 800052a:	bf18      	it	ne
 800052c:	f04e 0e01 	orrne.w	lr, lr, #1
 8000530:	f1a4 04ff 	sub.w	r4, r4, #255	; 0xff
 8000534:	f5b6 7f00 	cmp.w	r6, #512	; 0x200
 8000538:	f564 7440 	sbc.w	r4, r4, #768	; 0x300
 800053c:	d204      	bcs.n	8000548 <__aeabi_dmul+0x80>
 800053e:	ea5f 0e4e 	movs.w	lr, lr, lsl #1
 8000542:	416d      	adcs	r5, r5
 8000544:	eb46 0606 	adc.w	r6, r6, r6
 8000548:	ea42 21c6 	orr.w	r1, r2, r6, lsl #11
 800054c:	ea41 5155 	orr.w	r1, r1, r5, lsr #21
 8000550:	ea4f 20c5 	mov.w	r0, r5, lsl #11
 8000554:	ea40 505e 	orr.w	r0, r0, lr, lsr #21
 8000558:	ea4f 2ece 	mov.w	lr, lr, lsl #11
 800055c:	f1b4 0cfd 	subs.w	ip, r4, #253	; 0xfd
 8000560:	bf88      	it	hi
 8000562:	f5bc 6fe0 	cmphi.w	ip, #1792	; 0x700
 8000566:	d81e      	bhi.n	80005a6 <__aeabi_dmul+0xde>
 8000568:	f1be 4f00 	cmp.w	lr, #2147483648	; 0x80000000
 800056c:	bf08      	it	eq
 800056e:	ea5f 0e50 	movseq.w	lr, r0, lsr #1
 8000572:	f150 0000 	adcs.w	r0, r0, #0
 8000576:	eb41 5104 	adc.w	r1, r1, r4, lsl #20
 800057a:	bd70      	pop	{r4, r5, r6, pc}
 800057c:	f006 4600 	and.w	r6, r6, #2147483648	; 0x80000000
 8000580:	ea46 0101 	orr.w	r1, r6, r1
 8000584:	ea40 0002 	orr.w	r0, r0, r2
 8000588:	ea81 0103 	eor.w	r1, r1, r3
 800058c:	ebb4 045c 	subs.w	r4, r4, ip, lsr #1
 8000590:	bfc2      	ittt	gt
 8000592:	ebd4 050c 	rsbsgt	r5, r4, ip
 8000596:	ea41 5104 	orrgt.w	r1, r1, r4, lsl #20
 800059a:	bd70      	popgt	{r4, r5, r6, pc}
 800059c:	f441 1180 	orr.w	r1, r1, #1048576	; 0x100000
 80005a0:	f04f 0e00 	mov.w	lr, #0
 80005a4:	3c01      	subs	r4, #1
 80005a6:	f300 80ab 	bgt.w	8000700 <__aeabi_dmul+0x238>
 80005aa:	f114 0f36 	cmn.w	r4, #54	; 0x36
 80005ae:	bfde      	ittt	le
 80005b0:	2000      	movle	r0, #0
 80005b2:	f001 4100 	andle.w	r1, r1, #2147483648	; 0x80000000
 80005b6:	bd70      	pople	{r4, r5, r6, pc}
 80005b8:	f1c4 0400 	rsb	r4, r4, #0
 80005bc:	3c20      	subs	r4, #32
 80005be:	da35      	bge.n	800062c <__aeabi_dmul+0x164>
 80005c0:	340c      	adds	r4, #12
 80005c2:	dc1b      	bgt.n	80005fc <__aeabi_dmul+0x134>
 80005c4:	f104 0414 	add.w	r4, r4, #20
 80005c8:	f1c4 0520 	rsb	r5, r4, #32
 80005cc:	fa00 f305 	lsl.w	r3, r0, r5
 80005d0:	fa20 f004 	lsr.w	r0, r0, r4
 80005d4:	fa01 f205 	lsl.w	r2, r1, r5
 80005d8:	ea40 0002 	orr.w	r0, r0, r2
 80005dc:	f001 4200 	and.w	r2, r1, #2147483648	; 0x80000000
 80005e0:	f021 4100 	bic.w	r1, r1, #2147483648	; 0x80000000
 80005e4:	eb10 70d3 	adds.w	r0, r0, r3, lsr #31
 80005e8:	fa21 f604 	lsr.w	r6, r1, r4
 80005ec:	eb42 0106 	adc.w	r1, r2, r6
 80005f0:	ea5e 0e43 	orrs.w	lr, lr, r3, lsl #1
 80005f4:	bf08      	it	eq
 80005f6:	ea20 70d3 	biceq.w	r0, r0, r3, lsr #31
 80005fa:	bd70      	pop	{r4, r5, r6, pc}
 80005fc:	f1c4 040c 	rsb	r4, r4, #12
 8000600:	f1c4 0520 	rsb	r5, r4, #32
 8000604:	fa00 f304 	lsl.w	r3, r0, r4
 8000608:	fa20 f005 	lsr.w	r0, r0, r5
 800060c:	fa01 f204 	lsl.w	r2, r1, r4
 8000610:	ea40 0002 	orr.w	r0, r0, r2
 8000614:	f001 4100 	and.w	r1, r1, #2147483648	; 0x80000000
 8000618:	eb10 70d3 	adds.w	r0, r0, r3, lsr #31
 800061c:	f141 0100 	adc.w	r1, r1, #0
 8000620:	ea5e 0e43 	orrs.w	lr, lr, r3, lsl #1
 8000624:	bf08      	it	eq
 8000626:	ea20 70d3 	biceq.w	r0, r0, r3, lsr #31
 800062a:	bd70      	pop	{r4, r5, r6, pc}
 800062c:	f1c4 0520 	rsb	r5, r4, #32
 8000630:	fa00 f205 	lsl.w	r2, r0, r5
 8000634:	ea4e 0e02 	orr.w	lr, lr, r2
 8000638:	fa20 f304 	lsr.w	r3, r0, r4
 800063c:	fa01 f205 	lsl.w	r2, r1, r5
 8000640:	ea43 0302 	orr.w	r3, r3, r2
 8000644:	fa21 f004 	lsr.w	r0, r1, r4
 8000648:	f001 4100 	and.w	r1, r1, #2147483648	; 0x80000000
 800064c:	fa21 f204 	lsr.w	r2, r1, r4
 8000650:	ea20 0002 	bic.w	r0, r0, r2
 8000654:	eb00 70d3 	add.w	r0, r0, r3, lsr #31
 8000658:	ea5e 0e43 	orrs.w	lr, lr, r3, lsl #1
 800065c:	bf08      	it	eq
 800065e:	ea20 70d3 	biceq.w	r0, r0, r3, lsr #31
 8000662:	bd70      	pop	{r4, r5, r6, pc}
 8000664:	f094 0f00 	teq	r4, #0
 8000668:	d10f      	bne.n	800068a <__aeabi_dmul+0x1c2>
 800066a:	f001 4600 	and.w	r6, r1, #2147483648	; 0x80000000
 800066e:	0040      	lsls	r0, r0, #1
 8000670:	eb41 0101 	adc.w	r1, r1, r1
 8000674:	f411 1f80 	tst.w	r1, #1048576	; 0x100000
 8000678:	bf08      	it	eq
 800067a:	3c01      	subeq	r4, #1
 800067c:	d0f7      	beq.n	800066e <__aeabi_dmul+0x1a6>
 800067e:	ea41 0106 	orr.w	r1, r1, r6
 8000682:	f095 0f00 	teq	r5, #0
 8000686:	bf18      	it	ne
 8000688:	4770      	bxne	lr
 800068a:	f003 4600 	and.w	r6, r3, #2147483648	; 0x80000000
 800068e:	0052      	lsls	r2, r2, #1
 8000690:	eb43 0303 	adc.w	r3, r3, r3
 8000694:	f413 1f80 	tst.w	r3, #1048576	; 0x100000
 8000698:	bf08      	it	eq
 800069a:	3d01      	subeq	r5, #1
 800069c:	d0f7      	beq.n	800068e <__aeabi_dmul+0x1c6>
 800069e:	ea43 0306 	orr.w	r3, r3, r6
 80006a2:	4770      	bx	lr
 80006a4:	ea94 0f0c 	teq	r4, ip
 80006a8:	ea0c 5513 	and.w	r5, ip, r3, lsr #20
 80006ac:	bf18      	it	ne
 80006ae:	ea95 0f0c 	teqne	r5, ip
 80006b2:	d00c      	beq.n	80006ce <__aeabi_dmul+0x206>
 80006b4:	ea50 0641 	orrs.w	r6, r0, r1, lsl #1
 80006b8:	bf18      	it	ne
 80006ba:	ea52 0643 	orrsne.w	r6, r2, r3, lsl #1
 80006be:	d1d1      	bne.n	8000664 <__aeabi_dmul+0x19c>
 80006c0:	ea81 0103 	eor.w	r1, r1, r3
 80006c4:	f001 4100 	and.w	r1, r1, #2147483648	; 0x80000000
 80006c8:	f04f 0000 	mov.w	r0, #0
 80006cc:	bd70      	pop	{r4, r5, r6, pc}
 80006ce:	ea50 0641 	orrs.w	r6, r0, r1, lsl #1
 80006d2:	bf06      	itte	eq
 80006d4:	4610      	moveq	r0, r2
 80006d6:	4619      	moveq	r1, r3
 80006d8:	ea52 0643 	orrsne.w	r6, r2, r3, lsl #1
 80006dc:	d019      	beq.n	8000712 <__aeabi_dmul+0x24a>
 80006de:	ea94 0f0c 	teq	r4, ip
 80006e2:	d102      	bne.n	80006ea <__aeabi_dmul+0x222>
 80006e4:	ea50 3601 	orrs.w	r6, r0, r1, lsl #12
 80006e8:	d113      	bne.n	8000712 <__aeabi_dmul+0x24a>
 80006ea:	ea95 0f0c 	teq	r5, ip
 80006ee:	d105      	bne.n	80006fc <__aeabi_dmul+0x234>
 80006f0:	ea52 3603 	orrs.w	r6, r2, r3, lsl #12
 80006f4:	bf1c      	itt	ne
 80006f6:	4610      	movne	r0, r2
 80006f8:	4619      	movne	r1, r3
 80006fa:	d10a      	bne.n	8000712 <__aeabi_dmul+0x24a>
 80006fc:	ea81 0103 	eor.w	r1, r1, r3
 8000700:	f001 4100 	and.w	r1, r1, #2147483648	; 0x80000000
 8000704:	f041 41fe 	orr.w	r1, r1, #2130706432	; 0x7f000000
 8000708:	f441 0170 	orr.w	r1, r1, #15728640	; 0xf00000
 800070c:	f04f 0000 	mov.w	r0, #0
 8000710:	bd70      	pop	{r4, r5, r6, pc}
 8000712:	f041 41fe 	orr.w	r1, r1, #2130706432	; 0x7f000000
 8000716:	f441 0178 	orr.w	r1, r1, #16252928	; 0xf80000
 800071a:	bd70      	pop	{r4, r5, r6, pc}

0800071c <__aeabi_ddiv>:
 800071c:	b570      	push	{r4, r5, r6, lr}
 800071e:	f04f 0cff 	mov.w	ip, #255	; 0xff
 8000722:	f44c 6ce0 	orr.w	ip, ip, #1792	; 0x700
 8000726:	ea1c 5411 	ands.w	r4, ip, r1, lsr #20
 800072a:	bf1d      	ittte	ne
 800072c:	ea1c 5513 	andsne.w	r5, ip, r3, lsr #20
 8000730:	ea94 0f0c 	teqne	r4, ip
 8000734:	ea95 0f0c 	teqne	r5, ip
 8000738:	f000 f8a7 	bleq	800088a <__aeabi_ddiv+0x16e>
 800073c:	eba4 0405 	sub.w	r4, r4, r5
 8000740:	ea81 0e03 	eor.w	lr, r1, r3
 8000744:	ea52 3503 	orrs.w	r5, r2, r3, lsl #12
 8000748:	ea4f 3101 	mov.w	r1, r1, lsl #12
 800074c:	f000 8088 	beq.w	8000860 <__aeabi_ddiv+0x144>
 8000750:	ea4f 3303 	mov.w	r3, r3, lsl #12
 8000754:	f04f 5580 	mov.w	r5, #268435456	; 0x10000000
 8000758:	ea45 1313 	orr.w	r3, r5, r3, lsr #4
 800075c:	ea43 6312 	orr.w	r3, r3, r2, lsr #24
 8000760:	ea4f 2202 	mov.w	r2, r2, lsl #8
 8000764:	ea45 1511 	orr.w	r5, r5, r1, lsr #4
 8000768:	ea45 6510 	orr.w	r5, r5, r0, lsr #24
 800076c:	ea4f 2600 	mov.w	r6, r0, lsl #8
 8000770:	f00e 4100 	and.w	r1, lr, #2147483648	; 0x80000000
 8000774:	429d      	cmp	r5, r3
 8000776:	bf08      	it	eq
 8000778:	4296      	cmpeq	r6, r2
 800077a:	f144 04fd 	adc.w	r4, r4, #253	; 0xfd
 800077e:	f504 7440 	add.w	r4, r4, #768	; 0x300
 8000782:	d202      	bcs.n	800078a <__aeabi_ddiv+0x6e>
 8000784:	085b      	lsrs	r3, r3, #1
 8000786:	ea4f 0232 	mov.w	r2, r2, rrx
 800078a:	1ab6      	subs	r6, r6, r2
 800078c:	eb65 0503 	sbc.w	r5, r5, r3
 8000790:	085b      	lsrs	r3, r3, #1
 8000792:	ea4f 0232 	mov.w	r2, r2, rrx
 8000796:	f44f 1080 	mov.w	r0, #1048576	; 0x100000
 800079a:	f44f 2c00 	mov.w	ip, #524288	; 0x80000
 800079e:	ebb6 0e02 	subs.w	lr, r6, r2
 80007a2:	eb75 0e03 	sbcs.w	lr, r5, r3
 80007a6:	bf22      	ittt	cs
 80007a8:	1ab6      	subcs	r6, r6, r2
 80007aa:	4675      	movcs	r5, lr
 80007ac:	ea40 000c 	orrcs.w	r0, r0, ip
 80007b0:	085b      	lsrs	r3, r3, #1
 80007b2:	ea4f 0232 	mov.w	r2, r2, rrx
 80007b6:	ebb6 0e02 	subs.w	lr, r6, r2
 80007ba:	eb75 0e03 	sbcs.w	lr, r5, r3
 80007be:	bf22      	ittt	cs
 80007c0:	1ab6      	subcs	r6, r6, r2
 80007c2:	4675      	movcs	r5, lr
 80007c4:	ea40 005c 	orrcs.w	r0, r0, ip, lsr #1
 80007c8:	085b      	lsrs	r3, r3, #1
 80007ca:	ea4f 0232 	mov.w	r2, r2, rrx
 80007ce:	ebb6 0e02 	subs.w	lr, r6, r2
 80007d2:	eb75 0e03 	sbcs.w	lr, r5, r3
 80007d6:	bf22      	ittt	cs
 80007d8:	1ab6      	subcs	r6, r6, r2
 80007da:	4675      	movcs	r5, lr
 80007dc:	ea40 009c 	orrcs.w	r0, r0, ip, lsr #2
 80007e0:	085b      	lsrs	r3, r3, #1
 80007e2:	ea4f 0232 	mov.w	r2, r2, rrx
 80007e6:	ebb6 0e02 	subs.w	lr, r6, r2
 80007ea:	eb75 0e03 	sbcs.w	lr, r5, r3
 80007ee:	bf22      	ittt	cs
 80007f0:	1ab6      	subcs	r6, r6, r2
 80007f2:	4675      	movcs	r5, lr
 80007f4:	ea40 00dc 	orrcs.w	r0, r0, ip, lsr #3
 80007f8:	ea55 0e06 	orrs.w	lr, r5, r6
 80007fc:	d018      	beq.n	8000830 <__aeabi_ddiv+0x114>
 80007fe:	ea4f 1505 	mov.w	r5, r5, lsl #4
 8000802:	ea45 7516 	orr.w	r5, r5, r6, lsr #28
 8000806:	ea4f 1606 	mov.w	r6, r6, lsl #4
 800080a:	ea4f 03c3 	mov.w	r3, r3, lsl #3
 800080e:	ea43 7352 	orr.w	r3, r3, r2, lsr #29
 8000812:	ea4f 02c2 	mov.w	r2, r2, lsl #3
 8000816:	ea5f 1c1c 	movs.w	ip, ip, lsr #4
 800081a:	d1c0      	bne.n	800079e <__aeabi_ddiv+0x82>
 800081c:	f411 1f80 	tst.w	r1, #1048576	; 0x100000
 8000820:	d10b      	bne.n	800083a <__aeabi_ddiv+0x11e>
 8000822:	ea41 0100 	orr.w	r1, r1, r0
 8000826:	f04f 0000 	mov.w	r0, #0
 800082a:	f04f 4c00 	mov.w	ip, #2147483648	; 0x80000000
 800082e:	e7b6      	b.n	800079e <__aeabi_ddiv+0x82>
 8000830:	f411 1f80 	tst.w	r1, #1048576	; 0x100000
 8000834:	bf04      	itt	eq
 8000836:	4301      	orreq	r1, r0
 8000838:	2000      	moveq	r0, #0
 800083a:	f1b4 0cfd 	subs.w	ip, r4, #253	; 0xfd
 800083e:	bf88      	it	hi
 8000840:	f5bc 6fe0 	cmphi.w	ip, #1792	; 0x700
 8000844:	f63f aeaf 	bhi.w	80005a6 <__aeabi_dmul+0xde>
 8000848:	ebb5 0c03 	subs.w	ip, r5, r3
 800084c:	bf04      	itt	eq
 800084e:	ebb6 0c02 	subseq.w	ip, r6, r2
 8000852:	ea5f 0c50 	movseq.w	ip, r0, lsr #1
 8000856:	f150 0000 	adcs.w	r0, r0, #0
 800085a:	eb41 5104 	adc.w	r1, r1, r4, lsl #20
 800085e:	bd70      	pop	{r4, r5, r6, pc}
 8000860:	f00e 4e00 	and.w	lr, lr, #2147483648	; 0x80000000
 8000864:	ea4e 3111 	orr.w	r1, lr, r1, lsr #12
 8000868:	eb14 045c 	adds.w	r4, r4, ip, lsr #1
 800086c:	bfc2      	ittt	gt
 800086e:	ebd4 050c 	rsbsgt	r5, r4, ip
 8000872:	ea41 5104 	orrgt.w	r1, r1, r4, lsl #20
 8000876:	bd70      	popgt	{r4, r5, r6, pc}
 8000878:	f441 1180 	orr.w	r1, r1, #1048576	; 0x100000
 800087c:	f04f 0e00 	mov.w	lr, #0
 8000880:	3c01      	subs	r4, #1
 8000882:	e690      	b.n	80005a6 <__aeabi_dmul+0xde>
 8000884:	ea45 0e06 	orr.w	lr, r5, r6
 8000888:	e68d      	b.n	80005a6 <__aeabi_dmul+0xde>
 800088a:	ea0c 5513 	and.w	r5, ip, r3, lsr #20
 800088e:	ea94 0f0c 	teq	r4, ip
 8000892:	bf08      	it	eq
 8000894:	ea95 0f0c 	teqeq	r5, ip
 8000898:	f43f af3b 	beq.w	8000712 <__aeabi_dmul+0x24a>
 800089c:	ea94 0f0c 	teq	r4, ip
 80008a0:	d10a      	bne.n	80008b8 <__aeabi_ddiv+0x19c>
 80008a2:	ea50 3401 	orrs.w	r4, r0, r1, lsl #12
 80008a6:	f47f af34 	bne.w	8000712 <__aeabi_dmul+0x24a>
 80008aa:	ea95 0f0c 	teq	r5, ip
 80008ae:	f47f af25 	bne.w	80006fc <__aeabi_dmul+0x234>
 80008b2:	4610      	mov	r0, r2
 80008b4:	4619      	mov	r1, r3
 80008b6:	e72c      	b.n	8000712 <__aeabi_dmul+0x24a>
 80008b8:	ea95 0f0c 	teq	r5, ip
 80008bc:	d106      	bne.n	80008cc <__aeabi_ddiv+0x1b0>
 80008be:	ea52 3503 	orrs.w	r5, r2, r3, lsl #12
 80008c2:	f43f aefd 	beq.w	80006c0 <__aeabi_dmul+0x1f8>
 80008c6:	4610      	mov	r0, r2
 80008c8:	4619      	mov	r1, r3
 80008ca:	e722      	b.n	8000712 <__aeabi_dmul+0x24a>
 80008cc:	ea50 0641 	orrs.w	r6, r0, r1, lsl #1
 80008d0:	bf18      	it	ne
 80008d2:	ea52 0643 	orrsne.w	r6, r2, r3, lsl #1
 80008d6:	f47f aec5 	bne.w	8000664 <__aeabi_dmul+0x19c>
 80008da:	ea50 0441 	orrs.w	r4, r0, r1, lsl #1
 80008de:	f47f af0d 	bne.w	80006fc <__aeabi_dmul+0x234>
 80008e2:	ea52 0543 	orrs.w	r5, r2, r3, lsl #1
 80008e6:	f47f aeeb 	bne.w	80006c0 <__aeabi_dmul+0x1f8>
 80008ea:	e712      	b.n	8000712 <__aeabi_dmul+0x24a>

080008ec <__gedf2>:
 80008ec:	f04f 3cff 	mov.w	ip, #4294967295
 80008f0:	e006      	b.n	8000900 <__cmpdf2+0x4>
 80008f2:	bf00      	nop

080008f4 <__ledf2>:
 80008f4:	f04f 0c01 	mov.w	ip, #1
 80008f8:	e002      	b.n	8000900 <__cmpdf2+0x4>
 80008fa:	bf00      	nop

080008fc <__cmpdf2>:
 80008fc:	f04f 0c01 	mov.w	ip, #1
 8000900:	f84d cd04 	str.w	ip, [sp, #-4]!
 8000904:	ea4f 0c41 	mov.w	ip, r1, lsl #1
 8000908:	ea7f 5c6c 	mvns.w	ip, ip, asr #21
 800090c:	ea4f 0c43 	mov.w	ip, r3, lsl #1
 8000910:	bf18      	it	ne
 8000912:	ea7f 5c6c 	mvnsne.w	ip, ip, asr #21
 8000916:	d01b      	beq.n	8000950 <__cmpdf2+0x54>
 8000918:	b001      	add	sp, #4
 800091a:	ea50 0c41 	orrs.w	ip, r0, r1, lsl #1
 800091e:	bf0c      	ite	eq
 8000920:	ea52 0c43 	orrseq.w	ip, r2, r3, lsl #1
 8000924:	ea91 0f03 	teqne	r1, r3
 8000928:	bf02      	ittt	eq
 800092a:	ea90 0f02 	teqeq	r0, r2
 800092e:	2000      	moveq	r0, #0
 8000930:	4770      	bxeq	lr
 8000932:	f110 0f00 	cmn.w	r0, #0
 8000936:	ea91 0f03 	teq	r1, r3
 800093a:	bf58      	it	pl
 800093c:	4299      	cmppl	r1, r3
 800093e:	bf08      	it	eq
 8000940:	4290      	cmpeq	r0, r2
 8000942:	bf2c      	ite	cs
 8000944:	17d8      	asrcs	r0, r3, #31
 8000946:	ea6f 70e3 	mvncc.w	r0, r3, asr #31
 800094a:	f040 0001 	orr.w	r0, r0, #1
 800094e:	4770      	bx	lr
 8000950:	ea4f 0c41 	mov.w	ip, r1, lsl #1
 8000954:	ea7f 5c6c 	mvns.w	ip, ip, asr #21
 8000958:	d102      	bne.n	8000960 <__cmpdf2+0x64>
 800095a:	ea50 3c01 	orrs.w	ip, r0, r1, lsl #12
 800095e:	d107      	bne.n	8000970 <__cmpdf2+0x74>
 8000960:	ea4f 0c43 	mov.w	ip, r3, lsl #1
 8000964:	ea7f 5c6c 	mvns.w	ip, ip, asr #21
 8000968:	d1d6      	bne.n	8000918 <__cmpdf2+0x1c>
 800096a:	ea52 3c03 	orrs.w	ip, r2, r3, lsl #12
 800096e:	d0d3      	beq.n	8000918 <__cmpdf2+0x1c>
 8000970:	f85d 0b04 	ldr.w	r0, [sp], #4
 8000974:	4770      	bx	lr
 8000976:	bf00      	nop

08000978 <__aeabi_cdrcmple>:
 8000978:	4684      	mov	ip, r0
 800097a:	4610      	mov	r0, r2
 800097c:	4662      	mov	r2, ip
 800097e:	468c      	mov	ip, r1
 8000980:	4619      	mov	r1, r3
 8000982:	4663      	mov	r3, ip
 8000984:	e000      	b.n	8000988 <__aeabi_cdcmpeq>
 8000986:	bf00      	nop

08000988 <__aeabi_cdcmpeq>:
 8000988:	b501      	push	{r0, lr}
 800098a:	f7ff ffb7 	bl	80008fc <__cmpdf2>
 800098e:	2800      	cmp	r0, #0
 8000990:	bf48      	it	mi
 8000992:	f110 0f00 	cmnmi.w	r0, #0
 8000996:	bd01      	pop	{r0, pc}

08000998 <__aeabi_dcmpeq>:
 8000998:	f84d ed08 	str.w	lr, [sp, #-8]!
 800099c:	f7ff fff4 	bl	8000988 <__aeabi_cdcmpeq>
 80009a0:	bf0c      	ite	eq
 80009a2:	2001      	moveq	r0, #1
 80009a4:	2000      	movne	r0, #0
 80009a6:	f85d fb08 	ldr.w	pc, [sp], #8
 80009aa:	bf00      	nop

080009ac <__aeabi_dcmplt>:
 80009ac:	f84d ed08 	str.w	lr, [sp, #-8]!
 80009b0:	f7ff ffea 	bl	8000988 <__aeabi_cdcmpeq>
 80009b4:	bf34      	ite	cc
 80009b6:	2001      	movcc	r0, #1
 80009b8:	2000      	movcs	r0, #0
 80009ba:	f85d fb08 	ldr.w	pc, [sp], #8
 80009be:	bf00      	nop

080009c0 <__aeabi_dcmple>:
 80009c0:	f84d ed08 	str.w	lr, [sp, #-8]!
 80009c4:	f7ff ffe0 	bl	8000988 <__aeabi_cdcmpeq>
 80009c8:	bf94      	ite	ls
 80009ca:	2001      	movls	r0, #1
 80009cc:	2000      	movhi	r0, #0
 80009ce:	f85d fb08 	ldr.w	pc, [sp], #8
 80009d2:	bf00      	nop

080009d4 <__aeabi_dcmpge>:
 80009d4:	f84d ed08 	str.w	lr, [sp, #-8]!
 80009d8:	f7ff ffce 	bl	8000978 <__aeabi_cdrcmple>
 80009dc:	bf94      	ite	ls
 80009de:	2001      	movls	r0, #1
 80009e0:	2000      	movhi	r0, #0
 80009e2:	f85d fb08 	ldr.w	pc, [sp], #8
 80009e6:	bf00      	nop

080009e8 <__aeabi_dcmpgt>:
 80009e8:	f84d ed08 	str.w	lr, [sp, #-8]!
 80009ec:	f7ff ffc4 	bl	8000978 <__aeabi_cdrcmple>
 80009f0:	bf34      	ite	cc
 80009f2:	2001      	movcc	r0, #1
 80009f4:	2000      	movcs	r0, #0
 80009f6:	f85d fb08 	ldr.w	pc, [sp], #8
 80009fa:	bf00      	nop

080009fc <__aeabi_dcmpun>:
 80009fc:	ea4f 0c41 	mov.w	ip, r1, lsl #1
 8000a00:	ea7f 5c6c 	mvns.w	ip, ip, asr #21
 8000a04:	d102      	bne.n	8000a0c <__aeabi_dcmpun+0x10>
 8000a06:	ea50 3c01 	orrs.w	ip, r0, r1, lsl #12
 8000a0a:	d10a      	bne.n	8000a22 <__aeabi_dcmpun+0x26>
 8000a0c:	ea4f 0c43 	mov.w	ip, r3, lsl #1
 8000a10:	ea7f 5c6c 	mvns.w	ip, ip, asr #21
 8000a14:	d102      	bne.n	8000a1c <__aeabi_dcmpun+0x20>
 8000a16:	ea52 3c03 	orrs.w	ip, r2, r3, lsl #12
 8000a1a:	d102      	bne.n	8000a22 <__aeabi_dcmpun+0x26>
 8000a1c:	f04f 0000 	mov.w	r0, #0
 8000a20:	4770      	bx	lr
 8000a22:	f04f 0001 	mov.w	r0, #1
 8000a26:	4770      	bx	lr

08000a28 <__aeabi_d2iz>:
 8000a28:	ea4f 0241 	mov.w	r2, r1, lsl #1
 8000a2c:	f512 1200 	adds.w	r2, r2, #2097152	; 0x200000
 8000a30:	d215      	bcs.n	8000a5e <__aeabi_d2iz+0x36>
 8000a32:	d511      	bpl.n	8000a58 <__aeabi_d2iz+0x30>
 8000a34:	f46f 7378 	mvn.w	r3, #992	; 0x3e0
 8000a38:	ebb3 5262 	subs.w	r2, r3, r2, asr #21
 8000a3c:	d912      	bls.n	8000a64 <__aeabi_d2iz+0x3c>
 8000a3e:	ea4f 23c1 	mov.w	r3, r1, lsl #11
 8000a42:	f043 4300 	orr.w	r3, r3, #2147483648	; 0x80000000
 8000a46:	ea43 5350 	orr.w	r3, r3, r0, lsr #21
 8000a4a:	f011 4f00 	tst.w	r1, #2147483648	; 0x80000000
 8000a4e:	fa23 f002 	lsr.w	r0, r3, r2
 8000a52:	bf18      	it	ne
 8000a54:	4240      	negne	r0, r0
 8000a56:	4770      	bx	lr
 8000a58:	f04f 0000 	mov.w	r0, #0
 8000a5c:	4770      	bx	lr
 8000a5e:	ea50 3001 	orrs.w	r0, r0, r1, lsl #12
 8000a62:	d105      	bne.n	8000a70 <__aeabi_d2iz+0x48>
 8000a64:	f011 4000 	ands.w	r0, r1, #2147483648	; 0x80000000
 8000a68:	bf08      	it	eq
 8000a6a:	f06f 4000 	mvneq.w	r0, #2147483648	; 0x80000000
 8000a6e:	4770      	bx	lr
 8000a70:	f04f 0000 	mov.w	r0, #0
 8000a74:	4770      	bx	lr
 8000a76:	bf00      	nop

08000a78 <__aeabi_d2f>:
 8000a78:	ea4f 0241 	mov.w	r2, r1, lsl #1
 8000a7c:	f1b2 43e0 	subs.w	r3, r2, #1879048192	; 0x70000000
 8000a80:	bf24      	itt	cs
 8000a82:	f5b3 1c00 	subscs.w	ip, r3, #2097152	; 0x200000
 8000a86:	f1dc 5cfe 	rsbscs	ip, ip, #532676608	; 0x1fc00000
 8000a8a:	d90d      	bls.n	8000aa8 <__aeabi_d2f+0x30>
 8000a8c:	f001 4c00 	and.w	ip, r1, #2147483648	; 0x80000000
 8000a90:	ea4f 02c0 	mov.w	r2, r0, lsl #3
 8000a94:	ea4c 7050 	orr.w	r0, ip, r0, lsr #29
 8000a98:	f1b2 4f00 	cmp.w	r2, #2147483648	; 0x80000000
 8000a9c:	eb40 0083 	adc.w	r0, r0, r3, lsl #2
 8000aa0:	bf08      	it	eq
 8000aa2:	f020 0001 	biceq.w	r0, r0, #1
 8000aa6:	4770      	bx	lr
 8000aa8:	f011 4f80 	tst.w	r1, #1073741824	; 0x40000000
 8000aac:	d121      	bne.n	8000af2 <__aeabi_d2f+0x7a>
 8000aae:	f113 7238 	adds.w	r2, r3, #48234496	; 0x2e00000
 8000ab2:	bfbc      	itt	lt
 8000ab4:	f001 4000 	andlt.w	r0, r1, #2147483648	; 0x80000000
 8000ab8:	4770      	bxlt	lr
 8000aba:	f441 1180 	orr.w	r1, r1, #1048576	; 0x100000
 8000abe:	ea4f 5252 	mov.w	r2, r2, lsr #21
 8000ac2:	f1c2 0218 	rsb	r2, r2, #24
 8000ac6:	f1c2 0c20 	rsb	ip, r2, #32
 8000aca:	fa10 f30c 	lsls.w	r3, r0, ip
 8000ace:	fa20 f002 	lsr.w	r0, r0, r2
 8000ad2:	bf18      	it	ne
 8000ad4:	f040 0001 	orrne.w	r0, r0, #1
 8000ad8:	ea4f 23c1 	mov.w	r3, r1, lsl #11
 8000adc:	ea4f 23d3 	mov.w	r3, r3, lsr #11
 8000ae0:	fa03 fc0c 	lsl.w	ip, r3, ip
 8000ae4:	ea40 000c 	orr.w	r0, r0, ip
 8000ae8:	fa23 f302 	lsr.w	r3, r3, r2
 8000aec:	ea4f 0343 	mov.w	r3, r3, lsl #1
 8000af0:	e7cc      	b.n	8000a8c <__aeabi_d2f+0x14>
 8000af2:	ea7f 5362 	mvns.w	r3, r2, asr #21
 8000af6:	d107      	bne.n	8000b08 <__aeabi_d2f+0x90>
 8000af8:	ea50 3301 	orrs.w	r3, r0, r1, lsl #12
 8000afc:	bf1e      	ittt	ne
 8000afe:	f04f 40fe 	movne.w	r0, #2130706432	; 0x7f000000
 8000b02:	f440 0040 	orrne.w	r0, r0, #12582912	; 0xc00000
 8000b06:	4770      	bxne	lr
 8000b08:	f001 4000 	and.w	r0, r1, #2147483648	; 0x80000000
 8000b0c:	f040 40fe 	orr.w	r0, r0, #2130706432	; 0x7f000000
 8000b10:	f440 0000 	orr.w	r0, r0, #8388608	; 0x800000
 8000b14:	4770      	bx	lr
 8000b16:	bf00      	nop

08000b18 <__aeabi_frsub>:
 8000b18:	f080 4000 	eor.w	r0, r0, #2147483648	; 0x80000000
 8000b1c:	e002      	b.n	8000b24 <__addsf3>
 8000b1e:	bf00      	nop

08000b20 <__aeabi_fsub>:
 8000b20:	f081 4100 	eor.w	r1, r1, #2147483648	; 0x80000000

08000b24 <__addsf3>:
 8000b24:	0042      	lsls	r2, r0, #1
 8000b26:	bf1f      	itttt	ne
 8000b28:	ea5f 0341 	movsne.w	r3, r1, lsl #1
 8000b2c:	ea92 0f03 	teqne	r2, r3
 8000b30:	ea7f 6c22 	mvnsne.w	ip, r2, asr #24
 8000b34:	ea7f 6c23 	mvnsne.w	ip, r3, asr #24
 8000b38:	d06a      	beq.n	8000c10 <__addsf3+0xec>
 8000b3a:	ea4f 6212 	mov.w	r2, r2, lsr #24
 8000b3e:	ebd2 6313 	rsbs	r3, r2, r3, lsr #24
 8000b42:	bfc1      	itttt	gt
 8000b44:	18d2      	addgt	r2, r2, r3
 8000b46:	4041      	eorgt	r1, r0
 8000b48:	4048      	eorgt	r0, r1
 8000b4a:	4041      	eorgt	r1, r0
 8000b4c:	bfb8      	it	lt
 8000b4e:	425b      	neglt	r3, r3
 8000b50:	2b19      	cmp	r3, #25
 8000b52:	bf88      	it	hi
 8000b54:	4770      	bxhi	lr
 8000b56:	f010 4f00 	tst.w	r0, #2147483648	; 0x80000000
 8000b5a:	f440 0000 	orr.w	r0, r0, #8388608	; 0x800000
 8000b5e:	f020 407f 	bic.w	r0, r0, #4278190080	; 0xff000000
 8000b62:	bf18      	it	ne
 8000b64:	4240      	negne	r0, r0
 8000b66:	f011 4f00 	tst.w	r1, #2147483648	; 0x80000000
 8000b6a:	f441 0100 	orr.w	r1, r1, #8388608	; 0x800000
 8000b6e:	f021 417f 	bic.w	r1, r1, #4278190080	; 0xff000000
 8000b72:	bf18      	it	ne
 8000b74:	4249      	negne	r1, r1
 8000b76:	ea92 0f03 	teq	r2, r3
 8000b7a:	d03f      	beq.n	8000bfc <__addsf3+0xd8>
 8000b7c:	f1a2 0201 	sub.w	r2, r2, #1
 8000b80:	fa41 fc03 	asr.w	ip, r1, r3
 8000b84:	eb10 000c 	adds.w	r0, r0, ip
 8000b88:	f1c3 0320 	rsb	r3, r3, #32
 8000b8c:	fa01 f103 	lsl.w	r1, r1, r3
 8000b90:	f000 4300 	and.w	r3, r0, #2147483648	; 0x80000000
 8000b94:	d502      	bpl.n	8000b9c <__addsf3+0x78>
 8000b96:	4249      	negs	r1, r1
 8000b98:	eb60 0040 	sbc.w	r0, r0, r0, lsl #1
 8000b9c:	f5b0 0f00 	cmp.w	r0, #8388608	; 0x800000
 8000ba0:	d313      	bcc.n	8000bca <__addsf3+0xa6>
 8000ba2:	f1b0 7f80 	cmp.w	r0, #16777216	; 0x1000000
 8000ba6:	d306      	bcc.n	8000bb6 <__addsf3+0x92>
 8000ba8:	0840      	lsrs	r0, r0, #1
 8000baa:	ea4f 0131 	mov.w	r1, r1, rrx
 8000bae:	f102 0201 	add.w	r2, r2, #1
 8000bb2:	2afe      	cmp	r2, #254	; 0xfe
 8000bb4:	d251      	bcs.n	8000c5a <__addsf3+0x136>
 8000bb6:	f1b1 4f00 	cmp.w	r1, #2147483648	; 0x80000000
 8000bba:	eb40 50c2 	adc.w	r0, r0, r2, lsl #23
 8000bbe:	bf08      	it	eq
 8000bc0:	f020 0001 	biceq.w	r0, r0, #1
 8000bc4:	ea40 0003 	orr.w	r0, r0, r3
 8000bc8:	4770      	bx	lr
 8000bca:	0049      	lsls	r1, r1, #1
 8000bcc:	eb40 0000 	adc.w	r0, r0, r0
 8000bd0:	3a01      	subs	r2, #1
 8000bd2:	bf28      	it	cs
 8000bd4:	f5b0 0f00 	cmpcs.w	r0, #8388608	; 0x800000
 8000bd8:	d2ed      	bcs.n	8000bb6 <__addsf3+0x92>
 8000bda:	fab0 fc80 	clz	ip, r0
 8000bde:	f1ac 0c08 	sub.w	ip, ip, #8
 8000be2:	ebb2 020c 	subs.w	r2, r2, ip
 8000be6:	fa00 f00c 	lsl.w	r0, r0, ip
 8000bea:	bfaa      	itet	ge
 8000bec:	eb00 50c2 	addge.w	r0, r0, r2, lsl #23
 8000bf0:	4252      	neglt	r2, r2
 8000bf2:	4318      	orrge	r0, r3
 8000bf4:	bfbc      	itt	lt
 8000bf6:	40d0      	lsrlt	r0, r2
 8000bf8:	4318      	orrlt	r0, r3
 8000bfa:	4770      	bx	lr
 8000bfc:	f092 0f00 	teq	r2, #0
 8000c00:	f481 0100 	eor.w	r1, r1, #8388608	; 0x800000
 8000c04:	bf06      	itte	eq
 8000c06:	f480 0000 	eoreq.w	r0, r0, #8388608	; 0x800000
 8000c0a:	3201      	addeq	r2, #1
 8000c0c:	3b01      	subne	r3, #1
 8000c0e:	e7b5      	b.n	8000b7c <__addsf3+0x58>
 8000c10:	ea4f 0341 	mov.w	r3, r1, lsl #1
 8000c14:	ea7f 6c22 	mvns.w	ip, r2, asr #24
 8000c18:	bf18      	it	ne
 8000c1a:	ea7f 6c23 	mvnsne.w	ip, r3, asr #24
 8000c1e:	d021      	beq.n	8000c64 <__addsf3+0x140>
 8000c20:	ea92 0f03 	teq	r2, r3
 8000c24:	d004      	beq.n	8000c30 <__addsf3+0x10c>
 8000c26:	f092 0f00 	teq	r2, #0
 8000c2a:	bf08      	it	eq
 8000c2c:	4608      	moveq	r0, r1
 8000c2e:	4770      	bx	lr
 8000c30:	ea90 0f01 	teq	r0, r1
 8000c34:	bf1c      	itt	ne
 8000c36:	2000      	movne	r0, #0
 8000c38:	4770      	bxne	lr
 8000c3a:	f012 4f7f 	tst.w	r2, #4278190080	; 0xff000000
 8000c3e:	d104      	bne.n	8000c4a <__addsf3+0x126>
 8000c40:	0040      	lsls	r0, r0, #1
 8000c42:	bf28      	it	cs
 8000c44:	f040 4000 	orrcs.w	r0, r0, #2147483648	; 0x80000000
 8000c48:	4770      	bx	lr
 8000c4a:	f112 7200 	adds.w	r2, r2, #33554432	; 0x2000000
 8000c4e:	bf3c      	itt	cc
 8000c50:	f500 0000 	addcc.w	r0, r0, #8388608	; 0x800000
 8000c54:	4770      	bxcc	lr
 8000c56:	f000 4300 	and.w	r3, r0, #2147483648	; 0x80000000
 8000c5a:	f043 40fe 	orr.w	r0, r3, #2130706432	; 0x7f000000
 8000c5e:	f440 0000 	orr.w	r0, r0, #8388608	; 0x800000
 8000c62:	4770      	bx	lr
 8000c64:	ea7f 6222 	mvns.w	r2, r2, asr #24
 8000c68:	bf16      	itet	ne
 8000c6a:	4608      	movne	r0, r1
 8000c6c:	ea7f 6323 	mvnseq.w	r3, r3, asr #24
 8000c70:	4601      	movne	r1, r0
 8000c72:	0242      	lsls	r2, r0, #9
 8000c74:	bf06      	itte	eq
 8000c76:	ea5f 2341 	movseq.w	r3, r1, lsl #9
 8000c7a:	ea90 0f01 	teqeq	r0, r1
 8000c7e:	f440 0080 	orrne.w	r0, r0, #4194304	; 0x400000
 8000c82:	4770      	bx	lr

08000c84 <__aeabi_ui2f>:
 8000c84:	f04f 0300 	mov.w	r3, #0
 8000c88:	e004      	b.n	8000c94 <__aeabi_i2f+0x8>
 8000c8a:	bf00      	nop

08000c8c <__aeabi_i2f>:
 8000c8c:	f010 4300 	ands.w	r3, r0, #2147483648	; 0x80000000
 8000c90:	bf48      	it	mi
 8000c92:	4240      	negmi	r0, r0
 8000c94:	ea5f 0c00 	movs.w	ip, r0
 8000c98:	bf08      	it	eq
 8000c9a:	4770      	bxeq	lr
 8000c9c:	f043 4396 	orr.w	r3, r3, #1258291200	; 0x4b000000
 8000ca0:	4601      	mov	r1, r0
 8000ca2:	f04f 0000 	mov.w	r0, #0
 8000ca6:	e01c      	b.n	8000ce2 <__aeabi_l2f+0x2a>

08000ca8 <__aeabi_ul2f>:
 8000ca8:	ea50 0201 	orrs.w	r2, r0, r1
 8000cac:	bf08      	it	eq
 8000cae:	4770      	bxeq	lr
 8000cb0:	f04f 0300 	mov.w	r3, #0
 8000cb4:	e00a      	b.n	8000ccc <__aeabi_l2f+0x14>
 8000cb6:	bf00      	nop

08000cb8 <__aeabi_l2f>:
 8000cb8:	ea50 0201 	orrs.w	r2, r0, r1
 8000cbc:	bf08      	it	eq
 8000cbe:	4770      	bxeq	lr
 8000cc0:	f011 4300 	ands.w	r3, r1, #2147483648	; 0x80000000
 8000cc4:	d502      	bpl.n	8000ccc <__aeabi_l2f+0x14>
 8000cc6:	4240      	negs	r0, r0
 8000cc8:	eb61 0141 	sbc.w	r1, r1, r1, lsl #1
 8000ccc:	ea5f 0c01 	movs.w	ip, r1
 8000cd0:	bf02      	ittt	eq
 8000cd2:	4684      	moveq	ip, r0
 8000cd4:	4601      	moveq	r1, r0
 8000cd6:	2000      	moveq	r0, #0
 8000cd8:	f043 43b6 	orr.w	r3, r3, #1526726656	; 0x5b000000
 8000cdc:	bf08      	it	eq
 8000cde:	f1a3 5380 	subeq.w	r3, r3, #268435456	; 0x10000000
 8000ce2:	f5a3 0300 	sub.w	r3, r3, #8388608	; 0x800000
 8000ce6:	fabc f28c 	clz	r2, ip
 8000cea:	3a08      	subs	r2, #8
 8000cec:	eba3 53c2 	sub.w	r3, r3, r2, lsl #23
 8000cf0:	db10      	blt.n	8000d14 <__aeabi_l2f+0x5c>
 8000cf2:	fa01 fc02 	lsl.w	ip, r1, r2
 8000cf6:	4463      	add	r3, ip
 8000cf8:	fa00 fc02 	lsl.w	ip, r0, r2
 8000cfc:	f1c2 0220 	rsb	r2, r2, #32
 8000d00:	f1bc 4f00 	cmp.w	ip, #2147483648	; 0x80000000
 8000d04:	fa20 f202 	lsr.w	r2, r0, r2
 8000d08:	eb43 0002 	adc.w	r0, r3, r2
 8000d0c:	bf08      	it	eq
 8000d0e:	f020 0001 	biceq.w	r0, r0, #1
 8000d12:	4770      	bx	lr
 8000d14:	f102 0220 	add.w	r2, r2, #32
 8000d18:	fa01 fc02 	lsl.w	ip, r1, r2
 8000d1c:	f1c2 0220 	rsb	r2, r2, #32
 8000d20:	ea50 004c 	orrs.w	r0, r0, ip, lsl #1
 8000d24:	fa21 f202 	lsr.w	r2, r1, r2
 8000d28:	eb43 0002 	adc.w	r0, r3, r2
 8000d2c:	bf08      	it	eq
 8000d2e:	ea20 70dc 	biceq.w	r0, r0, ip, lsr #31
 8000d32:	4770      	bx	lr

08000d34 <__aeabi_fmul>:
 8000d34:	f04f 0cff 	mov.w	ip, #255	; 0xff
 8000d38:	ea1c 52d0 	ands.w	r2, ip, r0, lsr #23
 8000d3c:	bf1e      	ittt	ne
 8000d3e:	ea1c 53d1 	andsne.w	r3, ip, r1, lsr #23
 8000d42:	ea92 0f0c 	teqne	r2, ip
 8000d46:	ea93 0f0c 	teqne	r3, ip
 8000d4a:	d06f      	beq.n	8000e2c <__aeabi_fmul+0xf8>
 8000d4c:	441a      	add	r2, r3
 8000d4e:	ea80 0c01 	eor.w	ip, r0, r1
 8000d52:	0240      	lsls	r0, r0, #9
 8000d54:	bf18      	it	ne
 8000d56:	ea5f 2141 	movsne.w	r1, r1, lsl #9
 8000d5a:	d01e      	beq.n	8000d9a <__aeabi_fmul+0x66>
 8000d5c:	f04f 6300 	mov.w	r3, #134217728	; 0x8000000
 8000d60:	ea43 1050 	orr.w	r0, r3, r0, lsr #5
 8000d64:	ea43 1151 	orr.w	r1, r3, r1, lsr #5
 8000d68:	fba0 3101 	umull	r3, r1, r0, r1
 8000d6c:	f00c 4000 	and.w	r0, ip, #2147483648	; 0x80000000
 8000d70:	f5b1 0f00 	cmp.w	r1, #8388608	; 0x800000
 8000d74:	bf3e      	ittt	cc
 8000d76:	0049      	lslcc	r1, r1, #1
 8000d78:	ea41 71d3 	orrcc.w	r1, r1, r3, lsr #31
 8000d7c:	005b      	lslcc	r3, r3, #1
 8000d7e:	ea40 0001 	orr.w	r0, r0, r1
 8000d82:	f162 027f 	sbc.w	r2, r2, #127	; 0x7f
 8000d86:	2afd      	cmp	r2, #253	; 0xfd
 8000d88:	d81d      	bhi.n	8000dc6 <__aeabi_fmul+0x92>
 8000d8a:	f1b3 4f00 	cmp.w	r3, #2147483648	; 0x80000000
 8000d8e:	eb40 50c2 	adc.w	r0, r0, r2, lsl #23
 8000d92:	bf08      	it	eq
 8000d94:	f020 0001 	biceq.w	r0, r0, #1
 8000d98:	4770      	bx	lr
 8000d9a:	f090 0f00 	teq	r0, #0
 8000d9e:	f00c 4c00 	and.w	ip, ip, #2147483648	; 0x80000000
 8000da2:	bf08      	it	eq
 8000da4:	0249      	lsleq	r1, r1, #9
 8000da6:	ea4c 2050 	orr.w	r0, ip, r0, lsr #9
 8000daa:	ea40 2051 	orr.w	r0, r0, r1, lsr #9
 8000dae:	3a7f      	subs	r2, #127	; 0x7f
 8000db0:	bfc2      	ittt	gt
 8000db2:	f1d2 03ff 	rsbsgt	r3, r2, #255	; 0xff
 8000db6:	ea40 50c2 	orrgt.w	r0, r0, r2, lsl #23
 8000dba:	4770      	bxgt	lr
 8000dbc:	f440 0000 	orr.w	r0, r0, #8388608	; 0x800000
 8000dc0:	f04f 0300 	mov.w	r3, #0
 8000dc4:	3a01      	subs	r2, #1
 8000dc6:	dc5d      	bgt.n	8000e84 <__aeabi_fmul+0x150>
 8000dc8:	f112 0f19 	cmn.w	r2, #25
 8000dcc:	bfdc      	itt	le
 8000dce:	f000 4000 	andle.w	r0, r0, #2147483648	; 0x80000000
 8000dd2:	4770      	bxle	lr
 8000dd4:	f1c2 0200 	rsb	r2, r2, #0
 8000dd8:	0041      	lsls	r1, r0, #1
 8000dda:	fa21 f102 	lsr.w	r1, r1, r2
 8000dde:	f1c2 0220 	rsb	r2, r2, #32
 8000de2:	fa00 fc02 	lsl.w	ip, r0, r2
 8000de6:	ea5f 0031 	movs.w	r0, r1, rrx
 8000dea:	f140 0000 	adc.w	r0, r0, #0
 8000dee:	ea53 034c 	orrs.w	r3, r3, ip, lsl #1
 8000df2:	bf08      	it	eq
 8000df4:	ea20 70dc 	biceq.w	r0, r0, ip, lsr #31
 8000df8:	4770      	bx	lr
 8000dfa:	f092 0f00 	teq	r2, #0
 8000dfe:	f000 4c00 	and.w	ip, r0, #2147483648	; 0x80000000
 8000e02:	bf02      	ittt	eq
 8000e04:	0040      	lsleq	r0, r0, #1
 8000e06:	f410 0f00 	tsteq.w	r0, #8388608	; 0x800000
 8000e0a:	3a01      	subeq	r2, #1
 8000e0c:	d0f9      	beq.n	8000e02 <__aeabi_fmul+0xce>
 8000e0e:	ea40 000c 	orr.w	r0, r0, ip
 8000e12:	f093 0f00 	teq	r3, #0
 8000e16:	f001 4c00 	and.w	ip, r1, #2147483648	; 0x80000000
 8000e1a:	bf02      	ittt	eq
 8000e1c:	0049      	lsleq	r1, r1, #1
 8000e1e:	f411 0f00 	tsteq.w	r1, #8388608	; 0x800000
 8000e22:	3b01      	subeq	r3, #1
 8000e24:	d0f9      	beq.n	8000e1a <__aeabi_fmul+0xe6>
 8000e26:	ea41 010c 	orr.w	r1, r1, ip
 8000e2a:	e78f      	b.n	8000d4c <__aeabi_fmul+0x18>
 8000e2c:	ea0c 53d1 	and.w	r3, ip, r1, lsr #23
 8000e30:	ea92 0f0c 	teq	r2, ip
 8000e34:	bf18      	it	ne
 8000e36:	ea93 0f0c 	teqne	r3, ip
 8000e3a:	d00a      	beq.n	8000e52 <__aeabi_fmul+0x11e>
 8000e3c:	f030 4c00 	bics.w	ip, r0, #2147483648	; 0x80000000
 8000e40:	bf18      	it	ne
 8000e42:	f031 4c00 	bicsne.w	ip, r1, #2147483648	; 0x80000000
 8000e46:	d1d8      	bne.n	8000dfa <__aeabi_fmul+0xc6>
 8000e48:	ea80 0001 	eor.w	r0, r0, r1
 8000e4c:	f000 4000 	and.w	r0, r0, #2147483648	; 0x80000000
 8000e50:	4770      	bx	lr
 8000e52:	f090 0f00 	teq	r0, #0
 8000e56:	bf17      	itett	ne
 8000e58:	f090 4f00 	teqne	r0, #2147483648	; 0x80000000
 8000e5c:	4608      	moveq	r0, r1
 8000e5e:	f091 0f00 	teqne	r1, #0
 8000e62:	f091 4f00 	teqne	r1, #2147483648	; 0x80000000
 8000e66:	d014      	beq.n	8000e92 <__aeabi_fmul+0x15e>
 8000e68:	ea92 0f0c 	teq	r2, ip
 8000e6c:	d101      	bne.n	8000e72 <__aeabi_fmul+0x13e>
 8000e6e:	0242      	lsls	r2, r0, #9
 8000e70:	d10f      	bne.n	8000e92 <__aeabi_fmul+0x15e>
 8000e72:	ea93 0f0c 	teq	r3, ip
 8000e76:	d103      	bne.n	8000e80 <__aeabi_fmul+0x14c>
 8000e78:	024b      	lsls	r3, r1, #9
 8000e7a:	bf18      	it	ne
 8000e7c:	4608      	movne	r0, r1
 8000e7e:	d108      	bne.n	8000e92 <__aeabi_fmul+0x15e>
 8000e80:	ea80 0001 	eor.w	r0, r0, r1
 8000e84:	f000 4000 	and.w	r0, r0, #2147483648	; 0x80000000
 8000e88:	f040 40fe 	orr.w	r0, r0, #2130706432	; 0x7f000000
 8000e8c:	f440 0000 	orr.w	r0, r0, #8388608	; 0x800000
 8000e90:	4770      	bx	lr
 8000e92:	f040 40fe 	orr.w	r0, r0, #2130706432	; 0x7f000000
 8000e96:	f440 0040 	orr.w	r0, r0, #12582912	; 0xc00000
 8000e9a:	4770      	bx	lr

08000e9c <__aeabi_fdiv>:
 8000e9c:	f04f 0cff 	mov.w	ip, #255	; 0xff
 8000ea0:	ea1c 52d0 	ands.w	r2, ip, r0, lsr #23
 8000ea4:	bf1e      	ittt	ne
 8000ea6:	ea1c 53d1 	andsne.w	r3, ip, r1, lsr #23
 8000eaa:	ea92 0f0c 	teqne	r2, ip
 8000eae:	ea93 0f0c 	teqne	r3, ip
 8000eb2:	d069      	beq.n	8000f88 <__aeabi_fdiv+0xec>
 8000eb4:	eba2 0203 	sub.w	r2, r2, r3
 8000eb8:	ea80 0c01 	eor.w	ip, r0, r1
 8000ebc:	0249      	lsls	r1, r1, #9
 8000ebe:	ea4f 2040 	mov.w	r0, r0, lsl #9
 8000ec2:	d037      	beq.n	8000f34 <__aeabi_fdiv+0x98>
 8000ec4:	f04f 5380 	mov.w	r3, #268435456	; 0x10000000
 8000ec8:	ea43 1111 	orr.w	r1, r3, r1, lsr #4
 8000ecc:	ea43 1310 	orr.w	r3, r3, r0, lsr #4
 8000ed0:	f00c 4000 	and.w	r0, ip, #2147483648	; 0x80000000
 8000ed4:	428b      	cmp	r3, r1
 8000ed6:	bf38      	it	cc
 8000ed8:	005b      	lslcc	r3, r3, #1
 8000eda:	f142 027d 	adc.w	r2, r2, #125	; 0x7d
 8000ede:	f44f 0c00 	mov.w	ip, #8388608	; 0x800000
 8000ee2:	428b      	cmp	r3, r1
 8000ee4:	bf24      	itt	cs
 8000ee6:	1a5b      	subcs	r3, r3, r1
 8000ee8:	ea40 000c 	orrcs.w	r0, r0, ip
 8000eec:	ebb3 0f51 	cmp.w	r3, r1, lsr #1
 8000ef0:	bf24      	itt	cs
 8000ef2:	eba3 0351 	subcs.w	r3, r3, r1, lsr #1
 8000ef6:	ea40 005c 	orrcs.w	r0, r0, ip, lsr #1
 8000efa:	ebb3 0f91 	cmp.w	r3, r1, lsr #2
 8000efe:	bf24      	itt	cs
 8000f00:	eba3 0391 	subcs.w	r3, r3, r1, lsr #2
 8000f04:	ea40 009c 	orrcs.w	r0, r0, ip, lsr #2
 8000f08:	ebb3 0fd1 	cmp.w	r3, r1, lsr #3
 8000f0c:	bf24      	itt	cs
 8000f0e:	eba3 03d1 	subcs.w	r3, r3, r1, lsr #3
 8000f12:	ea40 00dc 	orrcs.w	r0, r0, ip, lsr #3
 8000f16:	011b      	lsls	r3, r3, #4
 8000f18:	bf18      	it	ne
 8000f1a:	ea5f 1c1c 	movsne.w	ip, ip, lsr #4
 8000f1e:	d1e0      	bne.n	8000ee2 <__aeabi_fdiv+0x46>
 8000f20:	2afd      	cmp	r2, #253	; 0xfd
 8000f22:	f63f af50 	bhi.w	8000dc6 <__aeabi_fmul+0x92>
 8000f26:	428b      	cmp	r3, r1
 8000f28:	eb40 50c2 	adc.w	r0, r0, r2, lsl #23
 8000f2c:	bf08      	it	eq
 8000f2e:	f020 0001 	biceq.w	r0, r0, #1
 8000f32:	4770      	bx	lr
 8000f34:	f00c 4c00 	and.w	ip, ip, #2147483648	; 0x80000000
 8000f38:	ea4c 2050 	orr.w	r0, ip, r0, lsr #9
 8000f3c:	327f      	adds	r2, #127	; 0x7f
 8000f3e:	bfc2      	ittt	gt
 8000f40:	f1d2 03ff 	rsbsgt	r3, r2, #255	; 0xff
 8000f44:	ea40 50c2 	orrgt.w	r0, r0, r2, lsl #23
 8000f48:	4770      	bxgt	lr
 8000f4a:	f440 0000 	orr.w	r0, r0, #8388608	; 0x800000
 8000f4e:	f04f 0300 	mov.w	r3, #0
 8000f52:	3a01      	subs	r2, #1
 8000f54:	e737      	b.n	8000dc6 <__aeabi_fmul+0x92>
 8000f56:	f092 0f00 	teq	r2, #0
 8000f5a:	f000 4c00 	and.w	ip, r0, #2147483648	; 0x80000000
 8000f5e:	bf02      	ittt	eq
 8000f60:	0040      	lsleq	r0, r0, #1
 8000f62:	f410 0f00 	tsteq.w	r0, #8388608	; 0x800000
 8000f66:	3a01      	subeq	r2, #1
 8000f68:	d0f9      	beq.n	8000f5e <__aeabi_fdiv+0xc2>
 8000f6a:	ea40 000c 	orr.w	r0, r0, ip
 8000f6e:	f093 0f00 	teq	r3, #0
 8000f72:	f001 4c00 	and.w	ip, r1, #2147483648	; 0x80000000
 8000f76:	bf02      	ittt	eq
 8000f78:	0049      	lsleq	r1, r1, #1
 8000f7a:	f411 0f00 	tsteq.w	r1, #8388608	; 0x800000
 8000f7e:	3b01      	subeq	r3, #1
 8000f80:	d0f9      	beq.n	8000f76 <__aeabi_fdiv+0xda>
 8000f82:	ea41 010c 	orr.w	r1, r1, ip
 8000f86:	e795      	b.n	8000eb4 <__aeabi_fdiv+0x18>
 8000f88:	ea0c 53d1 	and.w	r3, ip, r1, lsr #23
 8000f8c:	ea92 0f0c 	teq	r2, ip
 8000f90:	d108      	bne.n	8000fa4 <__aeabi_fdiv+0x108>
 8000f92:	0242      	lsls	r2, r0, #9
 8000f94:	f47f af7d 	bne.w	8000e92 <__aeabi_fmul+0x15e>
 8000f98:	ea93 0f0c 	teq	r3, ip
 8000f9c:	f47f af70 	bne.w	8000e80 <__aeabi_fmul+0x14c>
 8000fa0:	4608      	mov	r0, r1
 8000fa2:	e776      	b.n	8000e92 <__aeabi_fmul+0x15e>
 8000fa4:	ea93 0f0c 	teq	r3, ip
 8000fa8:	d104      	bne.n	8000fb4 <__aeabi_fdiv+0x118>
 8000faa:	024b      	lsls	r3, r1, #9
 8000fac:	f43f af4c 	beq.w	8000e48 <__aeabi_fmul+0x114>
 8000fb0:	4608      	mov	r0, r1
 8000fb2:	e76e      	b.n	8000e92 <__aeabi_fmul+0x15e>
 8000fb4:	f030 4c00 	bics.w	ip, r0, #2147483648	; 0x80000000
 8000fb8:	bf18      	it	ne
 8000fba:	f031 4c00 	bicsne.w	ip, r1, #2147483648	; 0x80000000
 8000fbe:	d1ca      	bne.n	8000f56 <__aeabi_fdiv+0xba>
 8000fc0:	f030 4200 	bics.w	r2, r0, #2147483648	; 0x80000000
 8000fc4:	f47f af5c 	bne.w	8000e80 <__aeabi_fmul+0x14c>
 8000fc8:	f031 4300 	bics.w	r3, r1, #2147483648	; 0x80000000
 8000fcc:	f47f af3c 	bne.w	8000e48 <__aeabi_fmul+0x114>
 8000fd0:	e75f      	b.n	8000e92 <__aeabi_fmul+0x15e>
 8000fd2:	bf00      	nop

08000fd4 <__aeabi_f2iz>:
 8000fd4:	ea4f 0240 	mov.w	r2, r0, lsl #1
 8000fd8:	f1b2 4ffe 	cmp.w	r2, #2130706432	; 0x7f000000
 8000fdc:	d30f      	bcc.n	8000ffe <__aeabi_f2iz+0x2a>
 8000fde:	f04f 039e 	mov.w	r3, #158	; 0x9e
 8000fe2:	ebb3 6212 	subs.w	r2, r3, r2, lsr #24
 8000fe6:	d90d      	bls.n	8001004 <__aeabi_f2iz+0x30>
 8000fe8:	ea4f 2300 	mov.w	r3, r0, lsl #8
 8000fec:	f043 4300 	orr.w	r3, r3, #2147483648	; 0x80000000
 8000ff0:	f010 4f00 	tst.w	r0, #2147483648	; 0x80000000
 8000ff4:	fa23 f002 	lsr.w	r0, r3, r2
 8000ff8:	bf18      	it	ne
 8000ffa:	4240      	negne	r0, r0
 8000ffc:	4770      	bx	lr
 8000ffe:	f04f 0000 	mov.w	r0, #0
 8001002:	4770      	bx	lr
 8001004:	f112 0f61 	cmn.w	r2, #97	; 0x61
 8001008:	d101      	bne.n	800100e <__aeabi_f2iz+0x3a>
 800100a:	0242      	lsls	r2, r0, #9
 800100c:	d105      	bne.n	800101a <__aeabi_f2iz+0x46>
 800100e:	f010 4000 	ands.w	r0, r0, #2147483648	; 0x80000000
 8001012:	bf08      	it	eq
 8001014:	f06f 4000 	mvneq.w	r0, #2147483648	; 0x80000000
 8001018:	4770      	bx	lr
 800101a:	f04f 0000 	mov.w	r0, #0
 800101e:	4770      	bx	lr

08001020 <I2C_WriteBuffer>:
 8001020:	e92d 41f3 	stmdb	sp!, {r0, r1, r4, r5, r6, r7, r8, lr}
 8001024:	460d      	mov	r5, r1
 8001026:	4616      	mov	r6, r2
 8001028:	f44f 777a 	mov.w	r7, #1000	; 0x3e8
 800102c:	f8df 802c 	ldr.w	r8, [pc, #44]	; 800105c <I2C_WriteBuffer+0x3c>
 8001030:	0044      	lsls	r4, r0, #1
 8001032:	4633      	mov	r3, r6
 8001034:	462a      	mov	r2, r5
 8001036:	4621      	mov	r1, r4
 8001038:	4808      	ldr	r0, [pc, #32]	; (800105c <I2C_WriteBuffer+0x3c>)
 800103a:	9700      	str	r7, [sp, #0]
 800103c:	f001 fb1c 	bl	8002678 <HAL_I2C_Master_Transmit>
 8001040:	b940      	cbnz	r0, 8001054 <I2C_WriteBuffer+0x34>
 8001042:	4c06      	ldr	r4, [pc, #24]	; (800105c <I2C_WriteBuffer+0x3c>)
 8001044:	4620      	mov	r0, r4
 8001046:	f001 fd93 	bl	8002b70 <HAL_I2C_GetState>
 800104a:	2820      	cmp	r0, #32
 800104c:	d1fa      	bne.n	8001044 <I2C_WriteBuffer+0x24>
 800104e:	b002      	add	sp, #8
 8001050:	e8bd 81f0 	ldmia.w	sp!, {r4, r5, r6, r7, r8, pc}
 8001054:	4640      	mov	r0, r8
 8001056:	f001 fd8e 	bl	8002b76 <HAL_I2C_GetError>
 800105a:	e7ea      	b.n	8001032 <I2C_WriteBuffer+0x12>
 800105c:	20000128 	.word	0x20000128

08001060 <I2C_ReadBuffer>:
 8001060:	e92d 41ff 	stmdb	sp!, {r0, r1, r2, r3, r4, r5, r6, r7, r8, lr}
 8001064:	4604      	mov	r4, r0
 8001066:	461d      	mov	r5, r3
 8001068:	f88d 100f 	strb.w	r1, [sp, #15]
 800106c:	4616      	mov	r6, r2
 800106e:	f10d 010f 	add.w	r1, sp, #15
 8001072:	2201      	movs	r2, #1
 8001074:	f7ff ffd4 	bl	8001020 <I2C_WriteBuffer>
 8001078:	f44f 777a 	mov.w	r7, #1000	; 0x3e8
 800107c:	f8df 8030 	ldr.w	r8, [pc, #48]	; 80010b0 <I2C_ReadBuffer+0x50>
 8001080:	0064      	lsls	r4, r4, #1
 8001082:	b2ad      	uxth	r5, r5
 8001084:	462b      	mov	r3, r5
 8001086:	4632      	mov	r2, r6
 8001088:	4621      	mov	r1, r4
 800108a:	4809      	ldr	r0, [pc, #36]	; (80010b0 <I2C_ReadBuffer+0x50>)
 800108c:	9700      	str	r7, [sp, #0]
 800108e:	f001 fbcb 	bl	8002828 <HAL_I2C_Master_Receive>
 8001092:	b940      	cbnz	r0, 80010a6 <I2C_ReadBuffer+0x46>
 8001094:	4c06      	ldr	r4, [pc, #24]	; (80010b0 <I2C_ReadBuffer+0x50>)
 8001096:	4620      	mov	r0, r4
 8001098:	f001 fd6a 	bl	8002b70 <HAL_I2C_GetState>
 800109c:	2820      	cmp	r0, #32
 800109e:	d1fa      	bne.n	8001096 <I2C_ReadBuffer+0x36>
 80010a0:	b004      	add	sp, #16
 80010a2:	e8bd 81f0 	ldmia.w	sp!, {r4, r5, r6, r7, r8, pc}
 80010a6:	4640      	mov	r0, r8
 80010a8:	f001 fd65 	bl	8002b76 <HAL_I2C_GetError>
 80010ac:	e7ea      	b.n	8001084 <I2C_ReadBuffer+0x24>
 80010ae:	bf00      	nop
 80010b0:	20000128 	.word	0x20000128

080010b4 <MPU6050_Init>:
 80010b4:	b537      	push	{r0, r1, r2, r4, r5, lr}
 80010b6:	236b      	movs	r3, #107	; 0x6b
 80010b8:	2500      	movs	r5, #0
 80010ba:	4669      	mov	r1, sp
 80010bc:	2202      	movs	r2, #2
 80010be:	2068      	movs	r0, #104	; 0x68
 80010c0:	f88d 3000 	strb.w	r3, [sp]
 80010c4:	f88d 5001 	strb.w	r5, [sp, #1]
 80010c8:	f7ff ffaa 	bl	8001020 <I2C_WriteBuffer>
 80010cc:	231b      	movs	r3, #27
 80010ce:	f88d 3000 	strb.w	r3, [sp]
 80010d2:	2308      	movs	r3, #8
 80010d4:	4669      	mov	r1, sp
 80010d6:	2202      	movs	r2, #2
 80010d8:	2068      	movs	r0, #104	; 0x68
 80010da:	f88d 3001 	strb.w	r3, [sp, #1]
 80010de:	f7ff ff9f 	bl	8001020 <I2C_WriteBuffer>
 80010e2:	231c      	movs	r3, #28
 80010e4:	f88d 3000 	strb.w	r3, [sp]
 80010e8:	2310      	movs	r3, #16
 80010ea:	4669      	mov	r1, sp
 80010ec:	2202      	movs	r2, #2
 80010ee:	2068      	movs	r0, #104	; 0x68
 80010f0:	2401      	movs	r4, #1
 80010f2:	f88d 3001 	strb.w	r3, [sp, #1]
 80010f6:	f7ff ff93 	bl	8001020 <I2C_WriteBuffer>
 80010fa:	231a      	movs	r3, #26
 80010fc:	4669      	mov	r1, sp
 80010fe:	2202      	movs	r2, #2
 8001100:	2068      	movs	r0, #104	; 0x68
 8001102:	f88d 3000 	strb.w	r3, [sp]
 8001106:	f88d 4001 	strb.w	r4, [sp, #1]
 800110a:	f7ff ff89 	bl	8001020 <I2C_WriteBuffer>
 800110e:	462a      	mov	r2, r5
 8001110:	2140      	movs	r1, #64	; 0x40
 8001112:	4807      	ldr	r0, [pc, #28]	; (8001130 <MPU6050_Init+0x7c>)
 8001114:	f001 f8f8 	bl	8002308 <HAL_GPIO_WritePin>
 8001118:	2200      	movs	r2, #0
 800111a:	4b06      	ldr	r3, [pc, #24]	; (8001134 <MPU6050_Init+0x80>)
 800111c:	735c      	strb	r4, [r3, #13]
 800111e:	601a      	str	r2, [r3, #0]
 8001120:	605a      	str	r2, [r3, #4]
 8001122:	609a      	str	r2, [r3, #8]
 8001124:	611a      	str	r2, [r3, #16]
 8001126:	615a      	str	r2, [r3, #20]
 8001128:	62da      	str	r2, [r3, #44]	; 0x2c
 800112a:	631a      	str	r2, [r3, #48]	; 0x30
 800112c:	b003      	add	sp, #12
 800112e:	bd30      	pop	{r4, r5, pc}
 8001130:	40010c00 	.word	0x40010c00
 8001134:	200000bc 	.word	0x200000bc

08001138 <MPU6050_GetAllData>:
 8001138:	b51f      	push	{r0, r1, r2, r3, r4, lr}
 800113a:	4604      	mov	r4, r0
 800113c:	466a      	mov	r2, sp
 800113e:	230e      	movs	r3, #14
 8001140:	213b      	movs	r1, #59	; 0x3b
 8001142:	2068      	movs	r0, #104	; 0x68
 8001144:	f7ff ff8c 	bl	8001060 <I2C_ReadBuffer>
 8001148:	f89d 2000 	ldrb.w	r2, [sp]
 800114c:	f89d 3001 	ldrb.w	r3, [sp, #1]
 8001150:	eb03 2302 	add.w	r3, r3, r2, lsl #8
 8001154:	8023      	strh	r3, [r4, #0]
 8001156:	f89d 2002 	ldrb.w	r2, [sp, #2]
 800115a:	f89d 3003 	ldrb.w	r3, [sp, #3]
 800115e:	eb03 2302 	add.w	r3, r3, r2, lsl #8
 8001162:	8063      	strh	r3, [r4, #2]
 8001164:	f89d 2004 	ldrb.w	r2, [sp, #4]
 8001168:	f89d 3005 	ldrb.w	r3, [sp, #5]
 800116c:	eb03 2302 	add.w	r3, r3, r2, lsl #8
 8001170:	80a3      	strh	r3, [r4, #4]
 8001172:	f89d 2008 	ldrb.w	r2, [sp, #8]
 8001176:	f89d 3009 	ldrb.w	r3, [sp, #9]
 800117a:	eb03 2302 	add.w	r3, r3, r2, lsl #8
 800117e:	80e3      	strh	r3, [r4, #6]
 8001180:	f89d 200a 	ldrb.w	r2, [sp, #10]
 8001184:	f89d 300b 	ldrb.w	r3, [sp, #11]
 8001188:	eb03 2302 	add.w	r3, r3, r2, lsl #8
 800118c:	8123      	strh	r3, [r4, #8]
 800118e:	f89d 200c 	ldrb.w	r2, [sp, #12]
 8001192:	f89d 300d 	ldrb.w	r3, [sp, #13]
 8001196:	eb03 2302 	add.w	r3, r3, r2, lsl #8
 800119a:	8163      	strh	r3, [r4, #10]
 800119c:	b004      	add	sp, #16
 800119e:	bd10      	pop	{r4, pc}

080011a0 <MPU6050_Calibrate>:
 80011a0:	b57f      	push	{r0, r1, r2, r3, r4, r5, r6, lr}
 80011a2:	f44f 70c8 	mov.w	r0, #400	; 0x190
 80011a6:	f000 fdd3 	bl	8001d50 <HAL_Delay>
 80011aa:	f44f 757a 	mov.w	r5, #1000	; 0x3e8
 80011ae:	4c26      	ldr	r4, [pc, #152]	; (8001248 <MPU6050_Calibrate+0xa8>)
 80011b0:	a801      	add	r0, sp, #4
 80011b2:	f7ff ffc1 	bl	8001138 <MPU6050_GetAllData>
 80011b6:	f9bd 000a 	ldrsh.w	r0, [sp, #10]
 80011ba:	f7ff fd67 	bl	8000c8c <__aeabi_i2f>
 80011be:	6821      	ldr	r1, [r4, #0]
 80011c0:	f7ff fcb0 	bl	8000b24 <__addsf3>
 80011c4:	6020      	str	r0, [r4, #0]
 80011c6:	f9bd 000c 	ldrsh.w	r0, [sp, #12]
 80011ca:	f7ff fd5f 	bl	8000c8c <__aeabi_i2f>
 80011ce:	6861      	ldr	r1, [r4, #4]
 80011d0:	f7ff fca8 	bl	8000b24 <__addsf3>
 80011d4:	6060      	str	r0, [r4, #4]
 80011d6:	f9bd 000e 	ldrsh.w	r0, [sp, #14]
 80011da:	f7ff fd57 	bl	8000c8c <__aeabi_i2f>
 80011de:	68a1      	ldr	r1, [r4, #8]
 80011e0:	f7ff fca0 	bl	8000b24 <__addsf3>
 80011e4:	60a0      	str	r0, [r4, #8]
 80011e6:	2003      	movs	r0, #3
 80011e8:	f000 fdb2 	bl	8001d50 <HAL_Delay>
 80011ec:	3d01      	subs	r5, #1
 80011ee:	d1df      	bne.n	80011b0 <MPU6050_Calibrate+0x10>
 80011f0:	6820      	ldr	r0, [r4, #0]
 80011f2:	4916      	ldr	r1, [pc, #88]	; (800124c <MPU6050_Calibrate+0xac>)
 80011f4:	f7ff fe52 	bl	8000e9c <__aeabi_fdiv>
 80011f8:	4914      	ldr	r1, [pc, #80]	; (800124c <MPU6050_Calibrate+0xac>)
 80011fa:	6020      	str	r0, [r4, #0]
 80011fc:	6860      	ldr	r0, [r4, #4]
 80011fe:	f7ff fe4d 	bl	8000e9c <__aeabi_fdiv>
 8001202:	4912      	ldr	r1, [pc, #72]	; (800124c <MPU6050_Calibrate+0xac>)
 8001204:	6060      	str	r0, [r4, #4]
 8001206:	68a0      	ldr	r0, [r4, #8]
 8001208:	f7ff fe48 	bl	8000e9c <__aeabi_fdiv>
 800120c:	2601      	movs	r6, #1
 800120e:	2110      	movs	r1, #16
 8001210:	4632      	mov	r2, r6
 8001212:	60a0      	str	r0, [r4, #8]
 8001214:	480e      	ldr	r0, [pc, #56]	; (8001250 <MPU6050_Calibrate+0xb0>)
 8001216:	7326      	strb	r6, [r4, #12]
 8001218:	f001 f876 	bl	8002308 <HAL_GPIO_WritePin>
 800121c:	f44f 7016 	mov.w	r0, #600	; 0x258
 8001220:	f000 fd96 	bl	8001d50 <HAL_Delay>
 8001224:	462a      	mov	r2, r5
 8001226:	2110      	movs	r1, #16
 8001228:	4809      	ldr	r0, [pc, #36]	; (8001250 <MPU6050_Calibrate+0xb0>)
 800122a:	f001 f86d 	bl	8002308 <HAL_GPIO_WritePin>
 800122e:	f44f 7016 	mov.w	r0, #600	; 0x258
 8001232:	f000 fd8d 	bl	8001d50 <HAL_Delay>
 8001236:	4632      	mov	r2, r6
 8001238:	2110      	movs	r1, #16
 800123a:	4805      	ldr	r0, [pc, #20]	; (8001250 <MPU6050_Calibrate+0xb0>)
 800123c:	f001 f864 	bl	8002308 <HAL_GPIO_WritePin>
 8001240:	7366      	strb	r6, [r4, #13]
 8001242:	63a5      	str	r5, [r4, #56]	; 0x38
 8001244:	b004      	add	sp, #16
 8001246:	bd70      	pop	{r4, r5, r6, pc}
 8001248:	200000bc 	.word	0x200000bc
 800124c:	447a0000 	.word	0x447a0000
 8001250:	40010800 	.word	0x40010800

08001254 <SendDataSP>:
 8001254:	e92d 41f0 	stmdb	sp!, {r4, r5, r6, r7, r8, lr}
 8001258:	4d1a      	ldr	r5, [pc, #104]	; (80012c4 <SendDataSP+0x70>)
 800125a:	4c1b      	ldr	r4, [pc, #108]	; (80012c8 <SendDataSP+0x74>)
 800125c:	6929      	ldr	r1, [r5, #16]
 800125e:	2200      	movs	r2, #0
 8001260:	4620      	mov	r0, r4
 8001262:	f101 4100 	add.w	r1, r1, #2147483648	; 0x80000000
 8001266:	f000 f903 	bl	8001470 <FloatoSTR>
 800126a:	272c      	movs	r7, #44	; 0x2c
 800126c:	2620      	movs	r6, #32
 800126e:	6969      	ldr	r1, [r5, #20]
 8001270:	1823      	adds	r3, r4, r0
 8001272:	5427      	strb	r7, [r4, r0]
 8001274:	3002      	adds	r0, #2
 8001276:	705e      	strb	r6, [r3, #1]
 8001278:	b2c2      	uxtb	r2, r0
 800127a:	f101 4100 	add.w	r1, r1, #2147483648	; 0x80000000
 800127e:	4620      	mov	r0, r4
 8001280:	f000 f8f6 	bl	8001470 <FloatoSTR>
 8001284:	1823      	adds	r3, r4, r0
 8001286:	5427      	strb	r7, [r4, r0]
 8001288:	3002      	adds	r0, #2
 800128a:	6ae9      	ldr	r1, [r5, #44]	; 0x2c
 800128c:	705e      	strb	r6, [r3, #1]
 800128e:	b2c2      	uxtb	r2, r0
 8001290:	4620      	mov	r0, r4
 8001292:	f000 f8ed 	bl	8001470 <FloatoSTR>
 8001296:	1823      	adds	r3, r4, r0
 8001298:	5427      	strb	r7, [r4, r0]
 800129a:	3002      	adds	r0, #2
 800129c:	6b29      	ldr	r1, [r5, #48]	; 0x30
 800129e:	705e      	strb	r6, [r3, #1]
 80012a0:	b2c2      	uxtb	r2, r0
 80012a2:	4620      	mov	r0, r4
 80012a4:	f000 f8e4 	bl	8001470 <FloatoSTR>
 80012a8:	230d      	movs	r3, #13
 80012aa:	220a      	movs	r2, #10
 80012ac:	5423      	strb	r3, [r4, r0]
 80012ae:	1823      	adds	r3, r4, r0
 80012b0:	705a      	strb	r2, [r3, #1]
 80012b2:	3002      	adds	r0, #2
 80012b4:	4621      	mov	r1, r4
 80012b6:	e8bd 41f0 	ldmia.w	sp!, {r4, r5, r6, r7, r8, lr}
 80012ba:	b282      	uxth	r2, r0
 80012bc:	2331      	movs	r3, #49	; 0x31
 80012be:	4803      	ldr	r0, [pc, #12]	; (80012cc <SendDataSP+0x78>)
 80012c0:	f002 bd4a 	b.w	8003d58 <HAL_UART_Transmit>
 80012c4:	200000bc 	.word	0x200000bc
 80012c8:	20000098 	.word	0x20000098
 80012cc:	2000020c 	.word	0x2000020c

080012d0 <HAL_SYSTICK_Callback>:
 80012d0:	e92d 47f0 	stmdb	sp!, {r4, r5, r6, r7, r8, r9, sl, lr}
 80012d4:	4d60      	ldr	r5, [pc, #384]	; (8001458 <HAL_SYSTICK_Callback+0x188>)
 80012d6:	7b2b      	ldrb	r3, [r5, #12]
 80012d8:	2b00      	cmp	r3, #0
 80012da:	f000 80b0 	beq.w	800143e <HAL_SYSTICK_Callback+0x16e>
 80012de:	f8df a17c 	ldr.w	sl, [pc, #380]	; 800145c <HAL_SYSTICK_Callback+0x18c>
 80012e2:	f8da 3000 	ldr.w	r3, [sl]
 80012e6:	3301      	adds	r3, #1
 80012e8:	2b13      	cmp	r3, #19
 80012ea:	f8ca 3000 	str.w	r3, [sl]
 80012ee:	f340 80a6 	ble.w	800143e <HAL_SYSTICK_Callback+0x16e>
 80012f2:	4c5b      	ldr	r4, [pc, #364]	; (8001460 <HAL_SYSTICK_Callback+0x190>)
 80012f4:	2201      	movs	r2, #1
 80012f6:	f44f 7180 	mov.w	r1, #256	; 0x100
 80012fa:	485a      	ldr	r0, [pc, #360]	; (8001464 <HAL_SYSTICK_Callback+0x194>)
 80012fc:	f001 f804 	bl	8002308 <HAL_GPIO_WritePin>
 8001300:	4620      	mov	r0, r4
 8001302:	f7ff ff19 	bl	8001138 <MPU6050_GetAllData>
 8001306:	f9b4 0008 	ldrsh.w	r0, [r4, #8]
 800130a:	f7ff fcbf 	bl	8000c8c <__aeabi_i2f>
 800130e:	6869      	ldr	r1, [r5, #4]
 8001310:	f7ff fc06 	bl	8000b20 <__aeabi_fsub>
 8001314:	4954      	ldr	r1, [pc, #336]	; (8001468 <HAL_SYSTICK_Callback+0x198>)
 8001316:	f7ff fdc1 	bl	8000e9c <__aeabi_fdiv>
 800131a:	6929      	ldr	r1, [r5, #16]
 800131c:	f7ff fc02 	bl	8000b24 <__addsf3>
 8001320:	4606      	mov	r6, r0
 8001322:	f9b4 0006 	ldrsh.w	r0, [r4, #6]
 8001326:	f7ff fcb1 	bl	8000c8c <__aeabi_i2f>
 800132a:	6829      	ldr	r1, [r5, #0]
 800132c:	f7ff fbf8 	bl	8000b20 <__aeabi_fsub>
 8001330:	494d      	ldr	r1, [pc, #308]	; (8001468 <HAL_SYSTICK_Callback+0x198>)
 8001332:	f7ff fdb3 	bl	8000e9c <__aeabi_fdiv>
 8001336:	6969      	ldr	r1, [r5, #20]
 8001338:	f7ff fbf4 	bl	8000b24 <__addsf3>
 800133c:	4607      	mov	r7, r0
 800133e:	f9b4 000a 	ldrsh.w	r0, [r4, #10]
 8001342:	f7ff fca3 	bl	8000c8c <__aeabi_i2f>
 8001346:	68a9      	ldr	r1, [r5, #8]
 8001348:	f7ff fbea 	bl	8000b20 <__aeabi_fsub>
 800134c:	4946      	ldr	r1, [pc, #280]	; (8001468 <HAL_SYSTICK_Callback+0x198>)
 800134e:	f7ff fda5 	bl	8000e9c <__aeabi_fdiv>
 8001352:	69a9      	ldr	r1, [r5, #24]
 8001354:	f7ff fbe6 	bl	8000b24 <__addsf3>
 8001358:	f7ff f85e 	bl	8000418 <__aeabi_f2d>
 800135c:	a33a      	add	r3, pc, #232	; (adr r3, 8001448 <HAL_SYSTICK_Callback+0x178>)
 800135e:	e9d3 2300 	ldrd	r2, r3, [r3]
 8001362:	4680      	mov	r8, r0
 8001364:	4689      	mov	r9, r1
 8001366:	f7ff fb3f 	bl	80009e8 <__aeabi_dcmpgt>
 800136a:	b308      	cbz	r0, 80013b0 <HAL_SYSTICK_Callback+0xe0>
 800136c:	a338      	add	r3, pc, #224	; (adr r3, 8001450 <HAL_SYSTICK_Callback+0x180>)
 800136e:	e9d3 2300 	ldrd	r2, r3, [r3]
 8001372:	4640      	mov	r0, r8
 8001374:	4649      	mov	r1, r9
 8001376:	f7ff f8a7 	bl	80004c8 <__aeabi_dmul>
 800137a:	2200      	movs	r2, #0
 800137c:	4b3b      	ldr	r3, [pc, #236]	; (800146c <HAL_SYSTICK_Callback+0x19c>)
 800137e:	f7ff f9cd 	bl	800071c <__aeabi_ddiv>
 8001382:	f003 fb4b 	bl	8004a1c <sin>
 8001386:	f7ff fb77 	bl	8000a78 <__aeabi_d2f>
 800138a:	4601      	mov	r1, r0
 800138c:	4680      	mov	r8, r0
 800138e:	4630      	mov	r0, r6
 8001390:	f7ff fcd0 	bl	8000d34 <__aeabi_fmul>
 8001394:	4601      	mov	r1, r0
 8001396:	4638      	mov	r0, r7
 8001398:	f7ff fbc4 	bl	8000b24 <__addsf3>
 800139c:	4601      	mov	r1, r0
 800139e:	4607      	mov	r7, r0
 80013a0:	4640      	mov	r0, r8
 80013a2:	f7ff fcc7 	bl	8000d34 <__aeabi_fmul>
 80013a6:	4601      	mov	r1, r0
 80013a8:	4630      	mov	r0, r6
 80013aa:	f7ff fbb9 	bl	8000b20 <__aeabi_fsub>
 80013ae:	4606      	mov	r6, r0
 80013b0:	f9b4 0002 	ldrsh.w	r0, [r4, #2]
 80013b4:	f7ff f81e 	bl	80003f4 <__aeabi_i2d>
 80013b8:	f9b4 3004 	ldrsh.w	r3, [r4, #4]
 80013bc:	4680      	mov	r8, r0
 80013be:	435b      	muls	r3, r3
 80013c0:	f9b4 0000 	ldrsh.w	r0, [r4]
 80013c4:	4689      	mov	r9, r1
 80013c6:	fb00 3000 	mla	r0, r0, r0, r3
 80013ca:	f7ff f813 	bl	80003f4 <__aeabi_i2d>
 80013ce:	f003 fb6d 	bl	8004aac <sqrt>
 80013d2:	4602      	mov	r2, r0
 80013d4:	460b      	mov	r3, r1
 80013d6:	4640      	mov	r0, r8
 80013d8:	4649      	mov	r1, r9
 80013da:	f003 fb65 	bl	8004aa8 <atan2>
 80013de:	f9b4 0000 	ldrsh.w	r0, [r4]
 80013e2:	f7ff f807 	bl	80003f4 <__aeabi_i2d>
 80013e6:	f9b4 3004 	ldrsh.w	r3, [r4, #4]
 80013ea:	4680      	mov	r8, r0
 80013ec:	435b      	muls	r3, r3
 80013ee:	f9b4 0002 	ldrsh.w	r0, [r4, #2]
 80013f2:	4689      	mov	r9, r1
 80013f4:	fb00 3000 	mla	r0, r0, r0, r3
 80013f8:	f7fe fffc 	bl	80003f4 <__aeabi_i2d>
 80013fc:	f003 fb56 	bl	8004aac <sqrt>
 8001400:	460b      	mov	r3, r1
 8001402:	4602      	mov	r2, r0
 8001404:	4649      	mov	r1, r9
 8001406:	4640      	mov	r0, r8
 8001408:	f003 fb4e 	bl	8004aa8 <atan2>
 800140c:	2200      	movs	r2, #0
 800140e:	f44f 7180 	mov.w	r1, #256	; 0x100
 8001412:	4814      	ldr	r0, [pc, #80]	; (8001464 <HAL_SYSTICK_Callback+0x194>)
 8001414:	616f      	str	r7, [r5, #20]
 8001416:	612e      	str	r6, [r5, #16]
 8001418:	f000 ff76 	bl	8002308 <HAL_GPIO_WritePin>
 800141c:	2201      	movs	r2, #1
 800141e:	f44f 7180 	mov.w	r1, #256	; 0x100
 8001422:	4810      	ldr	r0, [pc, #64]	; (8001464 <HAL_SYSTICK_Callback+0x194>)
 8001424:	f000 ff70 	bl	8002308 <HAL_GPIO_WritePin>
 8001428:	f7ff ff14 	bl	8001254 <SendDataSP>
 800142c:	2200      	movs	r2, #0
 800142e:	f44f 7180 	mov.w	r1, #256	; 0x100
 8001432:	480c      	ldr	r0, [pc, #48]	; (8001464 <HAL_SYSTICK_Callback+0x194>)
 8001434:	f000 ff68 	bl	8002308 <HAL_GPIO_WritePin>
 8001438:	2300      	movs	r3, #0
 800143a:	f8ca 3000 	str.w	r3, [sl]
 800143e:	e8bd 87f0 	ldmia.w	sp!, {r4, r5, r6, r7, r8, r9, sl, pc}
 8001442:	bf00      	nop
 8001444:	f3af 8000 	nop.w
 8001448:	47ae147b 	.word	0x47ae147b
 800144c:	3f847ae1 	.word	0x3f847ae1
 8001450:	c083126f 	.word	0xc083126f
 8001454:	400921ca 	.word	0x400921ca
 8001458:	200000bc 	.word	0x200000bc
 800145c:	200000b8 	.word	0x200000b8
 8001460:	2000008c 	.word	0x2000008c
 8001464:	40010c00 	.word	0x40010c00
 8001468:	454cb000 	.word	0x454cb000
 800146c:	40668000 	.word	0x40668000

08001470 <FloatoSTR>:
 8001470:	e92d 43f0 	stmdb	sp!, {r4, r5, r6, r7, r8, r9, lr}
 8001474:	4689      	mov	r9, r1
 8001476:	b089      	sub	sp, #36	; 0x24
 8001478:	4921      	ldr	r1, [pc, #132]	; (8001500 <FloatoSTR+0x90>)
 800147a:	4607      	mov	r7, r0
 800147c:	4648      	mov	r0, r9
 800147e:	4616      	mov	r6, r2
 8001480:	f7ff fc58 	bl	8000d34 <__aeabi_fmul>
 8001484:	f7ff fda6 	bl	8000fd4 <__aeabi_f2iz>
 8001488:	491e      	ldr	r1, [pc, #120]	; (8001504 <FloatoSTR+0x94>)
 800148a:	b202      	sxth	r2, r0
 800148c:	4668      	mov	r0, sp
 800148e:	f002 fe4b 	bl	8004128 <siprintf>
 8001492:	4605      	mov	r5, r0
 8001494:	b2c4      	uxtb	r4, r0
 8001496:	4648      	mov	r0, r9
 8001498:	f7ff fd9c 	bl	8000fd4 <__aeabi_f2iz>
 800149c:	f105 031f 	add.w	r3, r5, #31
 80014a0:	f105 0220 	add.w	r2, r5, #32
 80014a4:	446b      	add	r3, sp
 80014a6:	eb0d 0502 	add.w	r5, sp, r2
 80014aa:	f813 2c20 	ldrb.w	r2, [r3, #-32]
 80014ae:	b1b8      	cbz	r0, 80014e0 <FloatoSTR+0x70>
 80014b0:	f805 2c20 	strb.w	r2, [r5, #-32]
 80014b4:	222e      	movs	r2, #46	; 0x2e
 80014b6:	f803 2c20 	strb.w	r2, [r3, #-32]
 80014ba:	3401      	adds	r4, #1
 80014bc:	b2e4      	uxtb	r4, r4
 80014be:	f104 0320 	add.w	r3, r4, #32
 80014c2:	eb0d 0203 	add.w	r2, sp, r3
 80014c6:	2300      	movs	r3, #0
 80014c8:	f802 3c20 	strb.w	r3, [r2, #-32]
 80014cc:	466a      	mov	r2, sp
 80014ce:	18f1      	adds	r1, r6, r3
 80014d0:	429c      	cmp	r4, r3
 80014d2:	b289      	uxth	r1, r1
 80014d4:	dc0f      	bgt.n	80014f6 <FloatoSTR+0x86>
 80014d6:	1930      	adds	r0, r6, r4
 80014d8:	b2c0      	uxtb	r0, r0
 80014da:	b009      	add	sp, #36	; 0x24
 80014dc:	e8bd 83f0 	ldmia.w	sp!, {r4, r5, r6, r7, r8, r9, pc}
 80014e0:	f805 2c1f 	strb.w	r2, [r5, #-31]
 80014e4:	222e      	movs	r2, #46	; 0x2e
 80014e6:	f805 2c20 	strb.w	r2, [r5, #-32]
 80014ea:	2230      	movs	r2, #48	; 0x30
 80014ec:	3401      	adds	r4, #1
 80014ee:	f803 2c20 	strb.w	r2, [r3, #-32]
 80014f2:	b2e4      	uxtb	r4, r4
 80014f4:	e7e1      	b.n	80014ba <FloatoSTR+0x4a>
 80014f6:	f812 0b01 	ldrb.w	r0, [r2], #1
 80014fa:	3301      	adds	r3, #1
 80014fc:	5478      	strb	r0, [r7, r1]
 80014fe:	e7e6      	b.n	80014ce <FloatoSTR+0x5e>
 8001500:	41200000 	.word	0x41200000
 8001504:	08006098 	.word	0x08006098

08001508 <HAL_TIM_IC_CaptureCallback>:
 8001508:	b510      	push	{r4, lr}
 800150a:	4604      	mov	r4, r0
 800150c:	2201      	movs	r2, #1
 800150e:	2110      	movs	r1, #16
 8001510:	4804      	ldr	r0, [pc, #16]	; (8001524 <HAL_TIM_IC_CaptureCallback+0x1c>)
 8001512:	f000 fef9 	bl	8002308 <HAL_GPIO_WritePin>
 8001516:	2104      	movs	r1, #4
 8001518:	4620      	mov	r0, r4
 800151a:	f001 feb1 	bl	8003280 <HAL_TIM_ReadCapturedValue>
 800151e:	4b02      	ldr	r3, [pc, #8]	; (8001528 <HAL_TIM_IC_CaptureCallback+0x20>)
 8001520:	8698      	strh	r0, [r3, #52]	; 0x34
 8001522:	bd10      	pop	{r4, pc}
 8001524:	40010800 	.word	0x40010800
 8001528:	200000bc 	.word	0x200000bc

0800152c <SystemClock_Config>:
 800152c:	b530      	push	{r4, r5, lr}
 800152e:	b095      	sub	sp, #84	; 0x54
 8001530:	2220      	movs	r2, #32
 8001532:	2100      	movs	r1, #0
 8001534:	a80b      	add	r0, sp, #44	; 0x2c
 8001536:	f002 fdef 	bl	8004118 <memset>
 800153a:	2214      	movs	r2, #20
 800153c:	2510      	movs	r5, #16
 800153e:	2100      	movs	r1, #0
 8001540:	eb0d 0002 	add.w	r0, sp, r2
 8001544:	f002 fde8 	bl	8004118 <memset>
 8001548:	462a      	mov	r2, r5
 800154a:	2100      	movs	r1, #0
 800154c:	a801      	add	r0, sp, #4
 800154e:	f002 fde3 	bl	8004118 <memset>
 8001552:	2301      	movs	r3, #1
 8001554:	2402      	movs	r4, #2
 8001556:	e9cd 350e 	strd	r3, r5, [sp, #56]	; 0x38
 800155a:	f44f 1360 	mov.w	r3, #3670016	; 0x380000
 800155e:	a80a      	add	r0, sp, #40	; 0x28
 8001560:	940a      	str	r4, [sp, #40]	; 0x28
 8001562:	9411      	str	r4, [sp, #68]	; 0x44
 8001564:	9313      	str	r3, [sp, #76]	; 0x4c
 8001566:	f001 fb09 	bl	8002b7c <HAL_RCC_OscConfig>
 800156a:	b108      	cbz	r0, 8001570 <SystemClock_Config+0x44>
 800156c:	b672      	cpsid	i
 800156e:	e7fe      	b.n	800156e <SystemClock_Config+0x42>
 8001570:	230f      	movs	r3, #15
 8001572:	e9cd 3405 	strd	r3, r4, [sp, #20]
 8001576:	f44f 6380 	mov.w	r3, #1024	; 0x400
 800157a:	9007      	str	r0, [sp, #28]
 800157c:	e9cd 3008 	strd	r3, r0, [sp, #32]
 8001580:	4621      	mov	r1, r4
 8001582:	a805      	add	r0, sp, #20
 8001584:	f001 fcd0 	bl	8002f28 <HAL_RCC_ClockConfig>
 8001588:	b108      	cbz	r0, 800158e <SystemClock_Config+0x62>
 800158a:	b672      	cpsid	i
 800158c:	e7fe      	b.n	800158c <SystemClock_Config+0x60>
 800158e:	f44f 4340 	mov.w	r3, #49152	; 0xc000
 8001592:	a801      	add	r0, sp, #4
 8001594:	9401      	str	r4, [sp, #4]
 8001596:	9303      	str	r3, [sp, #12]
 8001598:	f001 fd82 	bl	80030a0 <HAL_RCCEx_PeriphCLKConfig>
 800159c:	b108      	cbz	r0, 80015a2 <SystemClock_Config+0x76>
 800159e:	b672      	cpsid	i
 80015a0:	e7fe      	b.n	80015a0 <SystemClock_Config+0x74>
 80015a2:	b015      	add	sp, #84	; 0x54
 80015a4:	bd30      	pop	{r4, r5, pc}
	...

080015a8 <main>:
 80015a8:	b5f0      	push	{r4, r5, r6, r7, lr}
 80015aa:	2610      	movs	r6, #16
 80015ac:	b095      	sub	sp, #84	; 0x54
 80015ae:	f000 fbab 	bl	8001d08 <HAL_Init>
 80015b2:	f7ff ffbb 	bl	800152c <SystemClock_Config>
 80015b6:	4632      	mov	r2, r6
 80015b8:	2100      	movs	r1, #0
 80015ba:	a80d      	add	r0, sp, #52	; 0x34
 80015bc:	f002 fdac 	bl	8004118 <memset>
 80015c0:	4b99      	ldr	r3, [pc, #612]	; (8001828 <main+0x280>)
 80015c2:	4631      	mov	r1, r6
 80015c4:	699a      	ldr	r2, [r3, #24]
 80015c6:	4899      	ldr	r0, [pc, #612]	; (800182c <main+0x284>)
 80015c8:	f042 0204 	orr.w	r2, r2, #4
 80015cc:	619a      	str	r2, [r3, #24]
 80015ce:	699a      	ldr	r2, [r3, #24]
 80015d0:	2400      	movs	r4, #0
 80015d2:	f002 0204 	and.w	r2, r2, #4
 80015d6:	9201      	str	r2, [sp, #4]
 80015d8:	9a01      	ldr	r2, [sp, #4]
 80015da:	699a      	ldr	r2, [r3, #24]
 80015dc:	2501      	movs	r5, #1
 80015de:	f042 0208 	orr.w	r2, r2, #8
 80015e2:	619a      	str	r2, [r3, #24]
 80015e4:	699b      	ldr	r3, [r3, #24]
 80015e6:	2200      	movs	r2, #0
 80015e8:	f003 0308 	and.w	r3, r3, #8
 80015ec:	9302      	str	r3, [sp, #8]
 80015ee:	9b02      	ldr	r3, [sp, #8]
 80015f0:	f000 fe8a 	bl	8002308 <HAL_GPIO_WritePin>
 80015f4:	2200      	movs	r2, #0
 80015f6:	f44f 7180 	mov.w	r1, #256	; 0x100
 80015fa:	488d      	ldr	r0, [pc, #564]	; (8001830 <main+0x288>)
 80015fc:	f000 fe84 	bl	8002308 <HAL_GPIO_WritePin>
 8001600:	2303      	movs	r3, #3
 8001602:	f44f 5780 	mov.w	r7, #4096	; 0x1000
 8001606:	4889      	ldr	r0, [pc, #548]	; (800182c <main+0x284>)
 8001608:	a90d      	add	r1, sp, #52	; 0x34
 800160a:	e9cd 540e 	strd	r5, r4, [sp, #56]	; 0x38
 800160e:	9310      	str	r3, [sp, #64]	; 0x40
 8001610:	960d      	str	r6, [sp, #52]	; 0x34
 8001612:	f000 fd9f 	bl	8002154 <HAL_GPIO_Init>
 8001616:	4b87      	ldr	r3, [pc, #540]	; (8001834 <main+0x28c>)
 8001618:	4885      	ldr	r0, [pc, #532]	; (8001830 <main+0x288>)
 800161a:	a90d      	add	r1, sp, #52	; 0x34
 800161c:	e9cd 730d 	strd	r7, r3, [sp, #52]	; 0x34
 8001620:	940f      	str	r4, [sp, #60]	; 0x3c
 8001622:	f000 fd97 	bl	8002154 <HAL_GPIO_Init>
 8001626:	f44f 7380 	mov.w	r3, #256	; 0x100
 800162a:	e9cd 350d 	strd	r3, r5, [sp, #52]	; 0x34
 800162e:	2302      	movs	r3, #2
 8001630:	487f      	ldr	r0, [pc, #508]	; (8001830 <main+0x288>)
 8001632:	a90d      	add	r1, sp, #52	; 0x34
 8001634:	9310      	str	r3, [sp, #64]	; 0x40
 8001636:	4d80      	ldr	r5, [pc, #512]	; (8001838 <main+0x290>)
 8001638:	940f      	str	r4, [sp, #60]	; 0x3c
 800163a:	f000 fd8b 	bl	8002154 <HAL_GPIO_Init>
 800163e:	487f      	ldr	r0, [pc, #508]	; (800183c <main+0x294>)
 8001640:	4b7f      	ldr	r3, [pc, #508]	; (8001840 <main+0x298>)
 8001642:	e9c0 4402 	strd	r4, r4, [r0, #8]
 8001646:	e9c0 5300 	strd	r5, r3, [r0]
 800164a:	f44f 4380 	mov.w	r3, #16384	; 0x4000
 800164e:	e9c0 4406 	strd	r4, r4, [r0, #24]
 8001652:	e9c0 3404 	strd	r3, r4, [r0, #16]
 8001656:	6204      	str	r4, [r0, #32]
 8001658:	f000 ff66 	bl	8002528 <HAL_I2C_Init>
 800165c:	4603      	mov	r3, r0
 800165e:	b108      	cbz	r0, 8001664 <main+0xbc>
 8001660:	b672      	cpsid	i
 8001662:	e7fe      	b.n	8001662 <main+0xba>
 8001664:	f44f 327a 	mov.w	r2, #256000	; 0x3e800
 8001668:	4876      	ldr	r0, [pc, #472]	; (8001844 <main+0x29c>)
 800166a:	4c77      	ldr	r4, [pc, #476]	; (8001848 <main+0x2a0>)
 800166c:	e9c0 3302 	strd	r3, r3, [r0, #8]
 8001670:	e9c0 4200 	strd	r4, r2, [r0]
 8001674:	220c      	movs	r2, #12
 8001676:	6103      	str	r3, [r0, #16]
 8001678:	e9c0 2305 	strd	r2, r3, [r0, #20]
 800167c:	61c3      	str	r3, [r0, #28]
 800167e:	f002 fb3d 	bl	8003cfc <HAL_UART_Init>
 8001682:	4605      	mov	r5, r0
 8001684:	b108      	cbz	r0, 800168a <main+0xe2>
 8001686:	b672      	cpsid	i
 8001688:	e7fe      	b.n	8001688 <main+0xe0>
 800168a:	4601      	mov	r1, r0
 800168c:	4632      	mov	r2, r6
 800168e:	a809      	add	r0, sp, #36	; 0x24
 8001690:	f002 fd42 	bl	8004118 <memset>
 8001694:	4629      	mov	r1, r5
 8001696:	221c      	movs	r2, #28
 8001698:	a80d      	add	r0, sp, #52	; 0x34
 800169a:	e9cd 5505 	strd	r5, r5, [sp, #20]
 800169e:	f002 fd3b 	bl	8004118 <memset>
 80016a2:	f240 237f 	movw	r3, #639	; 0x27f
 80016a6:	4c69      	ldr	r4, [pc, #420]	; (800184c <main+0x2a4>)
 80016a8:	4969      	ldr	r1, [pc, #420]	; (8001850 <main+0x2a8>)
 80016aa:	4620      	mov	r0, r4
 80016ac:	e9c4 1300 	strd	r1, r3, [r4]
 80016b0:	f240 73cf 	movw	r3, #1999	; 0x7cf
 80016b4:	60a5      	str	r5, [r4, #8]
 80016b6:	e9c4 3503 	strd	r3, r5, [r4, #12]
 80016ba:	61a5      	str	r5, [r4, #24]
 80016bc:	f001 fed4 	bl	8003468 <HAL_TIM_Base_Init>
 80016c0:	b108      	cbz	r0, 80016c6 <main+0x11e>
 80016c2:	b672      	cpsid	i
 80016c4:	e7fe      	b.n	80016c4 <main+0x11c>
 80016c6:	4620      	mov	r0, r4
 80016c8:	a909      	add	r1, sp, #36	; 0x24
 80016ca:	9709      	str	r7, [sp, #36]	; 0x24
 80016cc:	f002 f890 	bl	80037f0 <HAL_TIM_ConfigClockSource>
 80016d0:	b108      	cbz	r0, 80016d6 <main+0x12e>
 80016d2:	b672      	cpsid	i
 80016d4:	e7fe      	b.n	80016d4 <main+0x12c>
 80016d6:	4620      	mov	r0, r4
 80016d8:	f001 fef2 	bl	80034c0 <HAL_TIM_PWM_Init>
 80016dc:	b108      	cbz	r0, 80016e2 <main+0x13a>
 80016de:	b672      	cpsid	i
 80016e0:	e7fe      	b.n	80016e0 <main+0x138>
 80016e2:	e9cd 0005 	strd	r0, r0, [sp, #20]
 80016e6:	a905      	add	r1, sp, #20
 80016e8:	4620      	mov	r0, r4
 80016ea:	f002 fa5f 	bl	8003bac <HAL_TIMEx_MasterConfigSynchronization>
 80016ee:	4602      	mov	r2, r0
 80016f0:	b108      	cbz	r0, 80016f6 <main+0x14e>
 80016f2:	b672      	cpsid	i
 80016f4:	e7fe      	b.n	80016f4 <main+0x14c>
 80016f6:	2360      	movs	r3, #96	; 0x60
 80016f8:	900f      	str	r0, [sp, #60]	; 0x3c
 80016fa:	e9cd 300d 	strd	r3, r0, [sp, #52]	; 0x34
 80016fe:	9011      	str	r0, [sp, #68]	; 0x44
 8001700:	a90d      	add	r1, sp, #52	; 0x34
 8001702:	4620      	mov	r0, r4
 8001704:	f001 ff60 	bl	80035c8 <HAL_TIM_PWM_ConfigChannel>
 8001708:	b108      	cbz	r0, 800170e <main+0x166>
 800170a:	b672      	cpsid	i
 800170c:	e7fe      	b.n	800170c <main+0x164>
 800170e:	2204      	movs	r2, #4
 8001710:	4620      	mov	r0, r4
 8001712:	a90d      	add	r1, sp, #52	; 0x34
 8001714:	f001 ff58 	bl	80035c8 <HAL_TIM_PWM_ConfigChannel>
 8001718:	4605      	mov	r5, r0
 800171a:	b108      	cbz	r0, 8001720 <main+0x178>
 800171c:	b672      	cpsid	i
 800171e:	e7fe      	b.n	800171e <main+0x176>
 8001720:	4620      	mov	r0, r4
 8001722:	f000 fa01 	bl	8001b28 <HAL_TIM_MspPostInit>
 8001726:	4632      	mov	r2, r6
 8001728:	4629      	mov	r1, r5
 800172a:	a805      	add	r0, sp, #20
 800172c:	f002 fcf4 	bl	8004118 <memset>
 8001730:	2214      	movs	r2, #20
 8001732:	4629      	mov	r1, r5
 8001734:	a80d      	add	r0, sp, #52	; 0x34
 8001736:	f002 fcef 	bl	8004118 <memset>
 800173a:	4632      	mov	r2, r6
 800173c:	4629      	mov	r1, r5
 800173e:	a809      	add	r0, sp, #36	; 0x24
 8001740:	f002 fcea 	bl	8004118 <memset>
 8001744:	233f      	movs	r3, #63	; 0x3f
 8001746:	f04f 4280 	mov.w	r2, #1073741824	; 0x40000000
 800174a:	4c42      	ldr	r4, [pc, #264]	; (8001854 <main+0x2ac>)
 800174c:	e9cd 5503 	strd	r5, r5, [sp, #12]
 8001750:	e9c4 2300 	strd	r2, r3, [r4]
 8001754:	f64f 73ff 	movw	r3, #65535	; 0xffff
 8001758:	e9c4 3503 	strd	r3, r5, [r4, #12]
 800175c:	2380      	movs	r3, #128	; 0x80
 800175e:	4620      	mov	r0, r4
 8001760:	60a5      	str	r5, [r4, #8]
 8001762:	61a3      	str	r3, [r4, #24]
 8001764:	f001 fe80 	bl	8003468 <HAL_TIM_Base_Init>
 8001768:	b108      	cbz	r0, 800176e <main+0x1c6>
 800176a:	b672      	cpsid	i
 800176c:	e7fe      	b.n	800176c <main+0x1c4>
 800176e:	4620      	mov	r0, r4
 8001770:	a905      	add	r1, sp, #20
 8001772:	9705      	str	r7, [sp, #20]
 8001774:	f002 f83c 	bl	80037f0 <HAL_TIM_ConfigClockSource>
 8001778:	b108      	cbz	r0, 800177e <main+0x1d6>
 800177a:	b672      	cpsid	i
 800177c:	e7fe      	b.n	800177c <main+0x1d4>
 800177e:	4835      	ldr	r0, [pc, #212]	; (8001854 <main+0x2ac>)
 8001780:	f001 feca 	bl	8003518 <HAL_TIM_IC_Init>
 8001784:	b108      	cbz	r0, 800178a <main+0x1e2>
 8001786:	b672      	cpsid	i
 8001788:	e7fe      	b.n	8001788 <main+0x1e0>
 800178a:	2350      	movs	r3, #80	; 0x50
 800178c:	2504      	movs	r5, #4
 800178e:	e9cd 000f 	strd	r0, r0, [sp, #60]	; 0x3c
 8001792:	9011      	str	r0, [sp, #68]	; 0x44
 8001794:	a90d      	add	r1, sp, #52	; 0x34
 8001796:	482f      	ldr	r0, [pc, #188]	; (8001854 <main+0x2ac>)
 8001798:	e9cd 530d 	strd	r5, r3, [sp, #52]	; 0x34
 800179c:	f002 f90e 	bl	80039bc <HAL_TIM_SlaveConfigSynchro>
 80017a0:	4602      	mov	r2, r0
 80017a2:	b108      	cbz	r0, 80017a8 <main+0x200>
 80017a4:	b672      	cpsid	i
 80017a6:	e7fe      	b.n	80017a6 <main+0x1fe>
 80017a8:	2601      	movs	r6, #1
 80017aa:	9009      	str	r0, [sp, #36]	; 0x24
 80017ac:	e9cd 600a 	strd	r6, r0, [sp, #40]	; 0x28
 80017b0:	900c      	str	r0, [sp, #48]	; 0x30
 80017b2:	a909      	add	r1, sp, #36	; 0x24
 80017b4:	4827      	ldr	r0, [pc, #156]	; (8001854 <main+0x2ac>)
 80017b6:	f001 ff8d 	bl	80036d4 <HAL_TIM_IC_ConfigChannel>
 80017ba:	b108      	cbz	r0, 80017c0 <main+0x218>
 80017bc:	b672      	cpsid	i
 80017be:	e7fe      	b.n	80017be <main+0x216>
 80017c0:	2302      	movs	r3, #2
 80017c2:	462a      	mov	r2, r5
 80017c4:	4823      	ldr	r0, [pc, #140]	; (8001854 <main+0x2ac>)
 80017c6:	a909      	add	r1, sp, #36	; 0x24
 80017c8:	e9cd 3309 	strd	r3, r3, [sp, #36]	; 0x24
 80017cc:	f001 ff82 	bl	80036d4 <HAL_TIM_IC_ConfigChannel>
 80017d0:	b108      	cbz	r0, 80017d6 <main+0x22e>
 80017d2:	b672      	cpsid	i
 80017d4:	e7fe      	b.n	80017d4 <main+0x22c>
 80017d6:	e9cd 0003 	strd	r0, r0, [sp, #12]
 80017da:	a903      	add	r1, sp, #12
 80017dc:	481d      	ldr	r0, [pc, #116]	; (8001854 <main+0x2ac>)
 80017de:	f002 f9e5 	bl	8003bac <HAL_TIMEx_MasterConfigSynchronization>
 80017e2:	b108      	cbz	r0, 80017e8 <main+0x240>
 80017e4:	b672      	cpsid	i
 80017e6:	e7fe      	b.n	80017e6 <main+0x23e>
 80017e8:	4c1b      	ldr	r4, [pc, #108]	; (8001858 <main+0x2b0>)
 80017ea:	4b1c      	ldr	r3, [pc, #112]	; (800185c <main+0x2b4>)
 80017ec:	e9cd 000d 	strd	r0, r0, [sp, #52]	; 0x34
 80017f0:	6023      	str	r3, [r4, #0]
 80017f2:	f44f 2360 	mov.w	r3, #917504	; 0xe0000
 80017f6:	900f      	str	r0, [sp, #60]	; 0x3c
 80017f8:	60a0      	str	r0, [r4, #8]
 80017fa:	7320      	strb	r0, [r4, #12]
 80017fc:	7520      	strb	r0, [r4, #20]
 80017fe:	6060      	str	r0, [r4, #4]
 8001800:	4620      	mov	r0, r4
 8001802:	61e3      	str	r3, [r4, #28]
 8001804:	6126      	str	r6, [r4, #16]
 8001806:	f000 fb59 	bl	8001ebc <HAL_ADC_Init>
 800180a:	b108      	cbz	r0, 8001810 <main+0x268>
 800180c:	b672      	cpsid	i
 800180e:	e7fe      	b.n	800180e <main+0x266>
 8001810:	2308      	movs	r3, #8
 8001812:	900f      	str	r0, [sp, #60]	; 0x3c
 8001814:	a90d      	add	r1, sp, #52	; 0x34
 8001816:	4620      	mov	r0, r4
 8001818:	e9cd 360d 	strd	r3, r6, [sp, #52]	; 0x34
 800181c:	f000 faaa 	bl	8001d74 <HAL_ADC_ConfigChannel>
 8001820:	4601      	mov	r1, r0
 8001822:	b1e8      	cbz	r0, 8001860 <main+0x2b8>
 8001824:	b672      	cpsid	i
 8001826:	e7fe      	b.n	8001826 <main+0x27e>
 8001828:	40021000 	.word	0x40021000
 800182c:	40010800 	.word	0x40010800
 8001830:	40010c00 	.word	0x40010c00
 8001834:	10110000 	.word	0x10110000
 8001838:	40005800 	.word	0x40005800
 800183c:	20000128 	.word	0x20000128
 8001840:	00061a80 	.word	0x00061a80
 8001844:	2000020c 	.word	0x2000020c
 8001848:	40004400 	.word	0x40004400
 800184c:	200001c4 	.word	0x200001c4
 8001850:	40000800 	.word	0x40000800
 8001854:	2000017c 	.word	0x2000017c
 8001858:	200000f8 	.word	0x200000f8
 800185c:	40012400 	.word	0x40012400
 8001860:	4829      	ldr	r0, [pc, #164]	; (8001908 <main+0x360>)
 8001862:	f002 f935 	bl	8003ad0 <HAL_TIM_IC_Start_IT>
 8001866:	4629      	mov	r1, r5
 8001868:	4827      	ldr	r0, [pc, #156]	; (8001908 <main+0x360>)
 800186a:	f002 f931 	bl	8003ad0 <HAL_TIM_IC_Start_IT>
 800186e:	4827      	ldr	r0, [pc, #156]	; (800190c <main+0x364>)
 8001870:	f000 f870 	bl	8001954 <MyServo_Init>
 8001874:	f44f 70fa 	mov.w	r0, #500	; 0x1f4
 8001878:	f000 fa6a 	bl	8001d50 <HAL_Delay>
 800187c:	f7ff fc1a 	bl	80010b4 <MPU6050_Init>
 8001880:	f44f 70fa 	mov.w	r0, #500	; 0x1f4
 8001884:	f000 fa64 	bl	8001d50 <HAL_Delay>
 8001888:	f7ff fc8a 	bl	80011a0 <MPU6050_Calibrate>
 800188c:	4f20      	ldr	r7, [pc, #128]	; (8001910 <main+0x368>)
 800188e:	4c21      	ldr	r4, [pc, #132]	; (8001914 <main+0x36c>)
 8001890:	4e21      	ldr	r6, [pc, #132]	; (8001918 <main+0x370>)
 8001892:	2110      	movs	r1, #16
 8001894:	4638      	mov	r0, r7
 8001896:	f000 fd3c 	bl	8002312 <HAL_GPIO_TogglePin>
 800189a:	6965      	ldr	r5, [r4, #20]
 800189c:	f9b4 0034 	ldrsh.w	r0, [r4, #52]	; 0x34
 80018a0:	f000 f874 	bl	800198c <MS_PwmtoAngle>
 80018a4:	f7ff f9f2 	bl	8000c8c <__aeabi_i2f>
 80018a8:	4629      	mov	r1, r5
 80018aa:	f7ff f93b 	bl	8000b24 <__addsf3>
 80018ae:	6921      	ldr	r1, [r4, #16]
 80018b0:	f7ff f936 	bl	8000b20 <__aeabi_fsub>
 80018b4:	6965      	ldr	r5, [r4, #20]
 80018b6:	6320      	str	r0, [r4, #48]	; 0x30
 80018b8:	f9b4 0034 	ldrsh.w	r0, [r4, #52]	; 0x34
 80018bc:	f000 f866 	bl	800198c <MS_PwmtoAngle>
 80018c0:	f7ff f9e4 	bl	8000c8c <__aeabi_i2f>
 80018c4:	4629      	mov	r1, r5
 80018c6:	f7ff f92d 	bl	8000b24 <__addsf3>
 80018ca:	6921      	ldr	r1, [r4, #16]
 80018cc:	f100 4000 	add.w	r0, r0, #2147483648	; 0x80000000
 80018d0:	f7ff f926 	bl	8000b20 <__aeabi_fsub>
 80018d4:	4631      	mov	r1, r6
 80018d6:	4605      	mov	r5, r0
 80018d8:	62e0      	str	r0, [r4, #44]	; 0x2c
 80018da:	6b20      	ldr	r0, [r4, #48]	; 0x30
 80018dc:	f7ff fa2a 	bl	8000d34 <__aeabi_fmul>
 80018e0:	f7ff fb78 	bl	8000fd4 <__aeabi_f2iz>
 80018e4:	2101      	movs	r1, #1
 80018e6:	b200      	sxth	r0, r0
 80018e8:	f000 f818 	bl	800191c <MyServo_Rotate>
 80018ec:	4631      	mov	r1, r6
 80018ee:	4628      	mov	r0, r5
 80018f0:	f7ff fa20 	bl	8000d34 <__aeabi_fmul>
 80018f4:	f7ff fb6e 	bl	8000fd4 <__aeabi_f2iz>
 80018f8:	2102      	movs	r1, #2
 80018fa:	b200      	sxth	r0, r0
 80018fc:	f000 f80e 	bl	800191c <MyServo_Rotate>
 8001900:	200a      	movs	r0, #10
 8001902:	f000 fa25 	bl	8001d50 <HAL_Delay>
 8001906:	e7c4      	b.n	8001892 <main+0x2ea>
 8001908:	2000017c 	.word	0x2000017c
 800190c:	200001c4 	.word	0x200001c4
 8001910:	40010800 	.word	0x40010800
 8001914:	200000bc 	.word	0x200000bc
 8001918:	3f99999a 	.word	0x3f99999a

0800191c <MyServo_Rotate>:
 800191c:	f06f 031d 	mvn.w	r3, #29
 8001920:	4298      	cmp	r0, r3
 8001922:	bfb8      	it	lt
 8001924:	4618      	movlt	r0, r3
 8001926:	281e      	cmp	r0, #30
 8001928:	bfa8      	it	ge
 800192a:	201e      	movge	r0, #30
 800192c:	2901      	cmp	r1, #1
 800192e:	d106      	bne.n	800193e <MyServo_Rotate+0x22>
 8001930:	4b07      	ldr	r3, [pc, #28]	; (8001950 <MyServo_Rotate+0x34>)
 8001932:	3096      	adds	r0, #150	; 0x96
 8001934:	681b      	ldr	r3, [r3, #0]
 8001936:	b200      	sxth	r0, r0
 8001938:	681b      	ldr	r3, [r3, #0]
 800193a:	6358      	str	r0, [r3, #52]	; 0x34
 800193c:	4770      	bx	lr
 800193e:	2902      	cmp	r1, #2
 8001940:	d105      	bne.n	800194e <MyServo_Rotate+0x32>
 8001942:	4b03      	ldr	r3, [pc, #12]	; (8001950 <MyServo_Rotate+0x34>)
 8001944:	3096      	adds	r0, #150	; 0x96
 8001946:	681b      	ldr	r3, [r3, #0]
 8001948:	b200      	sxth	r0, r0
 800194a:	681b      	ldr	r3, [r3, #0]
 800194c:	6398      	str	r0, [r3, #56]	; 0x38
 800194e:	4770      	bx	lr
 8001950:	20000250 	.word	0x20000250

08001954 <MyServo_Init>:
 8001954:	b538      	push	{r3, r4, r5, lr}
 8001956:	2596      	movs	r5, #150	; 0x96
 8001958:	4604      	mov	r4, r0
 800195a:	4b0b      	ldr	r3, [pc, #44]	; (8001988 <MyServo_Init+0x34>)
 800195c:	2100      	movs	r1, #0
 800195e:	6018      	str	r0, [r3, #0]
 8001960:	6803      	ldr	r3, [r0, #0]
 8001962:	635d      	str	r5, [r3, #52]	; 0x34
 8001964:	f002 f8b2 	bl	8003acc <HAL_TIM_PWM_Start>
 8001968:	6823      	ldr	r3, [r4, #0]
 800196a:	2104      	movs	r1, #4
 800196c:	639d      	str	r5, [r3, #56]	; 0x38
 800196e:	4620      	mov	r0, r4
 8001970:	f002 f8ac 	bl	8003acc <HAL_TIM_PWM_Start>
 8001974:	2101      	movs	r1, #1
 8001976:	2000      	movs	r0, #0
 8001978:	f7ff ffd0 	bl	800191c <MyServo_Rotate>
 800197c:	e8bd 4038 	ldmia.w	sp!, {r3, r4, r5, lr}
 8001980:	2102      	movs	r1, #2
 8001982:	2000      	movs	r0, #0
 8001984:	f7ff bfca 	b.w	800191c <MyServo_Rotate>
 8001988:	20000250 	.word	0x20000250

0800198c <MS_PwmtoAngle>:
 800198c:	230a      	movs	r3, #10
 800198e:	fb90 f0f3 	sdiv	r0, r0, r3
 8001992:	3896      	subs	r0, #150	; 0x96
 8001994:	b200      	sxth	r0, r0
 8001996:	4770      	bx	lr

08001998 <HAL_MspInit>:
 8001998:	4b0e      	ldr	r3, [pc, #56]	; (80019d4 <HAL_MspInit+0x3c>)
 800199a:	b082      	sub	sp, #8
 800199c:	699a      	ldr	r2, [r3, #24]
 800199e:	f042 0201 	orr.w	r2, r2, #1
 80019a2:	619a      	str	r2, [r3, #24]
 80019a4:	699a      	ldr	r2, [r3, #24]
 80019a6:	f002 0201 	and.w	r2, r2, #1
 80019aa:	9200      	str	r2, [sp, #0]
 80019ac:	9a00      	ldr	r2, [sp, #0]
 80019ae:	69da      	ldr	r2, [r3, #28]
 80019b0:	f042 5280 	orr.w	r2, r2, #268435456	; 0x10000000
 80019b4:	61da      	str	r2, [r3, #28]
 80019b6:	69db      	ldr	r3, [r3, #28]
 80019b8:	4a07      	ldr	r2, [pc, #28]	; (80019d8 <HAL_MspInit+0x40>)
 80019ba:	f003 5380 	and.w	r3, r3, #268435456	; 0x10000000
 80019be:	9301      	str	r3, [sp, #4]
 80019c0:	9b01      	ldr	r3, [sp, #4]
 80019c2:	6853      	ldr	r3, [r2, #4]
 80019c4:	f023 63e0 	bic.w	r3, r3, #117440512	; 0x7000000
 80019c8:	f043 7300 	orr.w	r3, r3, #33554432	; 0x2000000
 80019cc:	6053      	str	r3, [r2, #4]
 80019ce:	b002      	add	sp, #8
 80019d0:	4770      	bx	lr
 80019d2:	bf00      	nop
 80019d4:	40021000 	.word	0x40021000
 80019d8:	40010000 	.word	0x40010000

080019dc <HAL_ADC_MspInit>:
 80019dc:	b510      	push	{r4, lr}
 80019de:	4604      	mov	r4, r0
 80019e0:	b086      	sub	sp, #24
 80019e2:	2210      	movs	r2, #16
 80019e4:	2100      	movs	r1, #0
 80019e6:	a802      	add	r0, sp, #8
 80019e8:	f002 fb96 	bl	8004118 <memset>
 80019ec:	6822      	ldr	r2, [r4, #0]
 80019ee:	4b10      	ldr	r3, [pc, #64]	; (8001a30 <HAL_ADC_MspInit+0x54>)
 80019f0:	429a      	cmp	r2, r3
 80019f2:	d11b      	bne.n	8001a2c <HAL_ADC_MspInit+0x50>
 80019f4:	f503 436c 	add.w	r3, r3, #60416	; 0xec00
 80019f8:	699a      	ldr	r2, [r3, #24]
 80019fa:	480e      	ldr	r0, [pc, #56]	; (8001a34 <HAL_ADC_MspInit+0x58>)
 80019fc:	f442 7200 	orr.w	r2, r2, #512	; 0x200
 8001a00:	619a      	str	r2, [r3, #24]
 8001a02:	699a      	ldr	r2, [r3, #24]
 8001a04:	a902      	add	r1, sp, #8
 8001a06:	f402 7200 	and.w	r2, r2, #512	; 0x200
 8001a0a:	9200      	str	r2, [sp, #0]
 8001a0c:	9a00      	ldr	r2, [sp, #0]
 8001a0e:	699a      	ldr	r2, [r3, #24]
 8001a10:	f042 0208 	orr.w	r2, r2, #8
 8001a14:	619a      	str	r2, [r3, #24]
 8001a16:	699b      	ldr	r3, [r3, #24]
 8001a18:	2201      	movs	r2, #1
 8001a1a:	f003 0308 	and.w	r3, r3, #8
 8001a1e:	9301      	str	r3, [sp, #4]
 8001a20:	9b01      	ldr	r3, [sp, #4]
 8001a22:	2303      	movs	r3, #3
 8001a24:	e9cd 2302 	strd	r2, r3, [sp, #8]
 8001a28:	f000 fb94 	bl	8002154 <HAL_GPIO_Init>
 8001a2c:	b006      	add	sp, #24
 8001a2e:	bd10      	pop	{r4, pc}
 8001a30:	40012400 	.word	0x40012400
 8001a34:	40010c00 	.word	0x40010c00

08001a38 <HAL_I2C_MspInit>:
 8001a38:	b510      	push	{r4, lr}
 8001a3a:	4604      	mov	r4, r0
 8001a3c:	b086      	sub	sp, #24
 8001a3e:	2210      	movs	r2, #16
 8001a40:	2100      	movs	r1, #0
 8001a42:	a802      	add	r0, sp, #8
 8001a44:	f002 fb68 	bl	8004118 <memset>
 8001a48:	6822      	ldr	r2, [r4, #0]
 8001a4a:	4b11      	ldr	r3, [pc, #68]	; (8001a90 <HAL_I2C_MspInit+0x58>)
 8001a4c:	429a      	cmp	r2, r3
 8001a4e:	d11d      	bne.n	8001a8c <HAL_I2C_MspInit+0x54>
 8001a50:	4c10      	ldr	r4, [pc, #64]	; (8001a94 <HAL_I2C_MspInit+0x5c>)
 8001a52:	f44f 6240 	mov.w	r2, #3072	; 0xc00
 8001a56:	69a3      	ldr	r3, [r4, #24]
 8001a58:	480f      	ldr	r0, [pc, #60]	; (8001a98 <HAL_I2C_MspInit+0x60>)
 8001a5a:	f043 0308 	orr.w	r3, r3, #8
 8001a5e:	61a3      	str	r3, [r4, #24]
 8001a60:	69a3      	ldr	r3, [r4, #24]
 8001a62:	a902      	add	r1, sp, #8
 8001a64:	f003 0308 	and.w	r3, r3, #8
 8001a68:	9300      	str	r3, [sp, #0]
 8001a6a:	9b00      	ldr	r3, [sp, #0]
 8001a6c:	2312      	movs	r3, #18
 8001a6e:	e9cd 2302 	strd	r2, r3, [sp, #8]
 8001a72:	2303      	movs	r3, #3
 8001a74:	9305      	str	r3, [sp, #20]
 8001a76:	f000 fb6d 	bl	8002154 <HAL_GPIO_Init>
 8001a7a:	69e3      	ldr	r3, [r4, #28]
 8001a7c:	f443 0380 	orr.w	r3, r3, #4194304	; 0x400000
 8001a80:	61e3      	str	r3, [r4, #28]
 8001a82:	69e3      	ldr	r3, [r4, #28]
 8001a84:	f403 0380 	and.w	r3, r3, #4194304	; 0x400000
 8001a88:	9301      	str	r3, [sp, #4]
 8001a8a:	9b01      	ldr	r3, [sp, #4]
 8001a8c:	b006      	add	sp, #24
 8001a8e:	bd10      	pop	{r4, pc}
 8001a90:	40005800 	.word	0x40005800
 8001a94:	40021000 	.word	0x40021000
 8001a98:	40010c00 	.word	0x40010c00

08001a9c <HAL_TIM_Base_MspInit>:
 8001a9c:	2210      	movs	r2, #16
 8001a9e:	b510      	push	{r4, lr}
 8001aa0:	4604      	mov	r4, r0
 8001aa2:	b088      	sub	sp, #32
 8001aa4:	2100      	movs	r1, #0
 8001aa6:	eb0d 0002 	add.w	r0, sp, r2
 8001aaa:	f002 fb35 	bl	8004118 <memset>
 8001aae:	6823      	ldr	r3, [r4, #0]
 8001ab0:	f1b3 4f80 	cmp.w	r3, #1073741824	; 0x40000000
 8001ab4:	d123      	bne.n	8001afe <HAL_TIM_Base_MspInit+0x62>
 8001ab6:	f503 3304 	add.w	r3, r3, #135168	; 0x21000
 8001aba:	69da      	ldr	r2, [r3, #28]
 8001abc:	4817      	ldr	r0, [pc, #92]	; (8001b1c <HAL_TIM_Base_MspInit+0x80>)
 8001abe:	f042 0201 	orr.w	r2, r2, #1
 8001ac2:	61da      	str	r2, [r3, #28]
 8001ac4:	69da      	ldr	r2, [r3, #28]
 8001ac6:	a904      	add	r1, sp, #16
 8001ac8:	f002 0201 	and.w	r2, r2, #1
 8001acc:	9201      	str	r2, [sp, #4]
 8001ace:	9a01      	ldr	r2, [sp, #4]
 8001ad0:	699a      	ldr	r2, [r3, #24]
 8001ad2:	f042 0204 	orr.w	r2, r2, #4
 8001ad6:	619a      	str	r2, [r3, #24]
 8001ad8:	699b      	ldr	r3, [r3, #24]
 8001ada:	f003 0304 	and.w	r3, r3, #4
 8001ade:	9302      	str	r3, [sp, #8]
 8001ae0:	9b02      	ldr	r3, [sp, #8]
 8001ae2:	2301      	movs	r3, #1
 8001ae4:	9304      	str	r3, [sp, #16]
 8001ae6:	f000 fb35 	bl	8002154 <HAL_GPIO_Init>
 8001aea:	2200      	movs	r2, #0
 8001aec:	201c      	movs	r0, #28
 8001aee:	4611      	mov	r1, r2
 8001af0:	f000 fa74 	bl	8001fdc <HAL_NVIC_SetPriority>
 8001af4:	201c      	movs	r0, #28
 8001af6:	f000 faa3 	bl	8002040 <HAL_NVIC_EnableIRQ>
 8001afa:	b008      	add	sp, #32
 8001afc:	bd10      	pop	{r4, pc}
 8001afe:	4a08      	ldr	r2, [pc, #32]	; (8001b20 <HAL_TIM_Base_MspInit+0x84>)
 8001b00:	4293      	cmp	r3, r2
 8001b02:	d1fa      	bne.n	8001afa <HAL_TIM_Base_MspInit+0x5e>
 8001b04:	4b07      	ldr	r3, [pc, #28]	; (8001b24 <HAL_TIM_Base_MspInit+0x88>)
 8001b06:	69da      	ldr	r2, [r3, #28]
 8001b08:	f042 0204 	orr.w	r2, r2, #4
 8001b0c:	61da      	str	r2, [r3, #28]
 8001b0e:	69db      	ldr	r3, [r3, #28]
 8001b10:	f003 0304 	and.w	r3, r3, #4
 8001b14:	9303      	str	r3, [sp, #12]
 8001b16:	9b03      	ldr	r3, [sp, #12]
 8001b18:	e7ef      	b.n	8001afa <HAL_TIM_Base_MspInit+0x5e>
 8001b1a:	bf00      	nop
 8001b1c:	40010800 	.word	0x40010800
 8001b20:	40000800 	.word	0x40000800
 8001b24:	40021000 	.word	0x40021000

08001b28 <HAL_TIM_MspPostInit>:
 8001b28:	b510      	push	{r4, lr}
 8001b2a:	4604      	mov	r4, r0
 8001b2c:	b086      	sub	sp, #24
 8001b2e:	2210      	movs	r2, #16
 8001b30:	2100      	movs	r1, #0
 8001b32:	a802      	add	r0, sp, #8
 8001b34:	f002 faf0 	bl	8004118 <memset>
 8001b38:	6822      	ldr	r2, [r4, #0]
 8001b3a:	4b0c      	ldr	r3, [pc, #48]	; (8001b6c <HAL_TIM_MspPostInit+0x44>)
 8001b3c:	429a      	cmp	r2, r3
 8001b3e:	d113      	bne.n	8001b68 <HAL_TIM_MspPostInit+0x40>
 8001b40:	f503 3302 	add.w	r3, r3, #133120	; 0x20800
 8001b44:	699a      	ldr	r2, [r3, #24]
 8001b46:	480a      	ldr	r0, [pc, #40]	; (8001b70 <HAL_TIM_MspPostInit+0x48>)
 8001b48:	f042 0208 	orr.w	r2, r2, #8
 8001b4c:	619a      	str	r2, [r3, #24]
 8001b4e:	699b      	ldr	r3, [r3, #24]
 8001b50:	22c0      	movs	r2, #192	; 0xc0
 8001b52:	f003 0308 	and.w	r3, r3, #8
 8001b56:	9301      	str	r3, [sp, #4]
 8001b58:	9b01      	ldr	r3, [sp, #4]
 8001b5a:	2302      	movs	r3, #2
 8001b5c:	a902      	add	r1, sp, #8
 8001b5e:	e9cd 2302 	strd	r2, r3, [sp, #8]
 8001b62:	9305      	str	r3, [sp, #20]
 8001b64:	f000 faf6 	bl	8002154 <HAL_GPIO_Init>
 8001b68:	b006      	add	sp, #24
 8001b6a:	bd10      	pop	{r4, pc}
 8001b6c:	40000800 	.word	0x40000800
 8001b70:	40010c00 	.word	0x40010c00

08001b74 <HAL_UART_MspInit>:
 8001b74:	b510      	push	{r4, lr}
 8001b76:	4604      	mov	r4, r0
 8001b78:	b086      	sub	sp, #24
 8001b7a:	2210      	movs	r2, #16
 8001b7c:	2100      	movs	r1, #0
 8001b7e:	a802      	add	r0, sp, #8
 8001b80:	f002 faca 	bl	8004118 <memset>
 8001b84:	6822      	ldr	r2, [r4, #0]
 8001b86:	4b1a      	ldr	r3, [pc, #104]	; (8001bf0 <HAL_UART_MspInit+0x7c>)
 8001b88:	429a      	cmp	r2, r3
 8001b8a:	d12f      	bne.n	8001bec <HAL_UART_MspInit+0x78>
 8001b8c:	f503 33e6 	add.w	r3, r3, #117760	; 0x1cc00
 8001b90:	69da      	ldr	r2, [r3, #28]
 8001b92:	4818      	ldr	r0, [pc, #96]	; (8001bf4 <HAL_UART_MspInit+0x80>)
 8001b94:	f442 3200 	orr.w	r2, r2, #131072	; 0x20000
 8001b98:	61da      	str	r2, [r3, #28]
 8001b9a:	69da      	ldr	r2, [r3, #28]
 8001b9c:	a902      	add	r1, sp, #8
 8001b9e:	f402 3200 	and.w	r2, r2, #131072	; 0x20000
 8001ba2:	9200      	str	r2, [sp, #0]
 8001ba4:	9a00      	ldr	r2, [sp, #0]
 8001ba6:	699a      	ldr	r2, [r3, #24]
 8001ba8:	2400      	movs	r4, #0
 8001baa:	f042 0204 	orr.w	r2, r2, #4
 8001bae:	619a      	str	r2, [r3, #24]
 8001bb0:	699b      	ldr	r3, [r3, #24]
 8001bb2:	2204      	movs	r2, #4
 8001bb4:	f003 0304 	and.w	r3, r3, #4
 8001bb8:	9301      	str	r3, [sp, #4]
 8001bba:	9b01      	ldr	r3, [sp, #4]
 8001bbc:	2302      	movs	r3, #2
 8001bbe:	e9cd 2302 	strd	r2, r3, [sp, #8]
 8001bc2:	2303      	movs	r3, #3
 8001bc4:	9305      	str	r3, [sp, #20]
 8001bc6:	f000 fac5 	bl	8002154 <HAL_GPIO_Init>
 8001bca:	2308      	movs	r3, #8
 8001bcc:	4809      	ldr	r0, [pc, #36]	; (8001bf4 <HAL_UART_MspInit+0x80>)
 8001bce:	eb0d 0103 	add.w	r1, sp, r3
 8001bd2:	e9cd 3402 	strd	r3, r4, [sp, #8]
 8001bd6:	9404      	str	r4, [sp, #16]
 8001bd8:	f000 fabc 	bl	8002154 <HAL_GPIO_Init>
 8001bdc:	2026      	movs	r0, #38	; 0x26
 8001bde:	4622      	mov	r2, r4
 8001be0:	4621      	mov	r1, r4
 8001be2:	f000 f9fb 	bl	8001fdc <HAL_NVIC_SetPriority>
 8001be6:	2026      	movs	r0, #38	; 0x26
 8001be8:	f000 fa2a 	bl	8002040 <HAL_NVIC_EnableIRQ>
 8001bec:	b006      	add	sp, #24
 8001bee:	bd10      	pop	{r4, pc}
 8001bf0:	40004400 	.word	0x40004400
 8001bf4:	40010800 	.word	0x40010800

08001bf8 <NMI_Handler>:
 8001bf8:	e7fe      	b.n	8001bf8 <NMI_Handler>

08001bfa <HardFault_Handler>:
 8001bfa:	e7fe      	b.n	8001bfa <HardFault_Handler>

08001bfc <MemManage_Handler>:
 8001bfc:	e7fe      	b.n	8001bfc <MemManage_Handler>

08001bfe <BusFault_Handler>:
 8001bfe:	e7fe      	b.n	8001bfe <BusFault_Handler>

08001c00 <UsageFault_Handler>:
 8001c00:	e7fe      	b.n	8001c00 <UsageFault_Handler>

08001c02 <SVC_Handler>:
 8001c02:	4770      	bx	lr

08001c04 <DebugMon_Handler>:
 8001c04:	4770      	bx	lr

08001c06 <PendSV_Handler>:
 8001c06:	4770      	bx	lr

08001c08 <SysTick_Handler>:
 8001c08:	b508      	push	{r3, lr}
 8001c0a:	f000 f88f 	bl	8001d2c <HAL_IncTick>
 8001c0e:	e8bd 4008 	ldmia.w	sp!, {r3, lr}
 8001c12:	f000 ba37 	b.w	8002084 <HAL_SYSTICK_IRQHandler>
	...

08001c18 <TIM2_IRQHandler>:
 8001c18:	4801      	ldr	r0, [pc, #4]	; (8001c20 <TIM2_IRQHandler+0x8>)
 8001c1a:	f001 bb4b 	b.w	80032b4 <HAL_TIM_IRQHandler>
 8001c1e:	bf00      	nop
 8001c20:	2000017c 	.word	0x2000017c

08001c24 <USART2_IRQHandler>:
 8001c24:	4801      	ldr	r0, [pc, #4]	; (8001c2c <USART2_IRQHandler+0x8>)
 8001c26:	f002 b945 	b.w	8003eb4 <HAL_UART_IRQHandler>
 8001c2a:	bf00      	nop
 8001c2c:	2000020c 	.word	0x2000020c

08001c30 <_sbrk>:
 8001c30:	4a0b      	ldr	r2, [pc, #44]	; (8001c60 <_sbrk+0x30>)
 8001c32:	4603      	mov	r3, r0
 8001c34:	6811      	ldr	r1, [r2, #0]
 8001c36:	b510      	push	{r4, lr}
 8001c38:	b909      	cbnz	r1, 8001c3e <_sbrk+0xe>
 8001c3a:	490a      	ldr	r1, [pc, #40]	; (8001c64 <_sbrk+0x34>)
 8001c3c:	6011      	str	r1, [r2, #0]
 8001c3e:	6810      	ldr	r0, [r2, #0]
 8001c40:	4909      	ldr	r1, [pc, #36]	; (8001c68 <_sbrk+0x38>)
 8001c42:	4c0a      	ldr	r4, [pc, #40]	; (8001c6c <_sbrk+0x3c>)
 8001c44:	4403      	add	r3, r0
 8001c46:	1b09      	subs	r1, r1, r4
 8001c48:	428b      	cmp	r3, r1
 8001c4a:	d906      	bls.n	8001c5a <_sbrk+0x2a>
 8001c4c:	f002 fa3a 	bl	80040c4 <__errno>
 8001c50:	230c      	movs	r3, #12
 8001c52:	6003      	str	r3, [r0, #0]
 8001c54:	f04f 30ff 	mov.w	r0, #4294967295
 8001c58:	bd10      	pop	{r4, pc}
 8001c5a:	6013      	str	r3, [r2, #0]
 8001c5c:	e7fc      	b.n	8001c58 <_sbrk+0x28>
 8001c5e:	bf00      	nop
 8001c60:	20000254 	.word	0x20000254
 8001c64:	20000270 	.word	0x20000270
 8001c68:	20005000 	.word	0x20005000
 8001c6c:	00000400 	.word	0x00000400

08001c70 <SystemInit>:
 8001c70:	4770      	bx	lr
	...

08001c74 <Reset_Handler>:
 8001c74:	480c      	ldr	r0, [pc, #48]	; (8001ca8 <LoopFillZerobss+0x12>)
 8001c76:	490d      	ldr	r1, [pc, #52]	; (8001cac <LoopFillZerobss+0x16>)
 8001c78:	4a0d      	ldr	r2, [pc, #52]	; (8001cb0 <LoopFillZerobss+0x1a>)
 8001c7a:	2300      	movs	r3, #0
 8001c7c:	e002      	b.n	8001c84 <LoopCopyDataInit>

08001c7e <CopyDataInit>:
 8001c7e:	58d4      	ldr	r4, [r2, r3]
 8001c80:	50c4      	str	r4, [r0, r3]
 8001c82:	3304      	adds	r3, #4

08001c84 <LoopCopyDataInit>:
 8001c84:	18c4      	adds	r4, r0, r3
 8001c86:	428c      	cmp	r4, r1
 8001c88:	d3f9      	bcc.n	8001c7e <CopyDataInit>
 8001c8a:	4a0a      	ldr	r2, [pc, #40]	; (8001cb4 <LoopFillZerobss+0x1e>)
 8001c8c:	4c0a      	ldr	r4, [pc, #40]	; (8001cb8 <LoopFillZerobss+0x22>)
 8001c8e:	2300      	movs	r3, #0
 8001c90:	e001      	b.n	8001c96 <LoopFillZerobss>

08001c92 <FillZerobss>:
 8001c92:	6013      	str	r3, [r2, #0]
 8001c94:	3204      	adds	r2, #4

08001c96 <LoopFillZerobss>:
 8001c96:	42a2      	cmp	r2, r4
 8001c98:	d3fb      	bcc.n	8001c92 <FillZerobss>
 8001c9a:	f7ff ffe9 	bl	8001c70 <SystemInit>
 8001c9e:	f002 fa17 	bl	80040d0 <__libc_init_array>
 8001ca2:	f7ff fc81 	bl	80015a8 <main>
 8001ca6:	4770      	bx	lr
 8001ca8:	20000000 	.word	0x20000000
 8001cac:	20000070 	.word	0x20000070
 8001cb0:	08006348 	.word	0x08006348
 8001cb4:	20000070 	.word	0x20000070
 8001cb8:	2000026c 	.word	0x2000026c

08001cbc <ADC1_2_IRQHandler>:
 8001cbc:	e7fe      	b.n	8001cbc <ADC1_2_IRQHandler>
	...

08001cc0 <HAL_InitTick>:
 8001cc0:	b538      	push	{r3, r4, r5, lr}
 8001cc2:	4b0e      	ldr	r3, [pc, #56]	; (8001cfc <HAL_InitTick+0x3c>)
 8001cc4:	4605      	mov	r5, r0
 8001cc6:	7818      	ldrb	r0, [r3, #0]
 8001cc8:	f44f 737a 	mov.w	r3, #1000	; 0x3e8
 8001ccc:	fbb3 f3f0 	udiv	r3, r3, r0
 8001cd0:	4a0b      	ldr	r2, [pc, #44]	; (8001d00 <HAL_InitTick+0x40>)
 8001cd2:	6810      	ldr	r0, [r2, #0]
 8001cd4:	fbb0 f0f3 	udiv	r0, r0, r3
 8001cd8:	f000 f9c0 	bl	800205c <HAL_SYSTICK_Config>
 8001cdc:	4604      	mov	r4, r0
 8001cde:	b958      	cbnz	r0, 8001cf8 <HAL_InitTick+0x38>
 8001ce0:	2d0f      	cmp	r5, #15
 8001ce2:	d809      	bhi.n	8001cf8 <HAL_InitTick+0x38>
 8001ce4:	4602      	mov	r2, r0
 8001ce6:	4629      	mov	r1, r5
 8001ce8:	f04f 30ff 	mov.w	r0, #4294967295
 8001cec:	f000 f976 	bl	8001fdc <HAL_NVIC_SetPriority>
 8001cf0:	4620      	mov	r0, r4
 8001cf2:	4b04      	ldr	r3, [pc, #16]	; (8001d04 <HAL_InitTick+0x44>)
 8001cf4:	601d      	str	r5, [r3, #0]
 8001cf6:	bd38      	pop	{r3, r4, r5, pc}
 8001cf8:	2001      	movs	r0, #1
 8001cfa:	e7fc      	b.n	8001cf6 <HAL_InitTick+0x36>
 8001cfc:	20000004 	.word	0x20000004
 8001d00:	20000000 	.word	0x20000000
 8001d04:	20000008 	.word	0x20000008

08001d08 <HAL_Init>:
 8001d08:	4a07      	ldr	r2, [pc, #28]	; (8001d28 <HAL_Init+0x20>)
 8001d0a:	b508      	push	{r3, lr}
 8001d0c:	6813      	ldr	r3, [r2, #0]
 8001d0e:	2003      	movs	r0, #3
 8001d10:	f043 0310 	orr.w	r3, r3, #16
 8001d14:	6013      	str	r3, [r2, #0]
 8001d16:	f000 f94f 	bl	8001fb8 <HAL_NVIC_SetPriorityGrouping>
 8001d1a:	200f      	movs	r0, #15
 8001d1c:	f7ff ffd0 	bl	8001cc0 <HAL_InitTick>
 8001d20:	f7ff fe3a 	bl	8001998 <HAL_MspInit>
 8001d24:	2000      	movs	r0, #0
 8001d26:	bd08      	pop	{r3, pc}
 8001d28:	40022000 	.word	0x40022000

08001d2c <HAL_IncTick>:
 8001d2c:	4a03      	ldr	r2, [pc, #12]	; (8001d3c <HAL_IncTick+0x10>)
 8001d2e:	4b04      	ldr	r3, [pc, #16]	; (8001d40 <HAL_IncTick+0x14>)
 8001d30:	6811      	ldr	r1, [r2, #0]
 8001d32:	781b      	ldrb	r3, [r3, #0]
 8001d34:	440b      	add	r3, r1
 8001d36:	6013      	str	r3, [r2, #0]
 8001d38:	4770      	bx	lr
 8001d3a:	bf00      	nop
 8001d3c:	20000258 	.word	0x20000258
 8001d40:	20000004 	.word	0x20000004

08001d44 <HAL_GetTick>:
 8001d44:	4b01      	ldr	r3, [pc, #4]	; (8001d4c <HAL_GetTick+0x8>)
 8001d46:	6818      	ldr	r0, [r3, #0]
 8001d48:	4770      	bx	lr
 8001d4a:	bf00      	nop
 8001d4c:	20000258 	.word	0x20000258

08001d50 <HAL_Delay>:
 8001d50:	b538      	push	{r3, r4, r5, lr}
 8001d52:	4604      	mov	r4, r0
 8001d54:	f7ff fff6 	bl	8001d44 <HAL_GetTick>
 8001d58:	4605      	mov	r5, r0
 8001d5a:	1c63      	adds	r3, r4, #1
 8001d5c:	bf1e      	ittt	ne
 8001d5e:	4b04      	ldrne	r3, [pc, #16]	; (8001d70 <HAL_Delay+0x20>)
 8001d60:	781b      	ldrbne	r3, [r3, #0]
 8001d62:	18e4      	addne	r4, r4, r3
 8001d64:	f7ff ffee 	bl	8001d44 <HAL_GetTick>
 8001d68:	1b43      	subs	r3, r0, r5
 8001d6a:	42a3      	cmp	r3, r4
 8001d6c:	d3fa      	bcc.n	8001d64 <HAL_Delay+0x14>
 8001d6e:	bd38      	pop	{r3, r4, r5, pc}
 8001d70:	20000004 	.word	0x20000004

08001d74 <HAL_ADC_ConfigChannel>:
 8001d74:	2300      	movs	r3, #0
 8001d76:	b573      	push	{r0, r1, r4, r5, r6, lr}
 8001d78:	9301      	str	r3, [sp, #4]
 8001d7a:	f890 3024 	ldrb.w	r3, [r0, #36]	; 0x24
 8001d7e:	4604      	mov	r4, r0
 8001d80:	2b01      	cmp	r3, #1
 8001d82:	d06c      	beq.n	8001e5e <HAL_ADC_ConfigChannel+0xea>
 8001d84:	2301      	movs	r3, #1
 8001d86:	f880 3024 	strb.w	r3, [r0, #36]	; 0x24
 8001d8a:	684d      	ldr	r5, [r1, #4]
 8001d8c:	6802      	ldr	r2, [r0, #0]
 8001d8e:	2d06      	cmp	r5, #6
 8001d90:	6808      	ldr	r0, [r1, #0]
 8001d92:	eb05 0385 	add.w	r3, r5, r5, lsl #2
 8001d96:	d822      	bhi.n	8001dde <HAL_ADC_ConfigChannel+0x6a>
 8001d98:	261f      	movs	r6, #31
 8001d9a:	6b55      	ldr	r5, [r2, #52]	; 0x34
 8001d9c:	3b05      	subs	r3, #5
 8001d9e:	409e      	lsls	r6, r3
 8001da0:	ea25 0506 	bic.w	r5, r5, r6
 8001da4:	fa00 f303 	lsl.w	r3, r0, r3
 8001da8:	432b      	orrs	r3, r5
 8001daa:	6353      	str	r3, [r2, #52]	; 0x34
 8001dac:	2809      	cmp	r0, #9
 8001dae:	688b      	ldr	r3, [r1, #8]
 8001db0:	eb00 0540 	add.w	r5, r0, r0, lsl #1
 8001db4:	f04f 0107 	mov.w	r1, #7
 8001db8:	d929      	bls.n	8001e0e <HAL_ADC_ConfigChannel+0x9a>
 8001dba:	68d6      	ldr	r6, [r2, #12]
 8001dbc:	3d1e      	subs	r5, #30
 8001dbe:	40a9      	lsls	r1, r5
 8001dc0:	ea26 0101 	bic.w	r1, r6, r1
 8001dc4:	40ab      	lsls	r3, r5
 8001dc6:	430b      	orrs	r3, r1
 8001dc8:	60d3      	str	r3, [r2, #12]
 8001dca:	f1a0 0310 	sub.w	r3, r0, #16
 8001dce:	2b01      	cmp	r3, #1
 8001dd0:	d925      	bls.n	8001e1e <HAL_ADC_ConfigChannel+0xaa>
 8001dd2:	2000      	movs	r0, #0
 8001dd4:	2300      	movs	r3, #0
 8001dd6:	f884 3024 	strb.w	r3, [r4, #36]	; 0x24
 8001dda:	b002      	add	sp, #8
 8001ddc:	bd70      	pop	{r4, r5, r6, pc}
 8001dde:	2d0c      	cmp	r5, #12
 8001de0:	f04f 051f 	mov.w	r5, #31
 8001de4:	d809      	bhi.n	8001dfa <HAL_ADC_ConfigChannel+0x86>
 8001de6:	6b16      	ldr	r6, [r2, #48]	; 0x30
 8001de8:	3b23      	subs	r3, #35	; 0x23
 8001dea:	409d      	lsls	r5, r3
 8001dec:	ea26 0505 	bic.w	r5, r6, r5
 8001df0:	fa00 f303 	lsl.w	r3, r0, r3
 8001df4:	432b      	orrs	r3, r5
 8001df6:	6313      	str	r3, [r2, #48]	; 0x30
 8001df8:	e7d8      	b.n	8001dac <HAL_ADC_ConfigChannel+0x38>
 8001dfa:	6ad6      	ldr	r6, [r2, #44]	; 0x2c
 8001dfc:	3b41      	subs	r3, #65	; 0x41
 8001dfe:	409d      	lsls	r5, r3
 8001e00:	ea26 0505 	bic.w	r5, r6, r5
 8001e04:	fa00 f303 	lsl.w	r3, r0, r3
 8001e08:	432b      	orrs	r3, r5
 8001e0a:	62d3      	str	r3, [r2, #44]	; 0x2c
 8001e0c:	e7ce      	b.n	8001dac <HAL_ADC_ConfigChannel+0x38>
 8001e0e:	6910      	ldr	r0, [r2, #16]
 8001e10:	40a9      	lsls	r1, r5
 8001e12:	ea20 0101 	bic.w	r1, r0, r1
 8001e16:	40ab      	lsls	r3, r5
 8001e18:	430b      	orrs	r3, r1
 8001e1a:	6113      	str	r3, [r2, #16]
 8001e1c:	e7d9      	b.n	8001dd2 <HAL_ADC_ConfigChannel+0x5e>
 8001e1e:	4b11      	ldr	r3, [pc, #68]	; (8001e64 <HAL_ADC_ConfigChannel+0xf0>)
 8001e20:	429a      	cmp	r2, r3
 8001e22:	d116      	bne.n	8001e52 <HAL_ADC_ConfigChannel+0xde>
 8001e24:	6893      	ldr	r3, [r2, #8]
 8001e26:	021b      	lsls	r3, r3, #8
 8001e28:	d4d3      	bmi.n	8001dd2 <HAL_ADC_ConfigChannel+0x5e>
 8001e2a:	6893      	ldr	r3, [r2, #8]
 8001e2c:	2810      	cmp	r0, #16
 8001e2e:	f443 0300 	orr.w	r3, r3, #8388608	; 0x800000
 8001e32:	6093      	str	r3, [r2, #8]
 8001e34:	d1cd      	bne.n	8001dd2 <HAL_ADC_ConfigChannel+0x5e>
 8001e36:	4b0c      	ldr	r3, [pc, #48]	; (8001e68 <HAL_ADC_ConfigChannel+0xf4>)
 8001e38:	4a0c      	ldr	r2, [pc, #48]	; (8001e6c <HAL_ADC_ConfigChannel+0xf8>)
 8001e3a:	681b      	ldr	r3, [r3, #0]
 8001e3c:	fbb3 f3f2 	udiv	r3, r3, r2
 8001e40:	220a      	movs	r2, #10
 8001e42:	4353      	muls	r3, r2
 8001e44:	9301      	str	r3, [sp, #4]
 8001e46:	9b01      	ldr	r3, [sp, #4]
 8001e48:	2b00      	cmp	r3, #0
 8001e4a:	d0c2      	beq.n	8001dd2 <HAL_ADC_ConfigChannel+0x5e>
 8001e4c:	9b01      	ldr	r3, [sp, #4]
 8001e4e:	3b01      	subs	r3, #1
 8001e50:	e7f8      	b.n	8001e44 <HAL_ADC_ConfigChannel+0xd0>
 8001e52:	6aa3      	ldr	r3, [r4, #40]	; 0x28
 8001e54:	2001      	movs	r0, #1
 8001e56:	f043 0320 	orr.w	r3, r3, #32
 8001e5a:	62a3      	str	r3, [r4, #40]	; 0x28
 8001e5c:	e7ba      	b.n	8001dd4 <HAL_ADC_ConfigChannel+0x60>
 8001e5e:	2002      	movs	r0, #2
 8001e60:	e7bb      	b.n	8001dda <HAL_ADC_ConfigChannel+0x66>
 8001e62:	bf00      	nop
 8001e64:	40012400 	.word	0x40012400
 8001e68:	20000000 	.word	0x20000000
 8001e6c:	000f4240 	.word	0x000f4240

08001e70 <ADC_ConversionStop_Disable>:
 8001e70:	b538      	push	{r3, r4, r5, lr}
 8001e72:	6803      	ldr	r3, [r0, #0]
 8001e74:	4604      	mov	r4, r0
 8001e76:	689a      	ldr	r2, [r3, #8]
 8001e78:	07d1      	lsls	r1, r2, #31
 8001e7a:	d401      	bmi.n	8001e80 <ADC_ConversionStop_Disable+0x10>
 8001e7c:	2000      	movs	r0, #0
 8001e7e:	bd38      	pop	{r3, r4, r5, pc}
 8001e80:	689a      	ldr	r2, [r3, #8]
 8001e82:	f022 0201 	bic.w	r2, r2, #1
 8001e86:	609a      	str	r2, [r3, #8]
 8001e88:	f7ff ff5c 	bl	8001d44 <HAL_GetTick>
 8001e8c:	4605      	mov	r5, r0
 8001e8e:	6823      	ldr	r3, [r4, #0]
 8001e90:	689b      	ldr	r3, [r3, #8]
 8001e92:	07db      	lsls	r3, r3, #31
 8001e94:	d5f2      	bpl.n	8001e7c <ADC_ConversionStop_Disable+0xc>
 8001e96:	f7ff ff55 	bl	8001d44 <HAL_GetTick>
 8001e9a:	1b40      	subs	r0, r0, r5
 8001e9c:	2802      	cmp	r0, #2
 8001e9e:	d9f6      	bls.n	8001e8e <ADC_ConversionStop_Disable+0x1e>
 8001ea0:	6823      	ldr	r3, [r4, #0]
 8001ea2:	689b      	ldr	r3, [r3, #8]
 8001ea4:	07da      	lsls	r2, r3, #31
 8001ea6:	d5f2      	bpl.n	8001e8e <ADC_ConversionStop_Disable+0x1e>
 8001ea8:	6aa3      	ldr	r3, [r4, #40]	; 0x28
 8001eaa:	2001      	movs	r0, #1
 8001eac:	f043 0310 	orr.w	r3, r3, #16
 8001eb0:	62a3      	str	r3, [r4, #40]	; 0x28
 8001eb2:	6ae3      	ldr	r3, [r4, #44]	; 0x2c
 8001eb4:	f043 0301 	orr.w	r3, r3, #1
 8001eb8:	62e3      	str	r3, [r4, #44]	; 0x2c
 8001eba:	e7e0      	b.n	8001e7e <ADC_ConversionStop_Disable+0xe>

08001ebc <HAL_ADC_Init>:
 8001ebc:	b5f8      	push	{r3, r4, r5, r6, r7, lr}
 8001ebe:	4604      	mov	r4, r0
 8001ec0:	2800      	cmp	r0, #0
 8001ec2:	d06e      	beq.n	8001fa2 <HAL_ADC_Init+0xe6>
 8001ec4:	6a83      	ldr	r3, [r0, #40]	; 0x28
 8001ec6:	b923      	cbnz	r3, 8001ed2 <HAL_ADC_Init+0x16>
 8001ec8:	62c3      	str	r3, [r0, #44]	; 0x2c
 8001eca:	f880 3024 	strb.w	r3, [r0, #36]	; 0x24
 8001ece:	f7ff fd85 	bl	80019dc <HAL_ADC_MspInit>
 8001ed2:	4620      	mov	r0, r4
 8001ed4:	f7ff ffcc 	bl	8001e70 <ADC_ConversionStop_Disable>
 8001ed8:	6aa3      	ldr	r3, [r4, #40]	; 0x28
 8001eda:	f013 0310 	ands.w	r3, r3, #16
 8001ede:	d162      	bne.n	8001fa6 <HAL_ADC_Init+0xea>
 8001ee0:	2800      	cmp	r0, #0
 8001ee2:	d160      	bne.n	8001fa6 <HAL_ADC_Init+0xea>
 8001ee4:	6aa2      	ldr	r2, [r4, #40]	; 0x28
 8001ee6:	69e5      	ldr	r5, [r4, #28]
 8001ee8:	6861      	ldr	r1, [r4, #4]
 8001eea:	f422 5288 	bic.w	r2, r2, #4352	; 0x1100
 8001eee:	f022 0202 	bic.w	r2, r2, #2
 8001ef2:	f042 0202 	orr.w	r2, r2, #2
 8001ef6:	4329      	orrs	r1, r5
 8001ef8:	68a5      	ldr	r5, [r4, #8]
 8001efa:	62a2      	str	r2, [r4, #40]	; 0x28
 8001efc:	7b22      	ldrb	r2, [r4, #12]
 8001efe:	f5b5 7f80 	cmp.w	r5, #256	; 0x100
 8001f02:	ea41 0142 	orr.w	r1, r1, r2, lsl #1
 8001f06:	d037      	beq.n	8001f78 <HAL_ADC_Init+0xbc>
 8001f08:	2d01      	cmp	r5, #1
 8001f0a:	bf14      	ite	ne
 8001f0c:	2700      	movne	r7, #0
 8001f0e:	f44f 7780 	moveq.w	r7, #256	; 0x100
 8001f12:	7d26      	ldrb	r6, [r4, #20]
 8001f14:	2e01      	cmp	r6, #1
 8001f16:	d106      	bne.n	8001f26 <HAL_ADC_Init+0x6a>
 8001f18:	bb82      	cbnz	r2, 8001f7c <HAL_ADC_Init+0xc0>
 8001f1a:	69a2      	ldr	r2, [r4, #24]
 8001f1c:	3a01      	subs	r2, #1
 8001f1e:	ea47 3642 	orr.w	r6, r7, r2, lsl #13
 8001f22:	f446 6700 	orr.w	r7, r6, #2048	; 0x800
 8001f26:	6822      	ldr	r2, [r4, #0]
 8001f28:	f5b5 7f80 	cmp.w	r5, #256	; 0x100
 8001f2c:	6856      	ldr	r6, [r2, #4]
 8001f2e:	f426 4669 	bic.w	r6, r6, #59648	; 0xe900
 8001f32:	ea46 0607 	orr.w	r6, r6, r7
 8001f36:	6056      	str	r6, [r2, #4]
 8001f38:	6897      	ldr	r7, [r2, #8]
 8001f3a:	4e1d      	ldr	r6, [pc, #116]	; (8001fb0 <HAL_ADC_Init+0xf4>)
 8001f3c:	ea06 0607 	and.w	r6, r6, r7
 8001f40:	ea46 0601 	orr.w	r6, r6, r1
 8001f44:	6096      	str	r6, [r2, #8]
 8001f46:	d001      	beq.n	8001f4c <HAL_ADC_Init+0x90>
 8001f48:	2d01      	cmp	r5, #1
 8001f4a:	d102      	bne.n	8001f52 <HAL_ADC_Init+0x96>
 8001f4c:	6923      	ldr	r3, [r4, #16]
 8001f4e:	3b01      	subs	r3, #1
 8001f50:	051b      	lsls	r3, r3, #20
 8001f52:	6ad5      	ldr	r5, [r2, #44]	; 0x2c
 8001f54:	f425 0570 	bic.w	r5, r5, #15728640	; 0xf00000
 8001f58:	432b      	orrs	r3, r5
 8001f5a:	62d3      	str	r3, [r2, #44]	; 0x2c
 8001f5c:	6892      	ldr	r2, [r2, #8]
 8001f5e:	4b15      	ldr	r3, [pc, #84]	; (8001fb4 <HAL_ADC_Init+0xf8>)
 8001f60:	4013      	ands	r3, r2
 8001f62:	4299      	cmp	r1, r3
 8001f64:	d113      	bne.n	8001f8e <HAL_ADC_Init+0xd2>
 8001f66:	2300      	movs	r3, #0
 8001f68:	62e3      	str	r3, [r4, #44]	; 0x2c
 8001f6a:	6aa3      	ldr	r3, [r4, #40]	; 0x28
 8001f6c:	f023 0303 	bic.w	r3, r3, #3
 8001f70:	f043 0301 	orr.w	r3, r3, #1
 8001f74:	62a3      	str	r3, [r4, #40]	; 0x28
 8001f76:	bdf8      	pop	{r3, r4, r5, r6, r7, pc}
 8001f78:	462f      	mov	r7, r5
 8001f7a:	e7ca      	b.n	8001f12 <HAL_ADC_Init+0x56>
 8001f7c:	6aa2      	ldr	r2, [r4, #40]	; 0x28
 8001f7e:	f042 0220 	orr.w	r2, r2, #32
 8001f82:	62a2      	str	r2, [r4, #40]	; 0x28
 8001f84:	6ae2      	ldr	r2, [r4, #44]	; 0x2c
 8001f86:	f042 0201 	orr.w	r2, r2, #1
 8001f8a:	62e2      	str	r2, [r4, #44]	; 0x2c
 8001f8c:	e7cb      	b.n	8001f26 <HAL_ADC_Init+0x6a>
 8001f8e:	6aa3      	ldr	r3, [r4, #40]	; 0x28
 8001f90:	f023 0312 	bic.w	r3, r3, #18
 8001f94:	f043 0310 	orr.w	r3, r3, #16
 8001f98:	62a3      	str	r3, [r4, #40]	; 0x28
 8001f9a:	6ae3      	ldr	r3, [r4, #44]	; 0x2c
 8001f9c:	f043 0301 	orr.w	r3, r3, #1
 8001fa0:	62e3      	str	r3, [r4, #44]	; 0x2c
 8001fa2:	2001      	movs	r0, #1
 8001fa4:	e7e7      	b.n	8001f76 <HAL_ADC_Init+0xba>
 8001fa6:	6aa3      	ldr	r3, [r4, #40]	; 0x28
 8001fa8:	f043 0310 	orr.w	r3, r3, #16
 8001fac:	62a3      	str	r3, [r4, #40]	; 0x28
 8001fae:	e7f8      	b.n	8001fa2 <HAL_ADC_Init+0xe6>
 8001fb0:	ffe1f7fd 	.word	0xffe1f7fd
 8001fb4:	ff1f0efe 	.word	0xff1f0efe

08001fb8 <HAL_NVIC_SetPriorityGrouping>:
 8001fb8:	4907      	ldr	r1, [pc, #28]	; (8001fd8 <HAL_NVIC_SetPriorityGrouping+0x20>)
 8001fba:	0203      	lsls	r3, r0, #8
 8001fbc:	68ca      	ldr	r2, [r1, #12]
 8001fbe:	f403 63e0 	and.w	r3, r3, #1792	; 0x700
 8001fc2:	f422 62e0 	bic.w	r2, r2, #1792	; 0x700
 8001fc6:	0412      	lsls	r2, r2, #16
 8001fc8:	0c12      	lsrs	r2, r2, #16
 8001fca:	4313      	orrs	r3, r2
 8001fcc:	f043 63bf 	orr.w	r3, r3, #100139008	; 0x5f80000
 8001fd0:	f443 3300 	orr.w	r3, r3, #131072	; 0x20000
 8001fd4:	60cb      	str	r3, [r1, #12]
 8001fd6:	4770      	bx	lr
 8001fd8:	e000ed00 	.word	0xe000ed00

08001fdc <HAL_NVIC_SetPriority>:
 8001fdc:	4b16      	ldr	r3, [pc, #88]	; (8002038 <HAL_NVIC_SetPriority+0x5c>)
 8001fde:	b530      	push	{r4, r5, lr}
 8001fe0:	68dc      	ldr	r4, [r3, #12]
 8001fe2:	f3c4 2402 	ubfx	r4, r4, #8, #3
 8001fe6:	f1c4 0307 	rsb	r3, r4, #7
 8001fea:	1d25      	adds	r5, r4, #4
 8001fec:	2b04      	cmp	r3, #4
 8001fee:	bf28      	it	cs
 8001ff0:	2304      	movcs	r3, #4
 8001ff2:	2d06      	cmp	r5, #6
 8001ff4:	f04f 35ff 	mov.w	r5, #4294967295
 8001ff8:	bf98      	it	ls
 8001ffa:	2400      	movls	r4, #0
 8001ffc:	fa05 f303 	lsl.w	r3, r5, r3
 8002000:	bf88      	it	hi
 8002002:	3c03      	subhi	r4, #3
 8002004:	ea21 0303 	bic.w	r3, r1, r3
 8002008:	40a3      	lsls	r3, r4
 800200a:	fa05 f404 	lsl.w	r4, r5, r4
 800200e:	ea22 0204 	bic.w	r2, r2, r4
 8002012:	2800      	cmp	r0, #0
 8002014:	ea43 0302 	orr.w	r3, r3, r2
 8002018:	bfac      	ite	ge
 800201a:	f100 4060 	addge.w	r0, r0, #3758096384	; 0xe0000000
 800201e:	4a07      	ldrlt	r2, [pc, #28]	; (800203c <HAL_NVIC_SetPriority+0x60>)
 8002020:	ea4f 1303 	mov.w	r3, r3, lsl #4
 8002024:	b2db      	uxtb	r3, r3
 8002026:	bfab      	itete	ge
 8002028:	f500 4061 	addge.w	r0, r0, #57600	; 0xe100
 800202c:	f000 000f 	andlt.w	r0, r0, #15
 8002030:	f880 3300 	strbge.w	r3, [r0, #768]	; 0x300
 8002034:	5413      	strblt	r3, [r2, r0]
 8002036:	bd30      	pop	{r4, r5, pc}
 8002038:	e000ed00 	.word	0xe000ed00
 800203c:	e000ed14 	.word	0xe000ed14

08002040 <HAL_NVIC_EnableIRQ>:
 8002040:	2800      	cmp	r0, #0
 8002042:	db08      	blt.n	8002056 <HAL_NVIC_EnableIRQ+0x16>
 8002044:	2301      	movs	r3, #1
 8002046:	0942      	lsrs	r2, r0, #5
 8002048:	f000 001f 	and.w	r0, r0, #31
 800204c:	fa03 f000 	lsl.w	r0, r3, r0
 8002050:	4b01      	ldr	r3, [pc, #4]	; (8002058 <HAL_NVIC_EnableIRQ+0x18>)
 8002052:	f843 0022 	str.w	r0, [r3, r2, lsl #2]
 8002056:	4770      	bx	lr
 8002058:	e000e100 	.word	0xe000e100

0800205c <HAL_SYSTICK_Config>:
 800205c:	3801      	subs	r0, #1
 800205e:	f1b0 7f80 	cmp.w	r0, #16777216	; 0x1000000
 8002062:	d20b      	bcs.n	800207c <HAL_SYSTICK_Config+0x20>
 8002064:	f04f 23e0 	mov.w	r3, #3758153728	; 0xe000e000
 8002068:	21f0      	movs	r1, #240	; 0xf0
 800206a:	4a05      	ldr	r2, [pc, #20]	; (8002080 <HAL_SYSTICK_Config+0x24>)
 800206c:	6158      	str	r0, [r3, #20]
 800206e:	f882 1023 	strb.w	r1, [r2, #35]	; 0x23
 8002072:	2000      	movs	r0, #0
 8002074:	2207      	movs	r2, #7
 8002076:	6198      	str	r0, [r3, #24]
 8002078:	611a      	str	r2, [r3, #16]
 800207a:	4770      	bx	lr
 800207c:	2001      	movs	r0, #1
 800207e:	4770      	bx	lr
 8002080:	e000ed00 	.word	0xe000ed00

08002084 <HAL_SYSTICK_IRQHandler>:
 8002084:	b508      	push	{r3, lr}
 8002086:	f7ff f923 	bl	80012d0 <HAL_SYSTICK_Callback>
 800208a:	bd08      	pop	{r3, pc}

0800208c <HAL_DMA_Abort>:
 800208c:	f890 3021 	ldrb.w	r3, [r0, #33]	; 0x21
 8002090:	2b02      	cmp	r3, #2
 8002092:	d006      	beq.n	80020a2 <HAL_DMA_Abort+0x16>
 8002094:	2304      	movs	r3, #4
 8002096:	6383      	str	r3, [r0, #56]	; 0x38
 8002098:	2300      	movs	r3, #0
 800209a:	f880 3020 	strb.w	r3, [r0, #32]
 800209e:	2001      	movs	r0, #1
 80020a0:	4770      	bx	lr
 80020a2:	6803      	ldr	r3, [r0, #0]
 80020a4:	681a      	ldr	r2, [r3, #0]
 80020a6:	f022 020e 	bic.w	r2, r2, #14
 80020aa:	601a      	str	r2, [r3, #0]
 80020ac:	681a      	ldr	r2, [r3, #0]
 80020ae:	f022 0201 	bic.w	r2, r2, #1
 80020b2:	601a      	str	r2, [r3, #0]
 80020b4:	2301      	movs	r3, #1
 80020b6:	e9d0 210f 	ldrd	r2, r1, [r0, #60]	; 0x3c
 80020ba:	408b      	lsls	r3, r1
 80020bc:	6053      	str	r3, [r2, #4]
 80020be:	f44f 7380 	mov.w	r3, #256	; 0x100
 80020c2:	8403      	strh	r3, [r0, #32]
 80020c4:	2000      	movs	r0, #0
 80020c6:	4770      	bx	lr

080020c8 <HAL_DMA_Abort_IT>:
 80020c8:	b508      	push	{r3, lr}
 80020ca:	f890 3021 	ldrb.w	r3, [r0, #33]	; 0x21
 80020ce:	2b02      	cmp	r3, #2
 80020d0:	d003      	beq.n	80020da <HAL_DMA_Abort_IT+0x12>
 80020d2:	2304      	movs	r3, #4
 80020d4:	6383      	str	r3, [r0, #56]	; 0x38
 80020d6:	2001      	movs	r0, #1
 80020d8:	bd08      	pop	{r3, pc}
 80020da:	6803      	ldr	r3, [r0, #0]
 80020dc:	681a      	ldr	r2, [r3, #0]
 80020de:	f022 020e 	bic.w	r2, r2, #14
 80020e2:	601a      	str	r2, [r3, #0]
 80020e4:	681a      	ldr	r2, [r3, #0]
 80020e6:	f022 0201 	bic.w	r2, r2, #1
 80020ea:	601a      	str	r2, [r3, #0]
 80020ec:	4a17      	ldr	r2, [pc, #92]	; (800214c <HAL_DMA_Abort_IT+0x84>)
 80020ee:	4293      	cmp	r3, r2
 80020f0:	d01c      	beq.n	800212c <HAL_DMA_Abort_IT+0x64>
 80020f2:	3214      	adds	r2, #20
 80020f4:	4293      	cmp	r3, r2
 80020f6:	d01b      	beq.n	8002130 <HAL_DMA_Abort_IT+0x68>
 80020f8:	3214      	adds	r2, #20
 80020fa:	4293      	cmp	r3, r2
 80020fc:	d01a      	beq.n	8002134 <HAL_DMA_Abort_IT+0x6c>
 80020fe:	3214      	adds	r2, #20
 8002100:	4293      	cmp	r3, r2
 8002102:	d01a      	beq.n	800213a <HAL_DMA_Abort_IT+0x72>
 8002104:	3214      	adds	r2, #20
 8002106:	4293      	cmp	r3, r2
 8002108:	d01a      	beq.n	8002140 <HAL_DMA_Abort_IT+0x78>
 800210a:	3214      	adds	r2, #20
 800210c:	4293      	cmp	r3, r2
 800210e:	bf0c      	ite	eq
 8002110:	f44f 1380 	moveq.w	r3, #1048576	; 0x100000
 8002114:	f04f 7380 	movne.w	r3, #16777216	; 0x1000000
 8002118:	4a0d      	ldr	r2, [pc, #52]	; (8002150 <HAL_DMA_Abort_IT+0x88>)
 800211a:	6053      	str	r3, [r2, #4]
 800211c:	f44f 7380 	mov.w	r3, #256	; 0x100
 8002120:	8403      	strh	r3, [r0, #32]
 8002122:	6b43      	ldr	r3, [r0, #52]	; 0x34
 8002124:	b17b      	cbz	r3, 8002146 <HAL_DMA_Abort_IT+0x7e>
 8002126:	4798      	blx	r3
 8002128:	2000      	movs	r0, #0
 800212a:	e7d5      	b.n	80020d8 <HAL_DMA_Abort_IT+0x10>
 800212c:	2301      	movs	r3, #1
 800212e:	e7f3      	b.n	8002118 <HAL_DMA_Abort_IT+0x50>
 8002130:	2310      	movs	r3, #16
 8002132:	e7f1      	b.n	8002118 <HAL_DMA_Abort_IT+0x50>
 8002134:	f44f 7380 	mov.w	r3, #256	; 0x100
 8002138:	e7ee      	b.n	8002118 <HAL_DMA_Abort_IT+0x50>
 800213a:	f44f 5380 	mov.w	r3, #4096	; 0x1000
 800213e:	e7eb      	b.n	8002118 <HAL_DMA_Abort_IT+0x50>
 8002140:	f44f 3380 	mov.w	r3, #65536	; 0x10000
 8002144:	e7e8      	b.n	8002118 <HAL_DMA_Abort_IT+0x50>
 8002146:	4618      	mov	r0, r3
 8002148:	e7c6      	b.n	80020d8 <HAL_DMA_Abort_IT+0x10>
 800214a:	bf00      	nop
 800214c:	40020008 	.word	0x40020008
 8002150:	40020000 	.word	0x40020000

08002154 <HAL_GPIO_Init>:
 8002154:	e92d 4ff7 	stmdb	sp!, {r0, r1, r2, r4, r5, r6, r7, r8, r9, sl, fp, lr}
 8002158:	2200      	movs	r2, #0
 800215a:	4616      	mov	r6, r2
 800215c:	4f64      	ldr	r7, [pc, #400]	; (80022f0 <HAL_GPIO_Init+0x19c>)
 800215e:	4b65      	ldr	r3, [pc, #404]	; (80022f4 <HAL_GPIO_Init+0x1a0>)
 8002160:	f8df c194 	ldr.w	ip, [pc, #404]	; 80022f8 <HAL_GPIO_Init+0x1a4>
 8002164:	f8df e194 	ldr.w	lr, [pc, #404]	; 80022fc <HAL_GPIO_Init+0x1a8>
 8002168:	680d      	ldr	r5, [r1, #0]
 800216a:	fa35 f406 	lsrs.w	r4, r5, r6
 800216e:	d102      	bne.n	8002176 <HAL_GPIO_Init+0x22>
 8002170:	b003      	add	sp, #12
 8002172:	e8bd 8ff0 	ldmia.w	sp!, {r4, r5, r6, r7, r8, r9, sl, fp, pc}
 8002176:	f04f 0801 	mov.w	r8, #1
 800217a:	fa08 f806 	lsl.w	r8, r8, r6
 800217e:	ea05 0408 	and.w	r4, r5, r8
 8002182:	ea38 0505 	bics.w	r5, r8, r5
 8002186:	d17b      	bne.n	8002280 <HAL_GPIO_Init+0x12c>
 8002188:	684d      	ldr	r5, [r1, #4]
 800218a:	2d03      	cmp	r5, #3
 800218c:	d807      	bhi.n	800219e <HAL_GPIO_Init+0x4a>
 800218e:	3d01      	subs	r5, #1
 8002190:	2d02      	cmp	r5, #2
 8002192:	f200 8088 	bhi.w	80022a6 <HAL_GPIO_Init+0x152>
 8002196:	e8df f005 	tbb	[pc, r5]
 800219a:	9b96      	.short	0x9b96
 800219c:	a1          	.byte	0xa1
 800219d:	00          	.byte	0x00
 800219e:	2d12      	cmp	r5, #18
 80021a0:	f000 8099 	beq.w	80022d6 <HAL_GPIO_Init+0x182>
 80021a4:	d86e      	bhi.n	8002284 <HAL_GPIO_Init+0x130>
 80021a6:	2d11      	cmp	r5, #17
 80021a8:	f000 808f 	beq.w	80022ca <HAL_GPIO_Init+0x176>
 80021ac:	2cff      	cmp	r4, #255	; 0xff
 80021ae:	bf98      	it	ls
 80021b0:	4682      	movls	sl, r0
 80021b2:	f04f 090f 	mov.w	r9, #15
 80021b6:	bf88      	it	hi
 80021b8:	f100 0a04 	addhi.w	sl, r0, #4
 80021bc:	ea4f 0586 	mov.w	r5, r6, lsl #2
 80021c0:	f8da 8000 	ldr.w	r8, [sl]
 80021c4:	bf88      	it	hi
 80021c6:	3d20      	subhi	r5, #32
 80021c8:	fa09 fb05 	lsl.w	fp, r9, r5
 80021cc:	ea28 080b 	bic.w	r8, r8, fp
 80021d0:	fa02 f505 	lsl.w	r5, r2, r5
 80021d4:	ea48 0505 	orr.w	r5, r8, r5
 80021d8:	f8ca 5000 	str.w	r5, [sl]
 80021dc:	f8d1 a004 	ldr.w	sl, [r1, #4]
 80021e0:	f01a 5f80 	tst.w	sl, #268435456	; 0x10000000
 80021e4:	d04c      	beq.n	8002280 <HAL_GPIO_Init+0x12c>
 80021e6:	69bd      	ldr	r5, [r7, #24]
 80021e8:	f026 0803 	bic.w	r8, r6, #3
 80021ec:	f045 0501 	orr.w	r5, r5, #1
 80021f0:	61bd      	str	r5, [r7, #24]
 80021f2:	69bd      	ldr	r5, [r7, #24]
 80021f4:	f108 4880 	add.w	r8, r8, #1073741824	; 0x40000000
 80021f8:	f005 0501 	and.w	r5, r5, #1
 80021fc:	9501      	str	r5, [sp, #4]
 80021fe:	f508 3880 	add.w	r8, r8, #65536	; 0x10000
 8002202:	f006 0b03 	and.w	fp, r6, #3
 8002206:	9d01      	ldr	r5, [sp, #4]
 8002208:	ea4f 0b8b 	mov.w	fp, fp, lsl #2
 800220c:	f8d8 5008 	ldr.w	r5, [r8, #8]
 8002210:	fa09 f90b 	lsl.w	r9, r9, fp
 8002214:	ea25 0909 	bic.w	r9, r5, r9
 8002218:	4d39      	ldr	r5, [pc, #228]	; (8002300 <HAL_GPIO_Init+0x1ac>)
 800221a:	42a8      	cmp	r0, r5
 800221c:	d062      	beq.n	80022e4 <HAL_GPIO_Init+0x190>
 800221e:	f505 6580 	add.w	r5, r5, #1024	; 0x400
 8002222:	42a8      	cmp	r0, r5
 8002224:	d060      	beq.n	80022e8 <HAL_GPIO_Init+0x194>
 8002226:	f505 6580 	add.w	r5, r5, #1024	; 0x400
 800222a:	42a8      	cmp	r0, r5
 800222c:	d05e      	beq.n	80022ec <HAL_GPIO_Init+0x198>
 800222e:	f505 6580 	add.w	r5, r5, #1024	; 0x400
 8002232:	42a8      	cmp	r0, r5
 8002234:	bf0c      	ite	eq
 8002236:	2503      	moveq	r5, #3
 8002238:	2504      	movne	r5, #4
 800223a:	fa05 f50b 	lsl.w	r5, r5, fp
 800223e:	ea45 0509 	orr.w	r5, r5, r9
 8002242:	f8c8 5008 	str.w	r5, [r8, #8]
 8002246:	681d      	ldr	r5, [r3, #0]
 8002248:	f41a 3f80 	tst.w	sl, #65536	; 0x10000
 800224c:	bf14      	ite	ne
 800224e:	4325      	orrne	r5, r4
 8002250:	43a5      	biceq	r5, r4
 8002252:	601d      	str	r5, [r3, #0]
 8002254:	685d      	ldr	r5, [r3, #4]
 8002256:	f41a 3f00 	tst.w	sl, #131072	; 0x20000
 800225a:	bf14      	ite	ne
 800225c:	4325      	orrne	r5, r4
 800225e:	43a5      	biceq	r5, r4
 8002260:	605d      	str	r5, [r3, #4]
 8002262:	689d      	ldr	r5, [r3, #8]
 8002264:	f41a 1f80 	tst.w	sl, #1048576	; 0x100000
 8002268:	bf14      	ite	ne
 800226a:	4325      	orrne	r5, r4
 800226c:	43a5      	biceq	r5, r4
 800226e:	609d      	str	r5, [r3, #8]
 8002270:	68dd      	ldr	r5, [r3, #12]
 8002272:	f41a 1f00 	tst.w	sl, #2097152	; 0x200000
 8002276:	bf14      	ite	ne
 8002278:	432c      	orrne	r4, r5
 800227a:	ea25 0404 	biceq.w	r4, r5, r4
 800227e:	60dc      	str	r4, [r3, #12]
 8002280:	3601      	adds	r6, #1
 8002282:	e771      	b.n	8002168 <HAL_GPIO_Init+0x14>
 8002284:	f8df 907c 	ldr.w	r9, [pc, #124]	; 8002304 <HAL_GPIO_Init+0x1b0>
 8002288:	454d      	cmp	r5, r9
 800228a:	d00c      	beq.n	80022a6 <HAL_GPIO_Init+0x152>
 800228c:	d817      	bhi.n	80022be <HAL_GPIO_Init+0x16a>
 800228e:	f5a9 1980 	sub.w	r9, r9, #1048576	; 0x100000
 8002292:	454d      	cmp	r5, r9
 8002294:	d007      	beq.n	80022a6 <HAL_GPIO_Init+0x152>
 8002296:	f509 2970 	add.w	r9, r9, #983040	; 0xf0000
 800229a:	454d      	cmp	r5, r9
 800229c:	d003      	beq.n	80022a6 <HAL_GPIO_Init+0x152>
 800229e:	f5a9 1980 	sub.w	r9, r9, #1048576	; 0x100000
 80022a2:	454d      	cmp	r5, r9
 80022a4:	d182      	bne.n	80021ac <HAL_GPIO_Init+0x58>
 80022a6:	688a      	ldr	r2, [r1, #8]
 80022a8:	b1d2      	cbz	r2, 80022e0 <HAL_GPIO_Init+0x18c>
 80022aa:	2a01      	cmp	r2, #1
 80022ac:	bf08      	it	eq
 80022ae:	f8c0 8010 	streq.w	r8, [r0, #16]
 80022b2:	f04f 0208 	mov.w	r2, #8
 80022b6:	bf18      	it	ne
 80022b8:	f8c0 8014 	strne.w	r8, [r0, #20]
 80022bc:	e776      	b.n	80021ac <HAL_GPIO_Init+0x58>
 80022be:	4565      	cmp	r5, ip
 80022c0:	d0f1      	beq.n	80022a6 <HAL_GPIO_Init+0x152>
 80022c2:	4575      	cmp	r5, lr
 80022c4:	e7ee      	b.n	80022a4 <HAL_GPIO_Init+0x150>
 80022c6:	68ca      	ldr	r2, [r1, #12]
 80022c8:	e770      	b.n	80021ac <HAL_GPIO_Init+0x58>
 80022ca:	68ca      	ldr	r2, [r1, #12]
 80022cc:	3204      	adds	r2, #4
 80022ce:	e76d      	b.n	80021ac <HAL_GPIO_Init+0x58>
 80022d0:	68ca      	ldr	r2, [r1, #12]
 80022d2:	3208      	adds	r2, #8
 80022d4:	e76a      	b.n	80021ac <HAL_GPIO_Init+0x58>
 80022d6:	68ca      	ldr	r2, [r1, #12]
 80022d8:	320c      	adds	r2, #12
 80022da:	e767      	b.n	80021ac <HAL_GPIO_Init+0x58>
 80022dc:	2200      	movs	r2, #0
 80022de:	e765      	b.n	80021ac <HAL_GPIO_Init+0x58>
 80022e0:	2204      	movs	r2, #4
 80022e2:	e763      	b.n	80021ac <HAL_GPIO_Init+0x58>
 80022e4:	2500      	movs	r5, #0
 80022e6:	e7a8      	b.n	800223a <HAL_GPIO_Init+0xe6>
 80022e8:	2501      	movs	r5, #1
 80022ea:	e7a6      	b.n	800223a <HAL_GPIO_Init+0xe6>
 80022ec:	2502      	movs	r5, #2
 80022ee:	e7a4      	b.n	800223a <HAL_GPIO_Init+0xe6>
 80022f0:	40021000 	.word	0x40021000
 80022f4:	40010400 	.word	0x40010400
 80022f8:	10310000 	.word	0x10310000
 80022fc:	10320000 	.word	0x10320000
 8002300:	40010800 	.word	0x40010800
 8002304:	10220000 	.word	0x10220000

08002308 <HAL_GPIO_WritePin>:
 8002308:	b10a      	cbz	r2, 800230e <HAL_GPIO_WritePin+0x6>
 800230a:	6101      	str	r1, [r0, #16]
 800230c:	4770      	bx	lr
 800230e:	0409      	lsls	r1, r1, #16
 8002310:	e7fb      	b.n	800230a <HAL_GPIO_WritePin+0x2>

08002312 <HAL_GPIO_TogglePin>:
 8002312:	68c3      	ldr	r3, [r0, #12]
 8002314:	ea01 0203 	and.w	r2, r1, r3
 8002318:	ea21 0103 	bic.w	r1, r1, r3
 800231c:	ea41 4102 	orr.w	r1, r1, r2, lsl #16
 8002320:	6101      	str	r1, [r0, #16]
 8002322:	4770      	bx	lr

08002324 <I2C_IsAcknowledgeFailed>:
 8002324:	6801      	ldr	r1, [r0, #0]
 8002326:	2200      	movs	r2, #0
 8002328:	694b      	ldr	r3, [r1, #20]
 800232a:	f413 6380 	ands.w	r3, r3, #1024	; 0x400
 800232e:	d010      	beq.n	8002352 <I2C_IsAcknowledgeFailed+0x2e>
 8002330:	f46f 6380 	mvn.w	r3, #1024	; 0x400
 8002334:	614b      	str	r3, [r1, #20]
 8002336:	2320      	movs	r3, #32
 8002338:	6302      	str	r2, [r0, #48]	; 0x30
 800233a:	f880 303d 	strb.w	r3, [r0, #61]	; 0x3d
 800233e:	f880 203e 	strb.w	r2, [r0, #62]	; 0x3e
 8002342:	6c03      	ldr	r3, [r0, #64]	; 0x40
 8002344:	f880 203c 	strb.w	r2, [r0, #60]	; 0x3c
 8002348:	f043 0304 	orr.w	r3, r3, #4
 800234c:	6403      	str	r3, [r0, #64]	; 0x40
 800234e:	2001      	movs	r0, #1
 8002350:	4770      	bx	lr
 8002352:	4618      	mov	r0, r3
 8002354:	4770      	bx	lr

08002356 <I2C_WaitOnFlagUntilTimeout>:
 8002356:	e92d 46f8 	stmdb	sp!, {r3, r4, r5, r6, r7, r9, sl, lr}
 800235a:	4606      	mov	r6, r0
 800235c:	460f      	mov	r7, r1
 800235e:	4691      	mov	r9, r2
 8002360:	461d      	mov	r5, r3
 8002362:	ea4f 4a11 	mov.w	sl, r1, lsr #16
 8002366:	6833      	ldr	r3, [r6, #0]
 8002368:	f1ba 0f01 	cmp.w	sl, #1
 800236c:	bf0c      	ite	eq
 800236e:	695c      	ldreq	r4, [r3, #20]
 8002370:	699c      	ldrne	r4, [r3, #24]
 8002372:	ea27 0404 	bic.w	r4, r7, r4
 8002376:	b2a4      	uxth	r4, r4
 8002378:	fab4 f484 	clz	r4, r4
 800237c:	0964      	lsrs	r4, r4, #5
 800237e:	45a1      	cmp	r9, r4
 8002380:	d001      	beq.n	8002386 <I2C_WaitOnFlagUntilTimeout+0x30>
 8002382:	2000      	movs	r0, #0
 8002384:	e017      	b.n	80023b6 <I2C_WaitOnFlagUntilTimeout+0x60>
 8002386:	1c6a      	adds	r2, r5, #1
 8002388:	d0ee      	beq.n	8002368 <I2C_WaitOnFlagUntilTimeout+0x12>
 800238a:	f7ff fcdb 	bl	8001d44 <HAL_GetTick>
 800238e:	9b08      	ldr	r3, [sp, #32]
 8002390:	1ac0      	subs	r0, r0, r3
 8002392:	42a8      	cmp	r0, r5
 8002394:	d801      	bhi.n	800239a <I2C_WaitOnFlagUntilTimeout+0x44>
 8002396:	2d00      	cmp	r5, #0
 8002398:	d1e5      	bne.n	8002366 <I2C_WaitOnFlagUntilTimeout+0x10>
 800239a:	2300      	movs	r3, #0
 800239c:	2220      	movs	r2, #32
 800239e:	2001      	movs	r0, #1
 80023a0:	6333      	str	r3, [r6, #48]	; 0x30
 80023a2:	f886 203d 	strb.w	r2, [r6, #61]	; 0x3d
 80023a6:	f886 303e 	strb.w	r3, [r6, #62]	; 0x3e
 80023aa:	6c32      	ldr	r2, [r6, #64]	; 0x40
 80023ac:	f886 303c 	strb.w	r3, [r6, #60]	; 0x3c
 80023b0:	f042 0220 	orr.w	r2, r2, #32
 80023b4:	6432      	str	r2, [r6, #64]	; 0x40
 80023b6:	e8bd 86f8 	ldmia.w	sp!, {r3, r4, r5, r6, r7, r9, sl, pc}

080023ba <I2C_WaitOnMasterAddressFlagUntilTimeout>:
 80023ba:	e92d 41f0 	stmdb	sp!, {r4, r5, r6, r7, r8, lr}
 80023be:	4604      	mov	r4, r0
 80023c0:	460f      	mov	r7, r1
 80023c2:	4616      	mov	r6, r2
 80023c4:	4698      	mov	r8, r3
 80023c6:	6825      	ldr	r5, [r4, #0]
 80023c8:	6968      	ldr	r0, [r5, #20]
 80023ca:	ea27 0000 	bic.w	r0, r7, r0
 80023ce:	b280      	uxth	r0, r0
 80023d0:	b1b8      	cbz	r0, 8002402 <I2C_WaitOnMasterAddressFlagUntilTimeout+0x48>
 80023d2:	696b      	ldr	r3, [r5, #20]
 80023d4:	055a      	lsls	r2, r3, #21
 80023d6:	d516      	bpl.n	8002406 <I2C_WaitOnMasterAddressFlagUntilTimeout+0x4c>
 80023d8:	682b      	ldr	r3, [r5, #0]
 80023da:	2220      	movs	r2, #32
 80023dc:	f443 7300 	orr.w	r3, r3, #512	; 0x200
 80023e0:	602b      	str	r3, [r5, #0]
 80023e2:	f46f 6380 	mvn.w	r3, #1024	; 0x400
 80023e6:	616b      	str	r3, [r5, #20]
 80023e8:	2300      	movs	r3, #0
 80023ea:	6323      	str	r3, [r4, #48]	; 0x30
 80023ec:	f884 203d 	strb.w	r2, [r4, #61]	; 0x3d
 80023f0:	f884 303e 	strb.w	r3, [r4, #62]	; 0x3e
 80023f4:	6c22      	ldr	r2, [r4, #64]	; 0x40
 80023f6:	f042 0204 	orr.w	r2, r2, #4
 80023fa:	2001      	movs	r0, #1
 80023fc:	6422      	str	r2, [r4, #64]	; 0x40
 80023fe:	f884 303c 	strb.w	r3, [r4, #60]	; 0x3c
 8002402:	e8bd 81f0 	ldmia.w	sp!, {r4, r5, r6, r7, r8, pc}
 8002406:	1c73      	adds	r3, r6, #1
 8002408:	d0de      	beq.n	80023c8 <I2C_WaitOnMasterAddressFlagUntilTimeout+0xe>
 800240a:	f7ff fc9b 	bl	8001d44 <HAL_GetTick>
 800240e:	eba0 0008 	sub.w	r0, r0, r8
 8002412:	42b0      	cmp	r0, r6
 8002414:	d801      	bhi.n	800241a <I2C_WaitOnMasterAddressFlagUntilTimeout+0x60>
 8002416:	2e00      	cmp	r6, #0
 8002418:	d1d5      	bne.n	80023c6 <I2C_WaitOnMasterAddressFlagUntilTimeout+0xc>
 800241a:	2300      	movs	r3, #0
 800241c:	2220      	movs	r2, #32
 800241e:	6323      	str	r3, [r4, #48]	; 0x30
 8002420:	f884 203d 	strb.w	r2, [r4, #61]	; 0x3d
 8002424:	f884 303e 	strb.w	r3, [r4, #62]	; 0x3e
 8002428:	6c22      	ldr	r2, [r4, #64]	; 0x40
 800242a:	f042 0220 	orr.w	r2, r2, #32
 800242e:	e7e4      	b.n	80023fa <I2C_WaitOnMasterAddressFlagUntilTimeout+0x40>

08002430 <I2C_WaitOnRXNEFlagUntilTimeout>:
 8002430:	b570      	push	{r4, r5, r6, lr}
 8002432:	4604      	mov	r4, r0
 8002434:	460d      	mov	r5, r1
 8002436:	4616      	mov	r6, r2
 8002438:	6821      	ldr	r1, [r4, #0]
 800243a:	694b      	ldr	r3, [r1, #20]
 800243c:	f013 0340 	ands.w	r3, r3, #64	; 0x40
 8002440:	d001      	beq.n	8002446 <I2C_WaitOnRXNEFlagUntilTimeout+0x16>
 8002442:	2000      	movs	r0, #0
 8002444:	e010      	b.n	8002468 <I2C_WaitOnRXNEFlagUntilTimeout+0x38>
 8002446:	694a      	ldr	r2, [r1, #20]
 8002448:	06d2      	lsls	r2, r2, #27
 800244a:	d50e      	bpl.n	800246a <I2C_WaitOnRXNEFlagUntilTimeout+0x3a>
 800244c:	f06f 0210 	mvn.w	r2, #16
 8002450:	614a      	str	r2, [r1, #20]
 8002452:	2220      	movs	r2, #32
 8002454:	6323      	str	r3, [r4, #48]	; 0x30
 8002456:	f884 203d 	strb.w	r2, [r4, #61]	; 0x3d
 800245a:	f884 303e 	strb.w	r3, [r4, #62]	; 0x3e
 800245e:	6c22      	ldr	r2, [r4, #64]	; 0x40
 8002460:	2001      	movs	r0, #1
 8002462:	6422      	str	r2, [r4, #64]	; 0x40
 8002464:	f884 303c 	strb.w	r3, [r4, #60]	; 0x3c
 8002468:	bd70      	pop	{r4, r5, r6, pc}
 800246a:	f7ff fc6b 	bl	8001d44 <HAL_GetTick>
 800246e:	1b80      	subs	r0, r0, r6
 8002470:	42a8      	cmp	r0, r5
 8002472:	d801      	bhi.n	8002478 <I2C_WaitOnRXNEFlagUntilTimeout+0x48>
 8002474:	2d00      	cmp	r5, #0
 8002476:	d1df      	bne.n	8002438 <I2C_WaitOnRXNEFlagUntilTimeout+0x8>
 8002478:	2300      	movs	r3, #0
 800247a:	2220      	movs	r2, #32
 800247c:	6323      	str	r3, [r4, #48]	; 0x30
 800247e:	f884 203d 	strb.w	r2, [r4, #61]	; 0x3d
 8002482:	f884 303e 	strb.w	r3, [r4, #62]	; 0x3e
 8002486:	6c22      	ldr	r2, [r4, #64]	; 0x40
 8002488:	f042 0220 	orr.w	r2, r2, #32
 800248c:	e7e8      	b.n	8002460 <I2C_WaitOnRXNEFlagUntilTimeout+0x30>

0800248e <I2C_WaitOnBTFFlagUntilTimeout>:
 800248e:	b570      	push	{r4, r5, r6, lr}
 8002490:	4604      	mov	r4, r0
 8002492:	460d      	mov	r5, r1
 8002494:	4616      	mov	r6, r2
 8002496:	6823      	ldr	r3, [r4, #0]
 8002498:	695b      	ldr	r3, [r3, #20]
 800249a:	075b      	lsls	r3, r3, #29
 800249c:	d501      	bpl.n	80024a2 <I2C_WaitOnBTFFlagUntilTimeout+0x14>
 800249e:	2000      	movs	r0, #0
 80024a0:	bd70      	pop	{r4, r5, r6, pc}
 80024a2:	4620      	mov	r0, r4
 80024a4:	f7ff ff3e 	bl	8002324 <I2C_IsAcknowledgeFailed>
 80024a8:	b9a8      	cbnz	r0, 80024d6 <I2C_WaitOnBTFFlagUntilTimeout+0x48>
 80024aa:	1c6a      	adds	r2, r5, #1
 80024ac:	d0f3      	beq.n	8002496 <I2C_WaitOnBTFFlagUntilTimeout+0x8>
 80024ae:	f7ff fc49 	bl	8001d44 <HAL_GetTick>
 80024b2:	1b80      	subs	r0, r0, r6
 80024b4:	42a8      	cmp	r0, r5
 80024b6:	d801      	bhi.n	80024bc <I2C_WaitOnBTFFlagUntilTimeout+0x2e>
 80024b8:	2d00      	cmp	r5, #0
 80024ba:	d1ec      	bne.n	8002496 <I2C_WaitOnBTFFlagUntilTimeout+0x8>
 80024bc:	2300      	movs	r3, #0
 80024be:	2220      	movs	r2, #32
 80024c0:	6323      	str	r3, [r4, #48]	; 0x30
 80024c2:	f884 203d 	strb.w	r2, [r4, #61]	; 0x3d
 80024c6:	f884 303e 	strb.w	r3, [r4, #62]	; 0x3e
 80024ca:	6c22      	ldr	r2, [r4, #64]	; 0x40
 80024cc:	f884 303c 	strb.w	r3, [r4, #60]	; 0x3c
 80024d0:	f042 0220 	orr.w	r2, r2, #32
 80024d4:	6422      	str	r2, [r4, #64]	; 0x40
 80024d6:	2001      	movs	r0, #1
 80024d8:	e7e2      	b.n	80024a0 <I2C_WaitOnBTFFlagUntilTimeout+0x12>

080024da <I2C_WaitOnTXEFlagUntilTimeout>:
 80024da:	b570      	push	{r4, r5, r6, lr}
 80024dc:	4604      	mov	r4, r0
 80024de:	460d      	mov	r5, r1
 80024e0:	4616      	mov	r6, r2
 80024e2:	6823      	ldr	r3, [r4, #0]
 80024e4:	695b      	ldr	r3, [r3, #20]
 80024e6:	061b      	lsls	r3, r3, #24
 80024e8:	d501      	bpl.n	80024ee <I2C_WaitOnTXEFlagUntilTimeout+0x14>
 80024ea:	2000      	movs	r0, #0
 80024ec:	bd70      	pop	{r4, r5, r6, pc}
 80024ee:	4620      	mov	r0, r4
 80024f0:	f7ff ff18 	bl	8002324 <I2C_IsAcknowledgeFailed>
 80024f4:	b9a8      	cbnz	r0, 8002522 <I2C_WaitOnTXEFlagUntilTimeout+0x48>
 80024f6:	1c6a      	adds	r2, r5, #1
 80024f8:	d0f3      	beq.n	80024e2 <I2C_WaitOnTXEFlagUntilTimeout+0x8>
 80024fa:	f7ff fc23 	bl	8001d44 <HAL_GetTick>
 80024fe:	1b80      	subs	r0, r0, r6
 8002500:	42a8      	cmp	r0, r5
 8002502:	d801      	bhi.n	8002508 <I2C_WaitOnTXEFlagUntilTimeout+0x2e>
 8002504:	2d00      	cmp	r5, #0
 8002506:	d1ec      	bne.n	80024e2 <I2C_WaitOnTXEFlagUntilTimeout+0x8>
 8002508:	2300      	movs	r3, #0
 800250a:	2220      	movs	r2, #32
 800250c:	6323      	str	r3, [r4, #48]	; 0x30
 800250e:	f884 203d 	strb.w	r2, [r4, #61]	; 0x3d
 8002512:	f884 303e 	strb.w	r3, [r4, #62]	; 0x3e
 8002516:	6c22      	ldr	r2, [r4, #64]	; 0x40
 8002518:	f884 303c 	strb.w	r3, [r4, #60]	; 0x3c
 800251c:	f042 0220 	orr.w	r2, r2, #32
 8002520:	6422      	str	r2, [r4, #64]	; 0x40
 8002522:	2001      	movs	r0, #1
 8002524:	e7e2      	b.n	80024ec <I2C_WaitOnTXEFlagUntilTimeout+0x12>
	...

08002528 <HAL_I2C_Init>:
 8002528:	b570      	push	{r4, r5, r6, lr}
 800252a:	4604      	mov	r4, r0
 800252c:	b908      	cbnz	r0, 8002532 <HAL_I2C_Init+0xa>
 800252e:	2001      	movs	r0, #1
 8002530:	bd70      	pop	{r4, r5, r6, pc}
 8002532:	f890 303d 	ldrb.w	r3, [r0, #61]	; 0x3d
 8002536:	f003 02ff 	and.w	r2, r3, #255	; 0xff
 800253a:	b91b      	cbnz	r3, 8002544 <HAL_I2C_Init+0x1c>
 800253c:	f880 203c 	strb.w	r2, [r0, #60]	; 0x3c
 8002540:	f7ff fa7a 	bl	8001a38 <HAL_I2C_MspInit>
 8002544:	2324      	movs	r3, #36	; 0x24
 8002546:	f884 303d 	strb.w	r3, [r4, #61]	; 0x3d
 800254a:	6823      	ldr	r3, [r4, #0]
 800254c:	681a      	ldr	r2, [r3, #0]
 800254e:	f022 0201 	bic.w	r2, r2, #1
 8002552:	601a      	str	r2, [r3, #0]
 8002554:	681a      	ldr	r2, [r3, #0]
 8002556:	f442 4200 	orr.w	r2, r2, #32768	; 0x8000
 800255a:	601a      	str	r2, [r3, #0]
 800255c:	681a      	ldr	r2, [r3, #0]
 800255e:	f422 4200 	bic.w	r2, r2, #32768	; 0x8000
 8002562:	601a      	str	r2, [r3, #0]
 8002564:	f000 fd7c 	bl	8003060 <HAL_RCC_GetPCLK1Freq>
 8002568:	4a3f      	ldr	r2, [pc, #252]	; (8002668 <HAL_I2C_Init+0x140>)
 800256a:	6863      	ldr	r3, [r4, #4]
 800256c:	4293      	cmp	r3, r2
 800256e:	bf94      	ite	ls
 8002570:	4a3e      	ldrls	r2, [pc, #248]	; (800266c <HAL_I2C_Init+0x144>)
 8002572:	4a3f      	ldrhi	r2, [pc, #252]	; (8002670 <HAL_I2C_Init+0x148>)
 8002574:	4290      	cmp	r0, r2
 8002576:	bf8c      	ite	hi
 8002578:	2200      	movhi	r2, #0
 800257a:	2201      	movls	r2, #1
 800257c:	2a00      	cmp	r2, #0
 800257e:	d1d6      	bne.n	800252e <HAL_I2C_Init+0x6>
 8002580:	4e39      	ldr	r6, [pc, #228]	; (8002668 <HAL_I2C_Init+0x140>)
 8002582:	493c      	ldr	r1, [pc, #240]	; (8002674 <HAL_I2C_Init+0x14c>)
 8002584:	42b3      	cmp	r3, r6
 8002586:	fbb0 f1f1 	udiv	r1, r0, r1
 800258a:	bf88      	it	hi
 800258c:	f44f 7696 	movhi.w	r6, #300	; 0x12c
 8002590:	6822      	ldr	r2, [r4, #0]
 8002592:	f100 30ff 	add.w	r0, r0, #4294967295
 8002596:	6855      	ldr	r5, [r2, #4]
 8002598:	f025 053f 	bic.w	r5, r5, #63	; 0x3f
 800259c:	ea45 0501 	orr.w	r5, r5, r1
 80025a0:	bf82      	ittt	hi
 80025a2:	4371      	mulhi	r1, r6
 80025a4:	f44f 767a 	movhi.w	r6, #1000	; 0x3e8
 80025a8:	fbb1 f1f6 	udivhi	r1, r1, r6
 80025ac:	6055      	str	r5, [r2, #4]
 80025ae:	6a15      	ldr	r5, [r2, #32]
 80025b0:	3101      	adds	r1, #1
 80025b2:	f025 053f 	bic.w	r5, r5, #63	; 0x3f
 80025b6:	4329      	orrs	r1, r5
 80025b8:	6211      	str	r1, [r2, #32]
 80025ba:	69d1      	ldr	r1, [r2, #28]
 80025bc:	4d2a      	ldr	r5, [pc, #168]	; (8002668 <HAL_I2C_Init+0x140>)
 80025be:	f421 414f 	bic.w	r1, r1, #52992	; 0xcf00
 80025c2:	42ab      	cmp	r3, r5
 80025c4:	f021 01ff 	bic.w	r1, r1, #255	; 0xff
 80025c8:	d832      	bhi.n	8002630 <HAL_I2C_Init+0x108>
 80025ca:	005b      	lsls	r3, r3, #1
 80025cc:	fbb0 f0f3 	udiv	r0, r0, r3
 80025d0:	1c43      	adds	r3, r0, #1
 80025d2:	f640 70fc 	movw	r0, #4092	; 0xffc
 80025d6:	4203      	tst	r3, r0
 80025d8:	d042      	beq.n	8002660 <HAL_I2C_Init+0x138>
 80025da:	f3c3 030b 	ubfx	r3, r3, #0, #12
 80025de:	430b      	orrs	r3, r1
 80025e0:	61d3      	str	r3, [r2, #28]
 80025e2:	6811      	ldr	r1, [r2, #0]
 80025e4:	e9d4 3007 	ldrd	r3, r0, [r4, #28]
 80025e8:	f021 01c0 	bic.w	r1, r1, #192	; 0xc0
 80025ec:	4303      	orrs	r3, r0
 80025ee:	430b      	orrs	r3, r1
 80025f0:	6013      	str	r3, [r2, #0]
 80025f2:	6891      	ldr	r1, [r2, #8]
 80025f4:	e9d4 0303 	ldrd	r0, r3, [r4, #12]
 80025f8:	f421 4103 	bic.w	r1, r1, #33536	; 0x8300
 80025fc:	4303      	orrs	r3, r0
 80025fe:	f021 01ff 	bic.w	r1, r1, #255	; 0xff
 8002602:	430b      	orrs	r3, r1
 8002604:	6093      	str	r3, [r2, #8]
 8002606:	68d1      	ldr	r1, [r2, #12]
 8002608:	e9d4 3005 	ldrd	r3, r0, [r4, #20]
 800260c:	f021 01ff 	bic.w	r1, r1, #255	; 0xff
 8002610:	4303      	orrs	r3, r0
 8002612:	430b      	orrs	r3, r1
 8002614:	60d3      	str	r3, [r2, #12]
 8002616:	6813      	ldr	r3, [r2, #0]
 8002618:	2000      	movs	r0, #0
 800261a:	f043 0301 	orr.w	r3, r3, #1
 800261e:	6013      	str	r3, [r2, #0]
 8002620:	2320      	movs	r3, #32
 8002622:	6420      	str	r0, [r4, #64]	; 0x40
 8002624:	f884 303d 	strb.w	r3, [r4, #61]	; 0x3d
 8002628:	6320      	str	r0, [r4, #48]	; 0x30
 800262a:	f884 003e 	strb.w	r0, [r4, #62]	; 0x3e
 800262e:	e77f      	b.n	8002530 <HAL_I2C_Init+0x8>
 8002630:	68a5      	ldr	r5, [r4, #8]
 8002632:	b955      	cbnz	r5, 800264a <HAL_I2C_Init+0x122>
 8002634:	eb03 0343 	add.w	r3, r3, r3, lsl #1
 8002638:	fbb0 f3f3 	udiv	r3, r0, r3
 800263c:	3301      	adds	r3, #1
 800263e:	f3c3 030b 	ubfx	r3, r3, #0, #12
 8002642:	b17b      	cbz	r3, 8002664 <HAL_I2C_Init+0x13c>
 8002644:	f443 4300 	orr.w	r3, r3, #32768	; 0x8000
 8002648:	e7c9      	b.n	80025de <HAL_I2C_Init+0xb6>
 800264a:	2519      	movs	r5, #25
 800264c:	436b      	muls	r3, r5
 800264e:	fbb0 f3f3 	udiv	r3, r0, r3
 8002652:	3301      	adds	r3, #1
 8002654:	f3c3 030b 	ubfx	r3, r3, #0, #12
 8002658:	b123      	cbz	r3, 8002664 <HAL_I2C_Init+0x13c>
 800265a:	f443 4340 	orr.w	r3, r3, #49152	; 0xc000
 800265e:	e7be      	b.n	80025de <HAL_I2C_Init+0xb6>
 8002660:	2304      	movs	r3, #4
 8002662:	e7bc      	b.n	80025de <HAL_I2C_Init+0xb6>
 8002664:	2301      	movs	r3, #1
 8002666:	e7ba      	b.n	80025de <HAL_I2C_Init+0xb6>
 8002668:	000186a0 	.word	0x000186a0
 800266c:	001e847f 	.word	0x001e847f
 8002670:	003d08ff 	.word	0x003d08ff
 8002674:	000f4240 	.word	0x000f4240

08002678 <HAL_I2C_Master_Transmit>:
 8002678:	e92d 43f0 	stmdb	sp!, {r4, r5, r6, r7, r8, r9, lr}
 800267c:	4604      	mov	r4, r0
 800267e:	b085      	sub	sp, #20
 8002680:	4698      	mov	r8, r3
 8002682:	460d      	mov	r5, r1
 8002684:	4691      	mov	r9, r2
 8002686:	9f0c      	ldr	r7, [sp, #48]	; 0x30
 8002688:	f7ff fb5c 	bl	8001d44 <HAL_GetTick>
 800268c:	f894 303d 	ldrb.w	r3, [r4, #61]	; 0x3d
 8002690:	4606      	mov	r6, r0
 8002692:	2b20      	cmp	r3, #32
 8002694:	d004      	beq.n	80026a0 <HAL_I2C_Master_Transmit+0x28>
 8002696:	2502      	movs	r5, #2
 8002698:	4628      	mov	r0, r5
 800269a:	b005      	add	sp, #20
 800269c:	e8bd 83f0 	ldmia.w	sp!, {r4, r5, r6, r7, r8, r9, pc}
 80026a0:	9000      	str	r0, [sp, #0]
 80026a2:	2319      	movs	r3, #25
 80026a4:	2201      	movs	r2, #1
 80026a6:	4620      	mov	r0, r4
 80026a8:	495b      	ldr	r1, [pc, #364]	; (8002818 <HAL_I2C_Master_Transmit+0x1a0>)
 80026aa:	f7ff fe54 	bl	8002356 <I2C_WaitOnFlagUntilTimeout>
 80026ae:	2800      	cmp	r0, #0
 80026b0:	d1f1      	bne.n	8002696 <HAL_I2C_Master_Transmit+0x1e>
 80026b2:	f894 303c 	ldrb.w	r3, [r4, #60]	; 0x3c
 80026b6:	2b01      	cmp	r3, #1
 80026b8:	d0ed      	beq.n	8002696 <HAL_I2C_Master_Transmit+0x1e>
 80026ba:	2301      	movs	r3, #1
 80026bc:	6821      	ldr	r1, [r4, #0]
 80026be:	f884 303c 	strb.w	r3, [r4, #60]	; 0x3c
 80026c2:	680b      	ldr	r3, [r1, #0]
 80026c4:	07da      	lsls	r2, r3, #31
 80026c6:	bf5e      	ittt	pl
 80026c8:	680b      	ldrpl	r3, [r1, #0]
 80026ca:	f043 0301 	orrpl.w	r3, r3, #1
 80026ce:	600b      	strpl	r3, [r1, #0]
 80026d0:	680b      	ldr	r3, [r1, #0]
 80026d2:	f423 6300 	bic.w	r3, r3, #2048	; 0x800
 80026d6:	600b      	str	r3, [r1, #0]
 80026d8:	2321      	movs	r3, #33	; 0x21
 80026da:	f884 303d 	strb.w	r3, [r4, #61]	; 0x3d
 80026de:	2310      	movs	r3, #16
 80026e0:	f884 303e 	strb.w	r3, [r4, #62]	; 0x3e
 80026e4:	2300      	movs	r3, #0
 80026e6:	6423      	str	r3, [r4, #64]	; 0x40
 80026e8:	f8a4 802a 	strh.w	r8, [r4, #42]	; 0x2a
 80026ec:	8d63      	ldrh	r3, [r4, #42]	; 0x2a
 80026ee:	f8c4 9024 	str.w	r9, [r4, #36]	; 0x24
 80026f2:	8523      	strh	r3, [r4, #40]	; 0x28
 80026f4:	4b49      	ldr	r3, [pc, #292]	; (800281c <HAL_I2C_Master_Transmit+0x1a4>)
 80026f6:	62e3      	str	r3, [r4, #44]	; 0x2c
 80026f8:	6ae3      	ldr	r3, [r4, #44]	; 0x2c
 80026fa:	2b08      	cmp	r3, #8
 80026fc:	d004      	beq.n	8002708 <HAL_I2C_Master_Transmit+0x90>
 80026fe:	2b01      	cmp	r3, #1
 8002700:	d002      	beq.n	8002708 <HAL_I2C_Master_Transmit+0x90>
 8002702:	f513 3f80 	cmn.w	r3, #65536	; 0x10000
 8002706:	d104      	bne.n	8002712 <HAL_I2C_Master_Transmit+0x9a>
 8002708:	680b      	ldr	r3, [r1, #0]
 800270a:	f443 7380 	orr.w	r3, r3, #256	; 0x100
 800270e:	600b      	str	r3, [r1, #0]
 8002710:	e002      	b.n	8002718 <HAL_I2C_Master_Transmit+0xa0>
 8002712:	6b23      	ldr	r3, [r4, #48]	; 0x30
 8002714:	2b12      	cmp	r3, #18
 8002716:	d0f7      	beq.n	8002708 <HAL_I2C_Master_Transmit+0x90>
 8002718:	2200      	movs	r2, #0
 800271a:	463b      	mov	r3, r7
 800271c:	f04f 1101 	mov.w	r1, #65537	; 0x10001
 8002720:	4620      	mov	r0, r4
 8002722:	9600      	str	r6, [sp, #0]
 8002724:	f7ff fe17 	bl	8002356 <I2C_WaitOnFlagUntilTimeout>
 8002728:	6822      	ldr	r2, [r4, #0]
 800272a:	b138      	cbz	r0, 800273c <HAL_I2C_Master_Transmit+0xc4>
 800272c:	6813      	ldr	r3, [r2, #0]
 800272e:	05db      	lsls	r3, r3, #23
 8002730:	bf44      	itt	mi
 8002732:	f44f 7300 	movmi.w	r3, #512	; 0x200
 8002736:	6423      	strmi	r3, [r4, #64]	; 0x40
 8002738:	2501      	movs	r5, #1
 800273a:	e7ad      	b.n	8002698 <HAL_I2C_Master_Transmit+0x20>
 800273c:	6923      	ldr	r3, [r4, #16]
 800273e:	f5b3 4f80 	cmp.w	r3, #16384	; 0x4000
 8002742:	d121      	bne.n	8002788 <HAL_I2C_Master_Transmit+0x110>
 8002744:	f005 05fe 	and.w	r5, r5, #254	; 0xfe
 8002748:	6115      	str	r5, [r2, #16]
 800274a:	4633      	mov	r3, r6
 800274c:	463a      	mov	r2, r7
 800274e:	4620      	mov	r0, r4
 8002750:	4933      	ldr	r1, [pc, #204]	; (8002820 <HAL_I2C_Master_Transmit+0x1a8>)
 8002752:	f7ff fe32 	bl	80023ba <I2C_WaitOnMasterAddressFlagUntilTimeout>
 8002756:	4605      	mov	r5, r0
 8002758:	2800      	cmp	r0, #0
 800275a:	d1ed      	bne.n	8002738 <HAL_I2C_Master_Transmit+0xc0>
 800275c:	6823      	ldr	r3, [r4, #0]
 800275e:	9003      	str	r0, [sp, #12]
 8002760:	695a      	ldr	r2, [r3, #20]
 8002762:	9203      	str	r2, [sp, #12]
 8002764:	699b      	ldr	r3, [r3, #24]
 8002766:	9303      	str	r3, [sp, #12]
 8002768:	9b03      	ldr	r3, [sp, #12]
 800276a:	8d23      	ldrh	r3, [r4, #40]	; 0x28
 800276c:	b9f3      	cbnz	r3, 80027ac <HAL_I2C_Master_Transmit+0x134>
 800276e:	6821      	ldr	r1, [r4, #0]
 8002770:	680a      	ldr	r2, [r1, #0]
 8002772:	f442 7200 	orr.w	r2, r2, #512	; 0x200
 8002776:	600a      	str	r2, [r1, #0]
 8002778:	2220      	movs	r2, #32
 800277a:	f884 303c 	strb.w	r3, [r4, #60]	; 0x3c
 800277e:	f884 203d 	strb.w	r2, [r4, #61]	; 0x3d
 8002782:	f884 303e 	strb.w	r3, [r4, #62]	; 0x3e
 8002786:	e787      	b.n	8002698 <HAL_I2C_Master_Transmit+0x20>
 8002788:	11eb      	asrs	r3, r5, #7
 800278a:	f003 0306 	and.w	r3, r3, #6
 800278e:	f043 03f0 	orr.w	r3, r3, #240	; 0xf0
 8002792:	6113      	str	r3, [r2, #16]
 8002794:	4620      	mov	r0, r4
 8002796:	4633      	mov	r3, r6
 8002798:	463a      	mov	r2, r7
 800279a:	4922      	ldr	r1, [pc, #136]	; (8002824 <HAL_I2C_Master_Transmit+0x1ac>)
 800279c:	f7ff fe0d 	bl	80023ba <I2C_WaitOnMasterAddressFlagUntilTimeout>
 80027a0:	2800      	cmp	r0, #0
 80027a2:	d1c9      	bne.n	8002738 <HAL_I2C_Master_Transmit+0xc0>
 80027a4:	6823      	ldr	r3, [r4, #0]
 80027a6:	b2ed      	uxtb	r5, r5
 80027a8:	611d      	str	r5, [r3, #16]
 80027aa:	e7ce      	b.n	800274a <HAL_I2C_Master_Transmit+0xd2>
 80027ac:	4632      	mov	r2, r6
 80027ae:	4639      	mov	r1, r7
 80027b0:	4620      	mov	r0, r4
 80027b2:	f7ff fe92 	bl	80024da <I2C_WaitOnTXEFlagUntilTimeout>
 80027b6:	b140      	cbz	r0, 80027ca <HAL_I2C_Master_Transmit+0x152>
 80027b8:	6c23      	ldr	r3, [r4, #64]	; 0x40
 80027ba:	2b04      	cmp	r3, #4
 80027bc:	d1bc      	bne.n	8002738 <HAL_I2C_Master_Transmit+0xc0>
 80027be:	6822      	ldr	r2, [r4, #0]
 80027c0:	6813      	ldr	r3, [r2, #0]
 80027c2:	f443 7300 	orr.w	r3, r3, #512	; 0x200
 80027c6:	6013      	str	r3, [r2, #0]
 80027c8:	e7b6      	b.n	8002738 <HAL_I2C_Master_Transmit+0xc0>
 80027ca:	6a63      	ldr	r3, [r4, #36]	; 0x24
 80027cc:	6820      	ldr	r0, [r4, #0]
 80027ce:	461a      	mov	r2, r3
 80027d0:	f812 1b01 	ldrb.w	r1, [r2], #1
 80027d4:	6101      	str	r1, [r0, #16]
 80027d6:	6262      	str	r2, [r4, #36]	; 0x24
 80027d8:	8d62      	ldrh	r2, [r4, #42]	; 0x2a
 80027da:	3a01      	subs	r2, #1
 80027dc:	b292      	uxth	r2, r2
 80027de:	8562      	strh	r2, [r4, #42]	; 0x2a
 80027e0:	8d22      	ldrh	r2, [r4, #40]	; 0x28
 80027e2:	f8d0 c014 	ldr.w	ip, [r0, #20]
 80027e6:	1e51      	subs	r1, r2, #1
 80027e8:	b289      	uxth	r1, r1
 80027ea:	f01c 0f04 	tst.w	ip, #4
 80027ee:	8521      	strh	r1, [r4, #40]	; 0x28
 80027f0:	d00a      	beq.n	8002808 <HAL_I2C_Master_Transmit+0x190>
 80027f2:	b149      	cbz	r1, 8002808 <HAL_I2C_Master_Transmit+0x190>
 80027f4:	7859      	ldrb	r1, [r3, #1]
 80027f6:	3302      	adds	r3, #2
 80027f8:	6101      	str	r1, [r0, #16]
 80027fa:	6263      	str	r3, [r4, #36]	; 0x24
 80027fc:	8d63      	ldrh	r3, [r4, #42]	; 0x2a
 80027fe:	3a02      	subs	r2, #2
 8002800:	3b01      	subs	r3, #1
 8002802:	b29b      	uxth	r3, r3
 8002804:	8563      	strh	r3, [r4, #42]	; 0x2a
 8002806:	8522      	strh	r2, [r4, #40]	; 0x28
 8002808:	4632      	mov	r2, r6
 800280a:	4639      	mov	r1, r7
 800280c:	4620      	mov	r0, r4
 800280e:	f7ff fe3e 	bl	800248e <I2C_WaitOnBTFFlagUntilTimeout>
 8002812:	2800      	cmp	r0, #0
 8002814:	d0a9      	beq.n	800276a <HAL_I2C_Master_Transmit+0xf2>
 8002816:	e7cf      	b.n	80027b8 <HAL_I2C_Master_Transmit+0x140>
 8002818:	00100002 	.word	0x00100002
 800281c:	ffff0000 	.word	0xffff0000
 8002820:	00010002 	.word	0x00010002
 8002824:	00010008 	.word	0x00010008

08002828 <HAL_I2C_Master_Receive>:
 8002828:	e92d 43f0 	stmdb	sp!, {r4, r5, r6, r7, r8, r9, lr}
 800282c:	4698      	mov	r8, r3
 800282e:	2300      	movs	r3, #0
 8002830:	4604      	mov	r4, r0
 8002832:	b089      	sub	sp, #36	; 0x24
 8002834:	9302      	str	r3, [sp, #8]
 8002836:	460d      	mov	r5, r1
 8002838:	4691      	mov	r9, r2
 800283a:	9f10      	ldr	r7, [sp, #64]	; 0x40
 800283c:	f7ff fa82 	bl	8001d44 <HAL_GetTick>
 8002840:	f894 303d 	ldrb.w	r3, [r4, #61]	; 0x3d
 8002844:	4606      	mov	r6, r0
 8002846:	2b20      	cmp	r3, #32
 8002848:	d004      	beq.n	8002854 <HAL_I2C_Master_Receive+0x2c>
 800284a:	2502      	movs	r5, #2
 800284c:	4628      	mov	r0, r5
 800284e:	b009      	add	sp, #36	; 0x24
 8002850:	e8bd 83f0 	ldmia.w	sp!, {r4, r5, r6, r7, r8, r9, pc}
 8002854:	9000      	str	r0, [sp, #0]
 8002856:	2319      	movs	r3, #25
 8002858:	2201      	movs	r2, #1
 800285a:	4620      	mov	r0, r4
 800285c:	498f      	ldr	r1, [pc, #572]	; (8002a9c <HAL_I2C_Master_Receive+0x274>)
 800285e:	f7ff fd7a 	bl	8002356 <I2C_WaitOnFlagUntilTimeout>
 8002862:	2800      	cmp	r0, #0
 8002864:	d1f1      	bne.n	800284a <HAL_I2C_Master_Receive+0x22>
 8002866:	f894 303c 	ldrb.w	r3, [r4, #60]	; 0x3c
 800286a:	2b01      	cmp	r3, #1
 800286c:	d0ed      	beq.n	800284a <HAL_I2C_Master_Receive+0x22>
 800286e:	2301      	movs	r3, #1
 8002870:	6821      	ldr	r1, [r4, #0]
 8002872:	f884 303c 	strb.w	r3, [r4, #60]	; 0x3c
 8002876:	680b      	ldr	r3, [r1, #0]
 8002878:	07db      	lsls	r3, r3, #31
 800287a:	bf5e      	ittt	pl
 800287c:	680b      	ldrpl	r3, [r1, #0]
 800287e:	f043 0301 	orrpl.w	r3, r3, #1
 8002882:	600b      	strpl	r3, [r1, #0]
 8002884:	680b      	ldr	r3, [r1, #0]
 8002886:	f423 6300 	bic.w	r3, r3, #2048	; 0x800
 800288a:	600b      	str	r3, [r1, #0]
 800288c:	2322      	movs	r3, #34	; 0x22
 800288e:	f884 303d 	strb.w	r3, [r4, #61]	; 0x3d
 8002892:	2310      	movs	r3, #16
 8002894:	f884 303e 	strb.w	r3, [r4, #62]	; 0x3e
 8002898:	2300      	movs	r3, #0
 800289a:	6423      	str	r3, [r4, #64]	; 0x40
 800289c:	f8a4 802a 	strh.w	r8, [r4, #42]	; 0x2a
 80028a0:	8d63      	ldrh	r3, [r4, #42]	; 0x2a
 80028a2:	f8c4 9024 	str.w	r9, [r4, #36]	; 0x24
 80028a6:	8523      	strh	r3, [r4, #40]	; 0x28
 80028a8:	4b7d      	ldr	r3, [pc, #500]	; (8002aa0 <HAL_I2C_Master_Receive+0x278>)
 80028aa:	62e3      	str	r3, [r4, #44]	; 0x2c
 80028ac:	6ae3      	ldr	r3, [r4, #44]	; 0x2c
 80028ae:	680a      	ldr	r2, [r1, #0]
 80028b0:	2b08      	cmp	r3, #8
 80028b2:	f442 6280 	orr.w	r2, r2, #1024	; 0x400
 80028b6:	600a      	str	r2, [r1, #0]
 80028b8:	d004      	beq.n	80028c4 <HAL_I2C_Master_Receive+0x9c>
 80028ba:	2b01      	cmp	r3, #1
 80028bc:	d002      	beq.n	80028c4 <HAL_I2C_Master_Receive+0x9c>
 80028be:	f513 3f80 	cmn.w	r3, #65536	; 0x10000
 80028c2:	d104      	bne.n	80028ce <HAL_I2C_Master_Receive+0xa6>
 80028c4:	680b      	ldr	r3, [r1, #0]
 80028c6:	f443 7380 	orr.w	r3, r3, #256	; 0x100
 80028ca:	600b      	str	r3, [r1, #0]
 80028cc:	e002      	b.n	80028d4 <HAL_I2C_Master_Receive+0xac>
 80028ce:	6b23      	ldr	r3, [r4, #48]	; 0x30
 80028d0:	2b11      	cmp	r3, #17
 80028d2:	d0f7      	beq.n	80028c4 <HAL_I2C_Master_Receive+0x9c>
 80028d4:	463b      	mov	r3, r7
 80028d6:	2200      	movs	r2, #0
 80028d8:	f04f 1101 	mov.w	r1, #65537	; 0x10001
 80028dc:	4620      	mov	r0, r4
 80028de:	9600      	str	r6, [sp, #0]
 80028e0:	f7ff fd39 	bl	8002356 <I2C_WaitOnFlagUntilTimeout>
 80028e4:	6823      	ldr	r3, [r4, #0]
 80028e6:	b138      	cbz	r0, 80028f8 <HAL_I2C_Master_Receive+0xd0>
 80028e8:	681b      	ldr	r3, [r3, #0]
 80028ea:	05dd      	lsls	r5, r3, #23
 80028ec:	d502      	bpl.n	80028f4 <HAL_I2C_Master_Receive+0xcc>
 80028ee:	f44f 7300 	mov.w	r3, #512	; 0x200
 80028f2:	6423      	str	r3, [r4, #64]	; 0x40
 80028f4:	2501      	movs	r5, #1
 80028f6:	e7a9      	b.n	800284c <HAL_I2C_Master_Receive+0x24>
 80028f8:	6922      	ldr	r2, [r4, #16]
 80028fa:	f5b2 4f80 	cmp.w	r2, #16384	; 0x4000
 80028fe:	d129      	bne.n	8002954 <HAL_I2C_Master_Receive+0x12c>
 8002900:	f045 0501 	orr.w	r5, r5, #1
 8002904:	b2ed      	uxtb	r5, r5
 8002906:	611d      	str	r5, [r3, #16]
 8002908:	4633      	mov	r3, r6
 800290a:	463a      	mov	r2, r7
 800290c:	4620      	mov	r0, r4
 800290e:	4965      	ldr	r1, [pc, #404]	; (8002aa4 <HAL_I2C_Master_Receive+0x27c>)
 8002910:	f7ff fd53 	bl	80023ba <I2C_WaitOnMasterAddressFlagUntilTimeout>
 8002914:	4605      	mov	r5, r0
 8002916:	2800      	cmp	r0, #0
 8002918:	d1ec      	bne.n	80028f4 <HAL_I2C_Master_Receive+0xcc>
 800291a:	8d22      	ldrh	r2, [r4, #40]	; 0x28
 800291c:	6823      	ldr	r3, [r4, #0]
 800291e:	2a00      	cmp	r2, #0
 8002920:	d14d      	bne.n	80029be <HAL_I2C_Master_Receive+0x196>
 8002922:	9003      	str	r0, [sp, #12]
 8002924:	695a      	ldr	r2, [r3, #20]
 8002926:	9203      	str	r2, [sp, #12]
 8002928:	699a      	ldr	r2, [r3, #24]
 800292a:	9203      	str	r2, [sp, #12]
 800292c:	9a03      	ldr	r2, [sp, #12]
 800292e:	681a      	ldr	r2, [r3, #0]
 8002930:	f442 7200 	orr.w	r2, r2, #512	; 0x200
 8002934:	601a      	str	r2, [r3, #0]
 8002936:	f8df 8170 	ldr.w	r8, [pc, #368]	; 8002aa8 <HAL_I2C_Master_Receive+0x280>
 800293a:	f8df 9170 	ldr.w	r9, [pc, #368]	; 8002aac <HAL_I2C_Master_Receive+0x284>
 800293e:	8d23      	ldrh	r3, [r4, #40]	; 0x28
 8002940:	2b00      	cmp	r3, #0
 8002942:	d16c      	bne.n	8002a1e <HAL_I2C_Master_Receive+0x1f6>
 8002944:	2220      	movs	r2, #32
 8002946:	f884 303c 	strb.w	r3, [r4, #60]	; 0x3c
 800294a:	f884 203d 	strb.w	r2, [r4, #61]	; 0x3d
 800294e:	f884 303e 	strb.w	r3, [r4, #62]	; 0x3e
 8002952:	e77b      	b.n	800284c <HAL_I2C_Master_Receive+0x24>
 8002954:	ea4f 18e5 	mov.w	r8, r5, asr #7
 8002958:	f008 0806 	and.w	r8, r8, #6
 800295c:	f048 02f0 	orr.w	r2, r8, #240	; 0xf0
 8002960:	611a      	str	r2, [r3, #16]
 8002962:	4620      	mov	r0, r4
 8002964:	4633      	mov	r3, r6
 8002966:	463a      	mov	r2, r7
 8002968:	4951      	ldr	r1, [pc, #324]	; (8002ab0 <HAL_I2C_Master_Receive+0x288>)
 800296a:	f7ff fd26 	bl	80023ba <I2C_WaitOnMasterAddressFlagUntilTimeout>
 800296e:	2800      	cmp	r0, #0
 8002970:	d1c0      	bne.n	80028f4 <HAL_I2C_Master_Receive+0xcc>
 8002972:	6823      	ldr	r3, [r4, #0]
 8002974:	b2ed      	uxtb	r5, r5
 8002976:	463a      	mov	r2, r7
 8002978:	611d      	str	r5, [r3, #16]
 800297a:	4620      	mov	r0, r4
 800297c:	4633      	mov	r3, r6
 800297e:	4949      	ldr	r1, [pc, #292]	; (8002aa4 <HAL_I2C_Master_Receive+0x27c>)
 8002980:	f7ff fd1b 	bl	80023ba <I2C_WaitOnMasterAddressFlagUntilTimeout>
 8002984:	4602      	mov	r2, r0
 8002986:	2800      	cmp	r0, #0
 8002988:	d1b4      	bne.n	80028f4 <HAL_I2C_Master_Receive+0xcc>
 800298a:	6823      	ldr	r3, [r4, #0]
 800298c:	9007      	str	r0, [sp, #28]
 800298e:	6959      	ldr	r1, [r3, #20]
 8002990:	4620      	mov	r0, r4
 8002992:	9107      	str	r1, [sp, #28]
 8002994:	6999      	ldr	r1, [r3, #24]
 8002996:	9107      	str	r1, [sp, #28]
 8002998:	9907      	ldr	r1, [sp, #28]
 800299a:	6819      	ldr	r1, [r3, #0]
 800299c:	f441 7180 	orr.w	r1, r1, #256	; 0x100
 80029a0:	6019      	str	r1, [r3, #0]
 80029a2:	463b      	mov	r3, r7
 80029a4:	f04f 1101 	mov.w	r1, #65537	; 0x10001
 80029a8:	9600      	str	r6, [sp, #0]
 80029aa:	f7ff fcd4 	bl	8002356 <I2C_WaitOnFlagUntilTimeout>
 80029ae:	6822      	ldr	r2, [r4, #0]
 80029b0:	b108      	cbz	r0, 80029b6 <HAL_I2C_Master_Receive+0x18e>
 80029b2:	6813      	ldr	r3, [r2, #0]
 80029b4:	e799      	b.n	80028ea <HAL_I2C_Master_Receive+0xc2>
 80029b6:	f048 03f1 	orr.w	r3, r8, #241	; 0xf1
 80029ba:	6113      	str	r3, [r2, #16]
 80029bc:	e7a4      	b.n	8002908 <HAL_I2C_Master_Receive+0xe0>
 80029be:	2a01      	cmp	r2, #1
 80029c0:	d111      	bne.n	80029e6 <HAL_I2C_Master_Receive+0x1be>
 80029c2:	681a      	ldr	r2, [r3, #0]
 80029c4:	f422 6280 	bic.w	r2, r2, #1024	; 0x400
 80029c8:	601a      	str	r2, [r3, #0]
 80029ca:	b672      	cpsid	i
 80029cc:	6823      	ldr	r3, [r4, #0]
 80029ce:	9004      	str	r0, [sp, #16]
 80029d0:	695a      	ldr	r2, [r3, #20]
 80029d2:	9204      	str	r2, [sp, #16]
 80029d4:	699a      	ldr	r2, [r3, #24]
 80029d6:	9204      	str	r2, [sp, #16]
 80029d8:	9a04      	ldr	r2, [sp, #16]
 80029da:	681a      	ldr	r2, [r3, #0]
 80029dc:	f442 7200 	orr.w	r2, r2, #512	; 0x200
 80029e0:	601a      	str	r2, [r3, #0]
 80029e2:	b662      	cpsie	i
 80029e4:	e7a7      	b.n	8002936 <HAL_I2C_Master_Receive+0x10e>
 80029e6:	2a02      	cmp	r2, #2
 80029e8:	681a      	ldr	r2, [r3, #0]
 80029ea:	d10e      	bne.n	8002a0a <HAL_I2C_Master_Receive+0x1e2>
 80029ec:	f442 6200 	orr.w	r2, r2, #2048	; 0x800
 80029f0:	601a      	str	r2, [r3, #0]
 80029f2:	b672      	cpsid	i
 80029f4:	6823      	ldr	r3, [r4, #0]
 80029f6:	9005      	str	r0, [sp, #20]
 80029f8:	695a      	ldr	r2, [r3, #20]
 80029fa:	9205      	str	r2, [sp, #20]
 80029fc:	699a      	ldr	r2, [r3, #24]
 80029fe:	9205      	str	r2, [sp, #20]
 8002a00:	9a05      	ldr	r2, [sp, #20]
 8002a02:	681a      	ldr	r2, [r3, #0]
 8002a04:	f422 6280 	bic.w	r2, r2, #1024	; 0x400
 8002a08:	e7ea      	b.n	80029e0 <HAL_I2C_Master_Receive+0x1b8>
 8002a0a:	f442 6280 	orr.w	r2, r2, #1024	; 0x400
 8002a0e:	601a      	str	r2, [r3, #0]
 8002a10:	9006      	str	r0, [sp, #24]
 8002a12:	695a      	ldr	r2, [r3, #20]
 8002a14:	9206      	str	r2, [sp, #24]
 8002a16:	699b      	ldr	r3, [r3, #24]
 8002a18:	9306      	str	r3, [sp, #24]
 8002a1a:	9b06      	ldr	r3, [sp, #24]
 8002a1c:	e78b      	b.n	8002936 <HAL_I2C_Master_Receive+0x10e>
 8002a1e:	2b03      	cmp	r3, #3
 8002a20:	f200 8088 	bhi.w	8002b34 <HAL_I2C_Master_Receive+0x30c>
 8002a24:	2b01      	cmp	r3, #1
 8002a26:	d116      	bne.n	8002a56 <HAL_I2C_Master_Receive+0x22e>
 8002a28:	4632      	mov	r2, r6
 8002a2a:	4639      	mov	r1, r7
 8002a2c:	4620      	mov	r0, r4
 8002a2e:	f7ff fcff 	bl	8002430 <I2C_WaitOnRXNEFlagUntilTimeout>
 8002a32:	2800      	cmp	r0, #0
 8002a34:	f47f af5e 	bne.w	80028f4 <HAL_I2C_Master_Receive+0xcc>
 8002a38:	6823      	ldr	r3, [r4, #0]
 8002a3a:	691a      	ldr	r2, [r3, #16]
 8002a3c:	6a63      	ldr	r3, [r4, #36]	; 0x24
 8002a3e:	701a      	strb	r2, [r3, #0]
 8002a40:	6a63      	ldr	r3, [r4, #36]	; 0x24
 8002a42:	3301      	adds	r3, #1
 8002a44:	6263      	str	r3, [r4, #36]	; 0x24
 8002a46:	8d23      	ldrh	r3, [r4, #40]	; 0x28
 8002a48:	3b01      	subs	r3, #1
 8002a4a:	8523      	strh	r3, [r4, #40]	; 0x28
 8002a4c:	8d63      	ldrh	r3, [r4, #42]	; 0x2a
 8002a4e:	3b01      	subs	r3, #1
 8002a50:	b29b      	uxth	r3, r3
 8002a52:	8563      	strh	r3, [r4, #42]	; 0x2a
 8002a54:	e773      	b.n	800293e <HAL_I2C_Master_Receive+0x116>
 8002a56:	2b02      	cmp	r3, #2
 8002a58:	f04f 0200 	mov.w	r2, #0
 8002a5c:	463b      	mov	r3, r7
 8002a5e:	4641      	mov	r1, r8
 8002a60:	4620      	mov	r0, r4
 8002a62:	9600      	str	r6, [sp, #0]
 8002a64:	d126      	bne.n	8002ab4 <HAL_I2C_Master_Receive+0x28c>
 8002a66:	f7ff fc76 	bl	8002356 <I2C_WaitOnFlagUntilTimeout>
 8002a6a:	2800      	cmp	r0, #0
 8002a6c:	f47f af42 	bne.w	80028f4 <HAL_I2C_Master_Receive+0xcc>
 8002a70:	b672      	cpsid	i
 8002a72:	6823      	ldr	r3, [r4, #0]
 8002a74:	681a      	ldr	r2, [r3, #0]
 8002a76:	f442 7200 	orr.w	r2, r2, #512	; 0x200
 8002a7a:	601a      	str	r2, [r3, #0]
 8002a7c:	691a      	ldr	r2, [r3, #16]
 8002a7e:	6a63      	ldr	r3, [r4, #36]	; 0x24
 8002a80:	701a      	strb	r2, [r3, #0]
 8002a82:	6a63      	ldr	r3, [r4, #36]	; 0x24
 8002a84:	3301      	adds	r3, #1
 8002a86:	6263      	str	r3, [r4, #36]	; 0x24
 8002a88:	8d23      	ldrh	r3, [r4, #40]	; 0x28
 8002a8a:	3b01      	subs	r3, #1
 8002a8c:	8523      	strh	r3, [r4, #40]	; 0x28
 8002a8e:	8d63      	ldrh	r3, [r4, #42]	; 0x2a
 8002a90:	3b01      	subs	r3, #1
 8002a92:	b29b      	uxth	r3, r3
 8002a94:	8563      	strh	r3, [r4, #42]	; 0x2a
 8002a96:	b662      	cpsie	i
 8002a98:	e7ce      	b.n	8002a38 <HAL_I2C_Master_Receive+0x210>
 8002a9a:	bf00      	nop
 8002a9c:	00100002 	.word	0x00100002
 8002aa0:	ffff0000 	.word	0xffff0000
 8002aa4:	00010002 	.word	0x00010002
 8002aa8:	00010004 	.word	0x00010004
 8002aac:	20000000 	.word	0x20000000
 8002ab0:	00010008 	.word	0x00010008
 8002ab4:	f7ff fc4f 	bl	8002356 <I2C_WaitOnFlagUntilTimeout>
 8002ab8:	2800      	cmp	r0, #0
 8002aba:	f47f af1b 	bne.w	80028f4 <HAL_I2C_Master_Receive+0xcc>
 8002abe:	6822      	ldr	r2, [r4, #0]
 8002ac0:	6813      	ldr	r3, [r2, #0]
 8002ac2:	f423 6380 	bic.w	r3, r3, #1024	; 0x400
 8002ac6:	6013      	str	r3, [r2, #0]
 8002ac8:	b672      	cpsid	i
 8002aca:	f246 11a8 	movw	r1, #25000	; 0x61a8
 8002ace:	6823      	ldr	r3, [r4, #0]
 8002ad0:	691a      	ldr	r2, [r3, #16]
 8002ad2:	6a63      	ldr	r3, [r4, #36]	; 0x24
 8002ad4:	701a      	strb	r2, [r3, #0]
 8002ad6:	6a62      	ldr	r2, [r4, #36]	; 0x24
 8002ad8:	1c53      	adds	r3, r2, #1
 8002ada:	6263      	str	r3, [r4, #36]	; 0x24
 8002adc:	8d23      	ldrh	r3, [r4, #40]	; 0x28
 8002ade:	3b01      	subs	r3, #1
 8002ae0:	8523      	strh	r3, [r4, #40]	; 0x28
 8002ae2:	8d63      	ldrh	r3, [r4, #42]	; 0x2a
 8002ae4:	3b01      	subs	r3, #1
 8002ae6:	b29b      	uxth	r3, r3
 8002ae8:	8563      	strh	r3, [r4, #42]	; 0x2a
 8002aea:	f8d9 3000 	ldr.w	r3, [r9]
 8002aee:	fbb3 f3f1 	udiv	r3, r3, r1
 8002af2:	2123      	movs	r1, #35	; 0x23
 8002af4:	434b      	muls	r3, r1
 8002af6:	9302      	str	r3, [sp, #8]
 8002af8:	9b02      	ldr	r3, [sp, #8]
 8002afa:	3b01      	subs	r3, #1
 8002afc:	9302      	str	r3, [sp, #8]
 8002afe:	9b02      	ldr	r3, [sp, #8]
 8002b00:	b96b      	cbnz	r3, 8002b1e <HAL_I2C_Master_Receive+0x2f6>
 8002b02:	2220      	movs	r2, #32
 8002b04:	6323      	str	r3, [r4, #48]	; 0x30
 8002b06:	f884 203d 	strb.w	r2, [r4, #61]	; 0x3d
 8002b0a:	f884 303e 	strb.w	r3, [r4, #62]	; 0x3e
 8002b0e:	6c22      	ldr	r2, [r4, #64]	; 0x40
 8002b10:	f042 0220 	orr.w	r2, r2, #32
 8002b14:	6422      	str	r2, [r4, #64]	; 0x40
 8002b16:	b662      	cpsie	i
 8002b18:	f884 303c 	strb.w	r3, [r4, #60]	; 0x3c
 8002b1c:	e6ea      	b.n	80028f4 <HAL_I2C_Master_Receive+0xcc>
 8002b1e:	6823      	ldr	r3, [r4, #0]
 8002b20:	6959      	ldr	r1, [r3, #20]
 8002b22:	0748      	lsls	r0, r1, #29
 8002b24:	d5e8      	bpl.n	8002af8 <HAL_I2C_Master_Receive+0x2d0>
 8002b26:	6819      	ldr	r1, [r3, #0]
 8002b28:	f441 7100 	orr.w	r1, r1, #512	; 0x200
 8002b2c:	6019      	str	r1, [r3, #0]
 8002b2e:	691b      	ldr	r3, [r3, #16]
 8002b30:	7053      	strb	r3, [r2, #1]
 8002b32:	e7a6      	b.n	8002a82 <HAL_I2C_Master_Receive+0x25a>
 8002b34:	4632      	mov	r2, r6
 8002b36:	4639      	mov	r1, r7
 8002b38:	4620      	mov	r0, r4
 8002b3a:	f7ff fc79 	bl	8002430 <I2C_WaitOnRXNEFlagUntilTimeout>
 8002b3e:	2800      	cmp	r0, #0
 8002b40:	f47f aed8 	bne.w	80028f4 <HAL_I2C_Master_Receive+0xcc>
 8002b44:	6823      	ldr	r3, [r4, #0]
 8002b46:	691a      	ldr	r2, [r3, #16]
 8002b48:	6a63      	ldr	r3, [r4, #36]	; 0x24
 8002b4a:	701a      	strb	r2, [r3, #0]
 8002b4c:	6a62      	ldr	r2, [r4, #36]	; 0x24
 8002b4e:	1c53      	adds	r3, r2, #1
 8002b50:	6263      	str	r3, [r4, #36]	; 0x24
 8002b52:	8d23      	ldrh	r3, [r4, #40]	; 0x28
 8002b54:	3b01      	subs	r3, #1
 8002b56:	8523      	strh	r3, [r4, #40]	; 0x28
 8002b58:	8d63      	ldrh	r3, [r4, #42]	; 0x2a
 8002b5a:	3b01      	subs	r3, #1
 8002b5c:	b29b      	uxth	r3, r3
 8002b5e:	8563      	strh	r3, [r4, #42]	; 0x2a
 8002b60:	6823      	ldr	r3, [r4, #0]
 8002b62:	6959      	ldr	r1, [r3, #20]
 8002b64:	0749      	lsls	r1, r1, #29
 8002b66:	f57f aeea 	bpl.w	800293e <HAL_I2C_Master_Receive+0x116>
 8002b6a:	691b      	ldr	r3, [r3, #16]
 8002b6c:	7053      	strb	r3, [r2, #1]
 8002b6e:	e767      	b.n	8002a40 <HAL_I2C_Master_Receive+0x218>

08002b70 <HAL_I2C_GetState>:
 8002b70:	f890 003d 	ldrb.w	r0, [r0, #61]	; 0x3d
 8002b74:	4770      	bx	lr

08002b76 <HAL_I2C_GetError>:
 8002b76:	6c00      	ldr	r0, [r0, #64]	; 0x40
 8002b78:	4770      	bx	lr
	...

08002b7c <HAL_RCC_OscConfig>:
 8002b7c:	e92d 41f3 	stmdb	sp!, {r0, r1, r4, r5, r6, r7, r8, lr}
 8002b80:	4605      	mov	r5, r0
 8002b82:	b338      	cbz	r0, 8002bd4 <HAL_RCC_OscConfig+0x58>
 8002b84:	6803      	ldr	r3, [r0, #0]
 8002b86:	07db      	lsls	r3, r3, #31
 8002b88:	d410      	bmi.n	8002bac <HAL_RCC_OscConfig+0x30>
 8002b8a:	682b      	ldr	r3, [r5, #0]
 8002b8c:	079f      	lsls	r7, r3, #30
 8002b8e:	d45e      	bmi.n	8002c4e <HAL_RCC_OscConfig+0xd2>
 8002b90:	682b      	ldr	r3, [r5, #0]
 8002b92:	0719      	lsls	r1, r3, #28
 8002b94:	f100 8095 	bmi.w	8002cc2 <HAL_RCC_OscConfig+0x146>
 8002b98:	682b      	ldr	r3, [r5, #0]
 8002b9a:	075a      	lsls	r2, r3, #29
 8002b9c:	f100 80c1 	bmi.w	8002d22 <HAL_RCC_OscConfig+0x1a6>
 8002ba0:	69e8      	ldr	r0, [r5, #28]
 8002ba2:	2800      	cmp	r0, #0
 8002ba4:	f040 812c 	bne.w	8002e00 <HAL_RCC_OscConfig+0x284>
 8002ba8:	2000      	movs	r0, #0
 8002baa:	e029      	b.n	8002c00 <HAL_RCC_OscConfig+0x84>
 8002bac:	4c90      	ldr	r4, [pc, #576]	; (8002df0 <HAL_RCC_OscConfig+0x274>)
 8002bae:	6863      	ldr	r3, [r4, #4]
 8002bb0:	f003 030c 	and.w	r3, r3, #12
 8002bb4:	2b04      	cmp	r3, #4
 8002bb6:	d007      	beq.n	8002bc8 <HAL_RCC_OscConfig+0x4c>
 8002bb8:	6863      	ldr	r3, [r4, #4]
 8002bba:	f003 030c 	and.w	r3, r3, #12
 8002bbe:	2b08      	cmp	r3, #8
 8002bc0:	d10a      	bne.n	8002bd8 <HAL_RCC_OscConfig+0x5c>
 8002bc2:	6863      	ldr	r3, [r4, #4]
 8002bc4:	03de      	lsls	r6, r3, #15
 8002bc6:	d507      	bpl.n	8002bd8 <HAL_RCC_OscConfig+0x5c>
 8002bc8:	6823      	ldr	r3, [r4, #0]
 8002bca:	039c      	lsls	r4, r3, #14
 8002bcc:	d5dd      	bpl.n	8002b8a <HAL_RCC_OscConfig+0xe>
 8002bce:	686b      	ldr	r3, [r5, #4]
 8002bd0:	2b00      	cmp	r3, #0
 8002bd2:	d1da      	bne.n	8002b8a <HAL_RCC_OscConfig+0xe>
 8002bd4:	2001      	movs	r0, #1
 8002bd6:	e013      	b.n	8002c00 <HAL_RCC_OscConfig+0x84>
 8002bd8:	686b      	ldr	r3, [r5, #4]
 8002bda:	f5b3 3f80 	cmp.w	r3, #65536	; 0x10000
 8002bde:	d112      	bne.n	8002c06 <HAL_RCC_OscConfig+0x8a>
 8002be0:	6823      	ldr	r3, [r4, #0]
 8002be2:	f443 3380 	orr.w	r3, r3, #65536	; 0x10000
 8002be6:	6023      	str	r3, [r4, #0]
 8002be8:	f7ff f8ac 	bl	8001d44 <HAL_GetTick>
 8002bec:	4606      	mov	r6, r0
 8002bee:	6823      	ldr	r3, [r4, #0]
 8002bf0:	0398      	lsls	r0, r3, #14
 8002bf2:	d4ca      	bmi.n	8002b8a <HAL_RCC_OscConfig+0xe>
 8002bf4:	f7ff f8a6 	bl	8001d44 <HAL_GetTick>
 8002bf8:	1b80      	subs	r0, r0, r6
 8002bfa:	2864      	cmp	r0, #100	; 0x64
 8002bfc:	d9f7      	bls.n	8002bee <HAL_RCC_OscConfig+0x72>
 8002bfe:	2003      	movs	r0, #3
 8002c00:	b002      	add	sp, #8
 8002c02:	e8bd 81f0 	ldmia.w	sp!, {r4, r5, r6, r7, r8, pc}
 8002c06:	b99b      	cbnz	r3, 8002c30 <HAL_RCC_OscConfig+0xb4>
 8002c08:	6823      	ldr	r3, [r4, #0]
 8002c0a:	f423 3380 	bic.w	r3, r3, #65536	; 0x10000
 8002c0e:	6023      	str	r3, [r4, #0]
 8002c10:	6823      	ldr	r3, [r4, #0]
 8002c12:	f423 2380 	bic.w	r3, r3, #262144	; 0x40000
 8002c16:	6023      	str	r3, [r4, #0]
 8002c18:	f7ff f894 	bl	8001d44 <HAL_GetTick>
 8002c1c:	4606      	mov	r6, r0
 8002c1e:	6823      	ldr	r3, [r4, #0]
 8002c20:	0399      	lsls	r1, r3, #14
 8002c22:	d5b2      	bpl.n	8002b8a <HAL_RCC_OscConfig+0xe>
 8002c24:	f7ff f88e 	bl	8001d44 <HAL_GetTick>
 8002c28:	1b80      	subs	r0, r0, r6
 8002c2a:	2864      	cmp	r0, #100	; 0x64
 8002c2c:	d9f7      	bls.n	8002c1e <HAL_RCC_OscConfig+0xa2>
 8002c2e:	e7e6      	b.n	8002bfe <HAL_RCC_OscConfig+0x82>
 8002c30:	f5b3 2fa0 	cmp.w	r3, #327680	; 0x50000
 8002c34:	6823      	ldr	r3, [r4, #0]
 8002c36:	d103      	bne.n	8002c40 <HAL_RCC_OscConfig+0xc4>
 8002c38:	f443 2380 	orr.w	r3, r3, #262144	; 0x40000
 8002c3c:	6023      	str	r3, [r4, #0]
 8002c3e:	e7cf      	b.n	8002be0 <HAL_RCC_OscConfig+0x64>
 8002c40:	f423 3380 	bic.w	r3, r3, #65536	; 0x10000
 8002c44:	6023      	str	r3, [r4, #0]
 8002c46:	6823      	ldr	r3, [r4, #0]
 8002c48:	f423 2380 	bic.w	r3, r3, #262144	; 0x40000
 8002c4c:	e7cb      	b.n	8002be6 <HAL_RCC_OscConfig+0x6a>
 8002c4e:	4c68      	ldr	r4, [pc, #416]	; (8002df0 <HAL_RCC_OscConfig+0x274>)
 8002c50:	6863      	ldr	r3, [r4, #4]
 8002c52:	f013 0f0c 	tst.w	r3, #12
 8002c56:	d007      	beq.n	8002c68 <HAL_RCC_OscConfig+0xec>
 8002c58:	6863      	ldr	r3, [r4, #4]
 8002c5a:	f003 030c 	and.w	r3, r3, #12
 8002c5e:	2b08      	cmp	r3, #8
 8002c60:	d110      	bne.n	8002c84 <HAL_RCC_OscConfig+0x108>
 8002c62:	6863      	ldr	r3, [r4, #4]
 8002c64:	03da      	lsls	r2, r3, #15
 8002c66:	d40d      	bmi.n	8002c84 <HAL_RCC_OscConfig+0x108>
 8002c68:	6823      	ldr	r3, [r4, #0]
 8002c6a:	079b      	lsls	r3, r3, #30
 8002c6c:	d502      	bpl.n	8002c74 <HAL_RCC_OscConfig+0xf8>
 8002c6e:	692b      	ldr	r3, [r5, #16]
 8002c70:	2b01      	cmp	r3, #1
 8002c72:	d1af      	bne.n	8002bd4 <HAL_RCC_OscConfig+0x58>
 8002c74:	6823      	ldr	r3, [r4, #0]
 8002c76:	696a      	ldr	r2, [r5, #20]
 8002c78:	f023 03f8 	bic.w	r3, r3, #248	; 0xf8
 8002c7c:	ea43 03c2 	orr.w	r3, r3, r2, lsl #3
 8002c80:	6023      	str	r3, [r4, #0]
 8002c82:	e785      	b.n	8002b90 <HAL_RCC_OscConfig+0x14>
 8002c84:	692a      	ldr	r2, [r5, #16]
 8002c86:	4b5b      	ldr	r3, [pc, #364]	; (8002df4 <HAL_RCC_OscConfig+0x278>)
 8002c88:	b16a      	cbz	r2, 8002ca6 <HAL_RCC_OscConfig+0x12a>
 8002c8a:	2201      	movs	r2, #1
 8002c8c:	601a      	str	r2, [r3, #0]
 8002c8e:	f7ff f859 	bl	8001d44 <HAL_GetTick>
 8002c92:	4606      	mov	r6, r0
 8002c94:	6823      	ldr	r3, [r4, #0]
 8002c96:	079f      	lsls	r7, r3, #30
 8002c98:	d4ec      	bmi.n	8002c74 <HAL_RCC_OscConfig+0xf8>
 8002c9a:	f7ff f853 	bl	8001d44 <HAL_GetTick>
 8002c9e:	1b80      	subs	r0, r0, r6
 8002ca0:	2802      	cmp	r0, #2
 8002ca2:	d9f7      	bls.n	8002c94 <HAL_RCC_OscConfig+0x118>
 8002ca4:	e7ab      	b.n	8002bfe <HAL_RCC_OscConfig+0x82>
 8002ca6:	601a      	str	r2, [r3, #0]
 8002ca8:	f7ff f84c 	bl	8001d44 <HAL_GetTick>
 8002cac:	4606      	mov	r6, r0
 8002cae:	6823      	ldr	r3, [r4, #0]
 8002cb0:	0798      	lsls	r0, r3, #30
 8002cb2:	f57f af6d 	bpl.w	8002b90 <HAL_RCC_OscConfig+0x14>
 8002cb6:	f7ff f845 	bl	8001d44 <HAL_GetTick>
 8002cba:	1b80      	subs	r0, r0, r6
 8002cbc:	2802      	cmp	r0, #2
 8002cbe:	d9f6      	bls.n	8002cae <HAL_RCC_OscConfig+0x132>
 8002cc0:	e79d      	b.n	8002bfe <HAL_RCC_OscConfig+0x82>
 8002cc2:	69aa      	ldr	r2, [r5, #24]
 8002cc4:	4e4a      	ldr	r6, [pc, #296]	; (8002df0 <HAL_RCC_OscConfig+0x274>)
 8002cc6:	4b4b      	ldr	r3, [pc, #300]	; (8002df4 <HAL_RCC_OscConfig+0x278>)
 8002cc8:	b1e2      	cbz	r2, 8002d04 <HAL_RCC_OscConfig+0x188>
 8002cca:	2201      	movs	r2, #1
 8002ccc:	f8c3 2480 	str.w	r2, [r3, #1152]	; 0x480
 8002cd0:	f7ff f838 	bl	8001d44 <HAL_GetTick>
 8002cd4:	4604      	mov	r4, r0
 8002cd6:	6a73      	ldr	r3, [r6, #36]	; 0x24
 8002cd8:	079b      	lsls	r3, r3, #30
 8002cda:	d50d      	bpl.n	8002cf8 <HAL_RCC_OscConfig+0x17c>
 8002cdc:	f44f 52fa 	mov.w	r2, #8000	; 0x1f40
 8002ce0:	4b45      	ldr	r3, [pc, #276]	; (8002df8 <HAL_RCC_OscConfig+0x27c>)
 8002ce2:	681b      	ldr	r3, [r3, #0]
 8002ce4:	fbb3 f3f2 	udiv	r3, r3, r2
 8002ce8:	9301      	str	r3, [sp, #4]
 8002cea:	bf00      	nop
 8002cec:	9b01      	ldr	r3, [sp, #4]
 8002cee:	1e5a      	subs	r2, r3, #1
 8002cf0:	9201      	str	r2, [sp, #4]
 8002cf2:	2b00      	cmp	r3, #0
 8002cf4:	d1f9      	bne.n	8002cea <HAL_RCC_OscConfig+0x16e>
 8002cf6:	e74f      	b.n	8002b98 <HAL_RCC_OscConfig+0x1c>
 8002cf8:	f7ff f824 	bl	8001d44 <HAL_GetTick>
 8002cfc:	1b00      	subs	r0, r0, r4
 8002cfe:	2802      	cmp	r0, #2
 8002d00:	d9e9      	bls.n	8002cd6 <HAL_RCC_OscConfig+0x15a>
 8002d02:	e77c      	b.n	8002bfe <HAL_RCC_OscConfig+0x82>
 8002d04:	f8c3 2480 	str.w	r2, [r3, #1152]	; 0x480
 8002d08:	f7ff f81c 	bl	8001d44 <HAL_GetTick>
 8002d0c:	4604      	mov	r4, r0
 8002d0e:	6a73      	ldr	r3, [r6, #36]	; 0x24
 8002d10:	079f      	lsls	r7, r3, #30
 8002d12:	f57f af41 	bpl.w	8002b98 <HAL_RCC_OscConfig+0x1c>
 8002d16:	f7ff f815 	bl	8001d44 <HAL_GetTick>
 8002d1a:	1b00      	subs	r0, r0, r4
 8002d1c:	2802      	cmp	r0, #2
 8002d1e:	d9f6      	bls.n	8002d0e <HAL_RCC_OscConfig+0x192>
 8002d20:	e76d      	b.n	8002bfe <HAL_RCC_OscConfig+0x82>
 8002d22:	4c33      	ldr	r4, [pc, #204]	; (8002df0 <HAL_RCC_OscConfig+0x274>)
 8002d24:	69e3      	ldr	r3, [r4, #28]
 8002d26:	00d8      	lsls	r0, r3, #3
 8002d28:	d424      	bmi.n	8002d74 <HAL_RCC_OscConfig+0x1f8>
 8002d2a:	2701      	movs	r7, #1
 8002d2c:	69e3      	ldr	r3, [r4, #28]
 8002d2e:	f043 5380 	orr.w	r3, r3, #268435456	; 0x10000000
 8002d32:	61e3      	str	r3, [r4, #28]
 8002d34:	69e3      	ldr	r3, [r4, #28]
 8002d36:	f003 5380 	and.w	r3, r3, #268435456	; 0x10000000
 8002d3a:	9300      	str	r3, [sp, #0]
 8002d3c:	9b00      	ldr	r3, [sp, #0]
 8002d3e:	4e2f      	ldr	r6, [pc, #188]	; (8002dfc <HAL_RCC_OscConfig+0x280>)
 8002d40:	6833      	ldr	r3, [r6, #0]
 8002d42:	05d9      	lsls	r1, r3, #23
 8002d44:	d518      	bpl.n	8002d78 <HAL_RCC_OscConfig+0x1fc>
 8002d46:	68eb      	ldr	r3, [r5, #12]
 8002d48:	2b01      	cmp	r3, #1
 8002d4a:	d126      	bne.n	8002d9a <HAL_RCC_OscConfig+0x21e>
 8002d4c:	6a23      	ldr	r3, [r4, #32]
 8002d4e:	f043 0301 	orr.w	r3, r3, #1
 8002d52:	6223      	str	r3, [r4, #32]
 8002d54:	f7fe fff6 	bl	8001d44 <HAL_GetTick>
 8002d58:	f241 3888 	movw	r8, #5000	; 0x1388
 8002d5c:	4606      	mov	r6, r0
 8002d5e:	6a23      	ldr	r3, [r4, #32]
 8002d60:	079b      	lsls	r3, r3, #30
 8002d62:	d53f      	bpl.n	8002de4 <HAL_RCC_OscConfig+0x268>
 8002d64:	2f00      	cmp	r7, #0
 8002d66:	f43f af1b 	beq.w	8002ba0 <HAL_RCC_OscConfig+0x24>
 8002d6a:	69e3      	ldr	r3, [r4, #28]
 8002d6c:	f023 5380 	bic.w	r3, r3, #268435456	; 0x10000000
 8002d70:	61e3      	str	r3, [r4, #28]
 8002d72:	e715      	b.n	8002ba0 <HAL_RCC_OscConfig+0x24>
 8002d74:	2700      	movs	r7, #0
 8002d76:	e7e2      	b.n	8002d3e <HAL_RCC_OscConfig+0x1c2>
 8002d78:	6833      	ldr	r3, [r6, #0]
 8002d7a:	f443 7380 	orr.w	r3, r3, #256	; 0x100
 8002d7e:	6033      	str	r3, [r6, #0]
 8002d80:	f7fe ffe0 	bl	8001d44 <HAL_GetTick>
 8002d84:	4680      	mov	r8, r0
 8002d86:	6833      	ldr	r3, [r6, #0]
 8002d88:	05da      	lsls	r2, r3, #23
 8002d8a:	d4dc      	bmi.n	8002d46 <HAL_RCC_OscConfig+0x1ca>
 8002d8c:	f7fe ffda 	bl	8001d44 <HAL_GetTick>
 8002d90:	eba0 0008 	sub.w	r0, r0, r8
 8002d94:	2864      	cmp	r0, #100	; 0x64
 8002d96:	d9f6      	bls.n	8002d86 <HAL_RCC_OscConfig+0x20a>
 8002d98:	e731      	b.n	8002bfe <HAL_RCC_OscConfig+0x82>
 8002d9a:	b9ab      	cbnz	r3, 8002dc8 <HAL_RCC_OscConfig+0x24c>
 8002d9c:	6a23      	ldr	r3, [r4, #32]
 8002d9e:	f241 3888 	movw	r8, #5000	; 0x1388
 8002da2:	f023 0301 	bic.w	r3, r3, #1
 8002da6:	6223      	str	r3, [r4, #32]
 8002da8:	6a23      	ldr	r3, [r4, #32]
 8002daa:	f023 0304 	bic.w	r3, r3, #4
 8002dae:	6223      	str	r3, [r4, #32]
 8002db0:	f7fe ffc8 	bl	8001d44 <HAL_GetTick>
 8002db4:	4606      	mov	r6, r0
 8002db6:	6a23      	ldr	r3, [r4, #32]
 8002db8:	0798      	lsls	r0, r3, #30
 8002dba:	d5d3      	bpl.n	8002d64 <HAL_RCC_OscConfig+0x1e8>
 8002dbc:	f7fe ffc2 	bl	8001d44 <HAL_GetTick>
 8002dc0:	1b80      	subs	r0, r0, r6
 8002dc2:	4540      	cmp	r0, r8
 8002dc4:	d9f7      	bls.n	8002db6 <HAL_RCC_OscConfig+0x23a>
 8002dc6:	e71a      	b.n	8002bfe <HAL_RCC_OscConfig+0x82>
 8002dc8:	2b05      	cmp	r3, #5
 8002dca:	6a23      	ldr	r3, [r4, #32]
 8002dcc:	d103      	bne.n	8002dd6 <HAL_RCC_OscConfig+0x25a>
 8002dce:	f043 0304 	orr.w	r3, r3, #4
 8002dd2:	6223      	str	r3, [r4, #32]
 8002dd4:	e7ba      	b.n	8002d4c <HAL_RCC_OscConfig+0x1d0>
 8002dd6:	f023 0301 	bic.w	r3, r3, #1
 8002dda:	6223      	str	r3, [r4, #32]
 8002ddc:	6a23      	ldr	r3, [r4, #32]
 8002dde:	f023 0304 	bic.w	r3, r3, #4
 8002de2:	e7b6      	b.n	8002d52 <HAL_RCC_OscConfig+0x1d6>
 8002de4:	f7fe ffae 	bl	8001d44 <HAL_GetTick>
 8002de8:	1b80      	subs	r0, r0, r6
 8002dea:	4540      	cmp	r0, r8
 8002dec:	d9b7      	bls.n	8002d5e <HAL_RCC_OscConfig+0x1e2>
 8002dee:	e706      	b.n	8002bfe <HAL_RCC_OscConfig+0x82>
 8002df0:	40021000 	.word	0x40021000
 8002df4:	42420000 	.word	0x42420000
 8002df8:	20000000 	.word	0x20000000
 8002dfc:	40007000 	.word	0x40007000
 8002e00:	4c2a      	ldr	r4, [pc, #168]	; (8002eac <HAL_RCC_OscConfig+0x330>)
 8002e02:	6863      	ldr	r3, [r4, #4]
 8002e04:	f003 030c 	and.w	r3, r3, #12
 8002e08:	2b08      	cmp	r3, #8
 8002e0a:	d03e      	beq.n	8002e8a <HAL_RCC_OscConfig+0x30e>
 8002e0c:	2200      	movs	r2, #0
 8002e0e:	4b28      	ldr	r3, [pc, #160]	; (8002eb0 <HAL_RCC_OscConfig+0x334>)
 8002e10:	2802      	cmp	r0, #2
 8002e12:	661a      	str	r2, [r3, #96]	; 0x60
 8002e14:	d12c      	bne.n	8002e70 <HAL_RCC_OscConfig+0x2f4>
 8002e16:	f7fe ff95 	bl	8001d44 <HAL_GetTick>
 8002e1a:	4606      	mov	r6, r0
 8002e1c:	6823      	ldr	r3, [r4, #0]
 8002e1e:	0199      	lsls	r1, r3, #6
 8002e20:	d420      	bmi.n	8002e64 <HAL_RCC_OscConfig+0x2e8>
 8002e22:	6a2b      	ldr	r3, [r5, #32]
 8002e24:	f5b3 3f80 	cmp.w	r3, #65536	; 0x10000
 8002e28:	d105      	bne.n	8002e36 <HAL_RCC_OscConfig+0x2ba>
 8002e2a:	6862      	ldr	r2, [r4, #4]
 8002e2c:	68a9      	ldr	r1, [r5, #8]
 8002e2e:	f422 3200 	bic.w	r2, r2, #131072	; 0x20000
 8002e32:	430a      	orrs	r2, r1
 8002e34:	6062      	str	r2, [r4, #4]
 8002e36:	6a69      	ldr	r1, [r5, #36]	; 0x24
 8002e38:	6862      	ldr	r2, [r4, #4]
 8002e3a:	430b      	orrs	r3, r1
 8002e3c:	f422 1274 	bic.w	r2, r2, #3997696	; 0x3d0000
 8002e40:	4313      	orrs	r3, r2
 8002e42:	2201      	movs	r2, #1
 8002e44:	6063      	str	r3, [r4, #4]
 8002e46:	4b1a      	ldr	r3, [pc, #104]	; (8002eb0 <HAL_RCC_OscConfig+0x334>)
 8002e48:	661a      	str	r2, [r3, #96]	; 0x60
 8002e4a:	f7fe ff7b 	bl	8001d44 <HAL_GetTick>
 8002e4e:	4605      	mov	r5, r0
 8002e50:	6823      	ldr	r3, [r4, #0]
 8002e52:	019a      	lsls	r2, r3, #6
 8002e54:	f53f aea8 	bmi.w	8002ba8 <HAL_RCC_OscConfig+0x2c>
 8002e58:	f7fe ff74 	bl	8001d44 <HAL_GetTick>
 8002e5c:	1b40      	subs	r0, r0, r5
 8002e5e:	2802      	cmp	r0, #2
 8002e60:	d9f6      	bls.n	8002e50 <HAL_RCC_OscConfig+0x2d4>
 8002e62:	e6cc      	b.n	8002bfe <HAL_RCC_OscConfig+0x82>
 8002e64:	f7fe ff6e 	bl	8001d44 <HAL_GetTick>
 8002e68:	1b80      	subs	r0, r0, r6
 8002e6a:	2802      	cmp	r0, #2
 8002e6c:	d9d6      	bls.n	8002e1c <HAL_RCC_OscConfig+0x2a0>
 8002e6e:	e6c6      	b.n	8002bfe <HAL_RCC_OscConfig+0x82>
 8002e70:	f7fe ff68 	bl	8001d44 <HAL_GetTick>
 8002e74:	4605      	mov	r5, r0
 8002e76:	6823      	ldr	r3, [r4, #0]
 8002e78:	019b      	lsls	r3, r3, #6
 8002e7a:	f57f ae95 	bpl.w	8002ba8 <HAL_RCC_OscConfig+0x2c>
 8002e7e:	f7fe ff61 	bl	8001d44 <HAL_GetTick>
 8002e82:	1b40      	subs	r0, r0, r5
 8002e84:	2802      	cmp	r0, #2
 8002e86:	d9f6      	bls.n	8002e76 <HAL_RCC_OscConfig+0x2fa>
 8002e88:	e6b9      	b.n	8002bfe <HAL_RCC_OscConfig+0x82>
 8002e8a:	2801      	cmp	r0, #1
 8002e8c:	f43f aeb8 	beq.w	8002c00 <HAL_RCC_OscConfig+0x84>
 8002e90:	6863      	ldr	r3, [r4, #4]
 8002e92:	6a2a      	ldr	r2, [r5, #32]
 8002e94:	f403 3180 	and.w	r1, r3, #65536	; 0x10000
 8002e98:	4291      	cmp	r1, r2
 8002e9a:	f47f ae9b 	bne.w	8002bd4 <HAL_RCC_OscConfig+0x58>
 8002e9e:	6a6a      	ldr	r2, [r5, #36]	; 0x24
 8002ea0:	f403 1370 	and.w	r3, r3, #3932160	; 0x3c0000
 8002ea4:	4293      	cmp	r3, r2
 8002ea6:	f43f ae7f 	beq.w	8002ba8 <HAL_RCC_OscConfig+0x2c>
 8002eaa:	e693      	b.n	8002bd4 <HAL_RCC_OscConfig+0x58>
 8002eac:	40021000 	.word	0x40021000
 8002eb0:	42420000 	.word	0x42420000

08002eb4 <HAL_RCC_GetSysClockFreq>:
 8002eb4:	b530      	push	{r4, r5, lr}
 8002eb6:	4b18      	ldr	r3, [pc, #96]	; (8002f18 <HAL_RCC_GetSysClockFreq+0x64>)
 8002eb8:	b087      	sub	sp, #28
 8002eba:	ac02      	add	r4, sp, #8
 8002ebc:	f103 0510 	add.w	r5, r3, #16
 8002ec0:	4622      	mov	r2, r4
 8002ec2:	6818      	ldr	r0, [r3, #0]
 8002ec4:	6859      	ldr	r1, [r3, #4]
 8002ec6:	3308      	adds	r3, #8
 8002ec8:	c203      	stmia	r2!, {r0, r1}
 8002eca:	42ab      	cmp	r3, r5
 8002ecc:	4614      	mov	r4, r2
 8002ece:	d1f7      	bne.n	8002ec0 <HAL_RCC_GetSysClockFreq+0xc>
 8002ed0:	f240 2301 	movw	r3, #513	; 0x201
 8002ed4:	4911      	ldr	r1, [pc, #68]	; (8002f1c <HAL_RCC_GetSysClockFreq+0x68>)
 8002ed6:	f8ad 3004 	strh.w	r3, [sp, #4]
 8002eda:	684b      	ldr	r3, [r1, #4]
 8002edc:	f003 020c 	and.w	r2, r3, #12
 8002ee0:	2a08      	cmp	r2, #8
 8002ee2:	d117      	bne.n	8002f14 <HAL_RCC_GetSysClockFreq+0x60>
 8002ee4:	f3c3 4283 	ubfx	r2, r3, #18, #4
 8002ee8:	3218      	adds	r2, #24
 8002eea:	446a      	add	r2, sp
 8002eec:	03db      	lsls	r3, r3, #15
 8002eee:	f812 0c10 	ldrb.w	r0, [r2, #-16]
 8002ef2:	d50c      	bpl.n	8002f0e <HAL_RCC_GetSysClockFreq+0x5a>
 8002ef4:	684b      	ldr	r3, [r1, #4]
 8002ef6:	4a0a      	ldr	r2, [pc, #40]	; (8002f20 <HAL_RCC_GetSysClockFreq+0x6c>)
 8002ef8:	f3c3 4340 	ubfx	r3, r3, #17, #1
 8002efc:	4350      	muls	r0, r2
 8002efe:	3318      	adds	r3, #24
 8002f00:	446b      	add	r3, sp
 8002f02:	f813 3c14 	ldrb.w	r3, [r3, #-20]
 8002f06:	fbb0 f0f3 	udiv	r0, r0, r3
 8002f0a:	b007      	add	sp, #28
 8002f0c:	bd30      	pop	{r4, r5, pc}
 8002f0e:	4b05      	ldr	r3, [pc, #20]	; (8002f24 <HAL_RCC_GetSysClockFreq+0x70>)
 8002f10:	4358      	muls	r0, r3
 8002f12:	e7fa      	b.n	8002f0a <HAL_RCC_GetSysClockFreq+0x56>
 8002f14:	4802      	ldr	r0, [pc, #8]	; (8002f20 <HAL_RCC_GetSysClockFreq+0x6c>)
 8002f16:	e7f8      	b.n	8002f0a <HAL_RCC_GetSysClockFreq+0x56>
 8002f18:	080060b3 	.word	0x080060b3
 8002f1c:	40021000 	.word	0x40021000
 8002f20:	007a1200 	.word	0x007a1200
 8002f24:	003d0900 	.word	0x003d0900

08002f28 <HAL_RCC_ClockConfig>:
 8002f28:	e92d 41f0 	stmdb	sp!, {r4, r5, r6, r7, r8, lr}
 8002f2c:	460d      	mov	r5, r1
 8002f2e:	4604      	mov	r4, r0
 8002f30:	b910      	cbnz	r0, 8002f38 <HAL_RCC_ClockConfig+0x10>
 8002f32:	2001      	movs	r0, #1
 8002f34:	e8bd 81f0 	ldmia.w	sp!, {r4, r5, r6, r7, r8, pc}
 8002f38:	4a44      	ldr	r2, [pc, #272]	; (800304c <HAL_RCC_ClockConfig+0x124>)
 8002f3a:	6813      	ldr	r3, [r2, #0]
 8002f3c:	f003 0307 	and.w	r3, r3, #7
 8002f40:	428b      	cmp	r3, r1
 8002f42:	d328      	bcc.n	8002f96 <HAL_RCC_ClockConfig+0x6e>
 8002f44:	6821      	ldr	r1, [r4, #0]
 8002f46:	078e      	lsls	r6, r1, #30
 8002f48:	d430      	bmi.n	8002fac <HAL_RCC_ClockConfig+0x84>
 8002f4a:	07ca      	lsls	r2, r1, #31
 8002f4c:	d443      	bmi.n	8002fd6 <HAL_RCC_ClockConfig+0xae>
 8002f4e:	4a3f      	ldr	r2, [pc, #252]	; (800304c <HAL_RCC_ClockConfig+0x124>)
 8002f50:	6813      	ldr	r3, [r2, #0]
 8002f52:	f003 0307 	and.w	r3, r3, #7
 8002f56:	42ab      	cmp	r3, r5
 8002f58:	d865      	bhi.n	8003026 <HAL_RCC_ClockConfig+0xfe>
 8002f5a:	6822      	ldr	r2, [r4, #0]
 8002f5c:	4d3c      	ldr	r5, [pc, #240]	; (8003050 <HAL_RCC_ClockConfig+0x128>)
 8002f5e:	f012 0f04 	tst.w	r2, #4
 8002f62:	d16c      	bne.n	800303e <HAL_RCC_ClockConfig+0x116>
 8002f64:	0713      	lsls	r3, r2, #28
 8002f66:	d506      	bpl.n	8002f76 <HAL_RCC_ClockConfig+0x4e>
 8002f68:	686b      	ldr	r3, [r5, #4]
 8002f6a:	6922      	ldr	r2, [r4, #16]
 8002f6c:	f423 5360 	bic.w	r3, r3, #14336	; 0x3800
 8002f70:	ea43 03c2 	orr.w	r3, r3, r2, lsl #3
 8002f74:	606b      	str	r3, [r5, #4]
 8002f76:	f7ff ff9d 	bl	8002eb4 <HAL_RCC_GetSysClockFreq>
 8002f7a:	686b      	ldr	r3, [r5, #4]
 8002f7c:	4a35      	ldr	r2, [pc, #212]	; (8003054 <HAL_RCC_ClockConfig+0x12c>)
 8002f7e:	f3c3 1303 	ubfx	r3, r3, #4, #4
 8002f82:	5cd3      	ldrb	r3, [r2, r3]
 8002f84:	40d8      	lsrs	r0, r3
 8002f86:	4b34      	ldr	r3, [pc, #208]	; (8003058 <HAL_RCC_ClockConfig+0x130>)
 8002f88:	6018      	str	r0, [r3, #0]
 8002f8a:	4b34      	ldr	r3, [pc, #208]	; (800305c <HAL_RCC_ClockConfig+0x134>)
 8002f8c:	6818      	ldr	r0, [r3, #0]
 8002f8e:	f7fe fe97 	bl	8001cc0 <HAL_InitTick>
 8002f92:	2000      	movs	r0, #0
 8002f94:	e7ce      	b.n	8002f34 <HAL_RCC_ClockConfig+0xc>
 8002f96:	6813      	ldr	r3, [r2, #0]
 8002f98:	f023 0307 	bic.w	r3, r3, #7
 8002f9c:	430b      	orrs	r3, r1
 8002f9e:	6013      	str	r3, [r2, #0]
 8002fa0:	6813      	ldr	r3, [r2, #0]
 8002fa2:	f003 0307 	and.w	r3, r3, #7
 8002fa6:	428b      	cmp	r3, r1
 8002fa8:	d1c3      	bne.n	8002f32 <HAL_RCC_ClockConfig+0xa>
 8002faa:	e7cb      	b.n	8002f44 <HAL_RCC_ClockConfig+0x1c>
 8002fac:	4b28      	ldr	r3, [pc, #160]	; (8003050 <HAL_RCC_ClockConfig+0x128>)
 8002fae:	f011 0f04 	tst.w	r1, #4
 8002fb2:	bf1e      	ittt	ne
 8002fb4:	685a      	ldrne	r2, [r3, #4]
 8002fb6:	f442 62e0 	orrne.w	r2, r2, #1792	; 0x700
 8002fba:	605a      	strne	r2, [r3, #4]
 8002fbc:	0708      	lsls	r0, r1, #28
 8002fbe:	bf42      	ittt	mi
 8002fc0:	685a      	ldrmi	r2, [r3, #4]
 8002fc2:	f442 5260 	orrmi.w	r2, r2, #14336	; 0x3800
 8002fc6:	605a      	strmi	r2, [r3, #4]
 8002fc8:	685a      	ldr	r2, [r3, #4]
 8002fca:	68a0      	ldr	r0, [r4, #8]
 8002fcc:	f022 02f0 	bic.w	r2, r2, #240	; 0xf0
 8002fd0:	4302      	orrs	r2, r0
 8002fd2:	605a      	str	r2, [r3, #4]
 8002fd4:	e7b9      	b.n	8002f4a <HAL_RCC_ClockConfig+0x22>
 8002fd6:	6862      	ldr	r2, [r4, #4]
 8002fd8:	4e1d      	ldr	r6, [pc, #116]	; (8003050 <HAL_RCC_ClockConfig+0x128>)
 8002fda:	2a01      	cmp	r2, #1
 8002fdc:	6833      	ldr	r3, [r6, #0]
 8002fde:	d11a      	bne.n	8003016 <HAL_RCC_ClockConfig+0xee>
 8002fe0:	f413 3f00 	tst.w	r3, #131072	; 0x20000
 8002fe4:	d0a5      	beq.n	8002f32 <HAL_RCC_ClockConfig+0xa>
 8002fe6:	6873      	ldr	r3, [r6, #4]
 8002fe8:	f241 3888 	movw	r8, #5000	; 0x1388
 8002fec:	f023 0303 	bic.w	r3, r3, #3
 8002ff0:	4313      	orrs	r3, r2
 8002ff2:	6073      	str	r3, [r6, #4]
 8002ff4:	f7fe fea6 	bl	8001d44 <HAL_GetTick>
 8002ff8:	4607      	mov	r7, r0
 8002ffa:	6873      	ldr	r3, [r6, #4]
 8002ffc:	6862      	ldr	r2, [r4, #4]
 8002ffe:	f003 030c 	and.w	r3, r3, #12
 8003002:	ebb3 0f82 	cmp.w	r3, r2, lsl #2
 8003006:	d0a2      	beq.n	8002f4e <HAL_RCC_ClockConfig+0x26>
 8003008:	f7fe fe9c 	bl	8001d44 <HAL_GetTick>
 800300c:	1bc0      	subs	r0, r0, r7
 800300e:	4540      	cmp	r0, r8
 8003010:	d9f3      	bls.n	8002ffa <HAL_RCC_ClockConfig+0xd2>
 8003012:	2003      	movs	r0, #3
 8003014:	e78e      	b.n	8002f34 <HAL_RCC_ClockConfig+0xc>
 8003016:	2a02      	cmp	r2, #2
 8003018:	d102      	bne.n	8003020 <HAL_RCC_ClockConfig+0xf8>
 800301a:	f013 7f00 	tst.w	r3, #33554432	; 0x2000000
 800301e:	e7e1      	b.n	8002fe4 <HAL_RCC_ClockConfig+0xbc>
 8003020:	f013 0f02 	tst.w	r3, #2
 8003024:	e7de      	b.n	8002fe4 <HAL_RCC_ClockConfig+0xbc>
 8003026:	6813      	ldr	r3, [r2, #0]
 8003028:	f023 0307 	bic.w	r3, r3, #7
 800302c:	432b      	orrs	r3, r5
 800302e:	6013      	str	r3, [r2, #0]
 8003030:	6813      	ldr	r3, [r2, #0]
 8003032:	f003 0307 	and.w	r3, r3, #7
 8003036:	42ab      	cmp	r3, r5
 8003038:	f47f af7b 	bne.w	8002f32 <HAL_RCC_ClockConfig+0xa>
 800303c:	e78d      	b.n	8002f5a <HAL_RCC_ClockConfig+0x32>
 800303e:	686b      	ldr	r3, [r5, #4]
 8003040:	68e1      	ldr	r1, [r4, #12]
 8003042:	f423 63e0 	bic.w	r3, r3, #1792	; 0x700
 8003046:	430b      	orrs	r3, r1
 8003048:	606b      	str	r3, [r5, #4]
 800304a:	e78b      	b.n	8002f64 <HAL_RCC_ClockConfig+0x3c>
 800304c:	40022000 	.word	0x40022000
 8003050:	40021000 	.word	0x40021000
 8003054:	0800609b 	.word	0x0800609b
 8003058:	20000000 	.word	0x20000000
 800305c:	20000008 	.word	0x20000008

08003060 <HAL_RCC_GetPCLK1Freq>:
 8003060:	4b04      	ldr	r3, [pc, #16]	; (8003074 <HAL_RCC_GetPCLK1Freq+0x14>)
 8003062:	4a05      	ldr	r2, [pc, #20]	; (8003078 <HAL_RCC_GetPCLK1Freq+0x18>)
 8003064:	685b      	ldr	r3, [r3, #4]
 8003066:	f3c3 2302 	ubfx	r3, r3, #8, #3
 800306a:	5cd3      	ldrb	r3, [r2, r3]
 800306c:	4a03      	ldr	r2, [pc, #12]	; (800307c <HAL_RCC_GetPCLK1Freq+0x1c>)
 800306e:	6810      	ldr	r0, [r2, #0]
 8003070:	40d8      	lsrs	r0, r3
 8003072:	4770      	bx	lr
 8003074:	40021000 	.word	0x40021000
 8003078:	080060ab 	.word	0x080060ab
 800307c:	20000000 	.word	0x20000000

08003080 <HAL_RCC_GetPCLK2Freq>:
 8003080:	4b04      	ldr	r3, [pc, #16]	; (8003094 <HAL_RCC_GetPCLK2Freq+0x14>)
 8003082:	4a05      	ldr	r2, [pc, #20]	; (8003098 <HAL_RCC_GetPCLK2Freq+0x18>)
 8003084:	685b      	ldr	r3, [r3, #4]
 8003086:	f3c3 23c2 	ubfx	r3, r3, #11, #3
 800308a:	5cd3      	ldrb	r3, [r2, r3]
 800308c:	4a03      	ldr	r2, [pc, #12]	; (800309c <HAL_RCC_GetPCLK2Freq+0x1c>)
 800308e:	6810      	ldr	r0, [r2, #0]
 8003090:	40d8      	lsrs	r0, r3
 8003092:	4770      	bx	lr
 8003094:	40021000 	.word	0x40021000
 8003098:	080060ab 	.word	0x080060ab
 800309c:	20000000 	.word	0x20000000

080030a0 <HAL_RCCEx_PeriphCLKConfig>:
 80030a0:	6803      	ldr	r3, [r0, #0]
 80030a2:	e92d 41f3 	stmdb	sp!, {r0, r1, r4, r5, r6, r7, r8, lr}
 80030a6:	07d9      	lsls	r1, r3, #31
 80030a8:	4605      	mov	r5, r0
 80030aa:	d520      	bpl.n	80030ee <HAL_RCCEx_PeriphCLKConfig+0x4e>
 80030ac:	4c36      	ldr	r4, [pc, #216]	; (8003188 <HAL_RCCEx_PeriphCLKConfig+0xe8>)
 80030ae:	69e3      	ldr	r3, [r4, #28]
 80030b0:	00da      	lsls	r2, r3, #3
 80030b2:	d432      	bmi.n	800311a <HAL_RCCEx_PeriphCLKConfig+0x7a>
 80030b4:	2601      	movs	r6, #1
 80030b6:	69e3      	ldr	r3, [r4, #28]
 80030b8:	f043 5380 	orr.w	r3, r3, #268435456	; 0x10000000
 80030bc:	61e3      	str	r3, [r4, #28]
 80030be:	69e3      	ldr	r3, [r4, #28]
 80030c0:	f003 5380 	and.w	r3, r3, #268435456	; 0x10000000
 80030c4:	9301      	str	r3, [sp, #4]
 80030c6:	9b01      	ldr	r3, [sp, #4]
 80030c8:	4f30      	ldr	r7, [pc, #192]	; (800318c <HAL_RCCEx_PeriphCLKConfig+0xec>)
 80030ca:	683b      	ldr	r3, [r7, #0]
 80030cc:	05db      	lsls	r3, r3, #23
 80030ce:	d526      	bpl.n	800311e <HAL_RCCEx_PeriphCLKConfig+0x7e>
 80030d0:	6a23      	ldr	r3, [r4, #32]
 80030d2:	f413 7340 	ands.w	r3, r3, #768	; 0x300
 80030d6:	d136      	bne.n	8003146 <HAL_RCCEx_PeriphCLKConfig+0xa6>
 80030d8:	6a23      	ldr	r3, [r4, #32]
 80030da:	686a      	ldr	r2, [r5, #4]
 80030dc:	f423 7340 	bic.w	r3, r3, #768	; 0x300
 80030e0:	4313      	orrs	r3, r2
 80030e2:	6223      	str	r3, [r4, #32]
 80030e4:	b11e      	cbz	r6, 80030ee <HAL_RCCEx_PeriphCLKConfig+0x4e>
 80030e6:	69e3      	ldr	r3, [r4, #28]
 80030e8:	f023 5380 	bic.w	r3, r3, #268435456	; 0x10000000
 80030ec:	61e3      	str	r3, [r4, #28]
 80030ee:	6828      	ldr	r0, [r5, #0]
 80030f0:	0783      	lsls	r3, r0, #30
 80030f2:	d506      	bpl.n	8003102 <HAL_RCCEx_PeriphCLKConfig+0x62>
 80030f4:	4924      	ldr	r1, [pc, #144]	; (8003188 <HAL_RCCEx_PeriphCLKConfig+0xe8>)
 80030f6:	68ab      	ldr	r3, [r5, #8]
 80030f8:	684a      	ldr	r2, [r1, #4]
 80030fa:	f422 4240 	bic.w	r2, r2, #49152	; 0xc000
 80030fe:	431a      	orrs	r2, r3
 8003100:	604a      	str	r2, [r1, #4]
 8003102:	f010 0010 	ands.w	r0, r0, #16
 8003106:	d01b      	beq.n	8003140 <HAL_RCCEx_PeriphCLKConfig+0xa0>
 8003108:	4a1f      	ldr	r2, [pc, #124]	; (8003188 <HAL_RCCEx_PeriphCLKConfig+0xe8>)
 800310a:	68e9      	ldr	r1, [r5, #12]
 800310c:	6853      	ldr	r3, [r2, #4]
 800310e:	2000      	movs	r0, #0
 8003110:	f423 0380 	bic.w	r3, r3, #4194304	; 0x400000
 8003114:	430b      	orrs	r3, r1
 8003116:	6053      	str	r3, [r2, #4]
 8003118:	e012      	b.n	8003140 <HAL_RCCEx_PeriphCLKConfig+0xa0>
 800311a:	2600      	movs	r6, #0
 800311c:	e7d4      	b.n	80030c8 <HAL_RCCEx_PeriphCLKConfig+0x28>
 800311e:	683b      	ldr	r3, [r7, #0]
 8003120:	f443 7380 	orr.w	r3, r3, #256	; 0x100
 8003124:	603b      	str	r3, [r7, #0]
 8003126:	f7fe fe0d 	bl	8001d44 <HAL_GetTick>
 800312a:	4680      	mov	r8, r0
 800312c:	683b      	ldr	r3, [r7, #0]
 800312e:	05d8      	lsls	r0, r3, #23
 8003130:	d4ce      	bmi.n	80030d0 <HAL_RCCEx_PeriphCLKConfig+0x30>
 8003132:	f7fe fe07 	bl	8001d44 <HAL_GetTick>
 8003136:	eba0 0008 	sub.w	r0, r0, r8
 800313a:	2864      	cmp	r0, #100	; 0x64
 800313c:	d9f6      	bls.n	800312c <HAL_RCCEx_PeriphCLKConfig+0x8c>
 800313e:	2003      	movs	r0, #3
 8003140:	b002      	add	sp, #8
 8003142:	e8bd 81f0 	ldmia.w	sp!, {r4, r5, r6, r7, r8, pc}
 8003146:	686a      	ldr	r2, [r5, #4]
 8003148:	f402 7240 	and.w	r2, r2, #768	; 0x300
 800314c:	429a      	cmp	r2, r3
 800314e:	d0c3      	beq.n	80030d8 <HAL_RCCEx_PeriphCLKConfig+0x38>
 8003150:	2001      	movs	r0, #1
 8003152:	4a0f      	ldr	r2, [pc, #60]	; (8003190 <HAL_RCCEx_PeriphCLKConfig+0xf0>)
 8003154:	6a23      	ldr	r3, [r4, #32]
 8003156:	f8c2 0440 	str.w	r0, [r2, #1088]	; 0x440
 800315a:	2000      	movs	r0, #0
 800315c:	f423 7140 	bic.w	r1, r3, #768	; 0x300
 8003160:	f8c2 0440 	str.w	r0, [r2, #1088]	; 0x440
 8003164:	6221      	str	r1, [r4, #32]
 8003166:	07d9      	lsls	r1, r3, #31
 8003168:	d5b6      	bpl.n	80030d8 <HAL_RCCEx_PeriphCLKConfig+0x38>
 800316a:	f7fe fdeb 	bl	8001d44 <HAL_GetTick>
 800316e:	f241 3888 	movw	r8, #5000	; 0x1388
 8003172:	4607      	mov	r7, r0
 8003174:	6a23      	ldr	r3, [r4, #32]
 8003176:	079a      	lsls	r2, r3, #30
 8003178:	d4ae      	bmi.n	80030d8 <HAL_RCCEx_PeriphCLKConfig+0x38>
 800317a:	f7fe fde3 	bl	8001d44 <HAL_GetTick>
 800317e:	1bc0      	subs	r0, r0, r7
 8003180:	4540      	cmp	r0, r8
 8003182:	d9f7      	bls.n	8003174 <HAL_RCCEx_PeriphCLKConfig+0xd4>
 8003184:	e7db      	b.n	800313e <HAL_RCCEx_PeriphCLKConfig+0x9e>
 8003186:	bf00      	nop
 8003188:	40021000 	.word	0x40021000
 800318c:	40007000 	.word	0x40007000
 8003190:	42420000 	.word	0x42420000

08003194 <TIM_OC1_SetConfig>:
 8003194:	6a03      	ldr	r3, [r0, #32]
 8003196:	b570      	push	{r4, r5, r6, lr}
 8003198:	f023 0301 	bic.w	r3, r3, #1
 800319c:	6203      	str	r3, [r0, #32]
 800319e:	6a03      	ldr	r3, [r0, #32]
 80031a0:	6844      	ldr	r4, [r0, #4]
 80031a2:	6982      	ldr	r2, [r0, #24]
 80031a4:	680d      	ldr	r5, [r1, #0]
 80031a6:	f022 0273 	bic.w	r2, r2, #115	; 0x73
 80031aa:	432a      	orrs	r2, r5
 80031ac:	688d      	ldr	r5, [r1, #8]
 80031ae:	f023 0302 	bic.w	r3, r3, #2
 80031b2:	432b      	orrs	r3, r5
 80031b4:	4d0a      	ldr	r5, [pc, #40]	; (80031e0 <TIM_OC1_SetConfig+0x4c>)
 80031b6:	42a8      	cmp	r0, r5
 80031b8:	d10b      	bne.n	80031d2 <TIM_OC1_SetConfig+0x3e>
 80031ba:	68cd      	ldr	r5, [r1, #12]
 80031bc:	f023 0308 	bic.w	r3, r3, #8
 80031c0:	432b      	orrs	r3, r5
 80031c2:	f424 7440 	bic.w	r4, r4, #768	; 0x300
 80031c6:	e9d1 5605 	ldrd	r5, r6, [r1, #20]
 80031ca:	4335      	orrs	r5, r6
 80031cc:	f023 0304 	bic.w	r3, r3, #4
 80031d0:	432c      	orrs	r4, r5
 80031d2:	6044      	str	r4, [r0, #4]
 80031d4:	6182      	str	r2, [r0, #24]
 80031d6:	684a      	ldr	r2, [r1, #4]
 80031d8:	6342      	str	r2, [r0, #52]	; 0x34
 80031da:	6203      	str	r3, [r0, #32]
 80031dc:	bd70      	pop	{r4, r5, r6, pc}
 80031de:	bf00      	nop
 80031e0:	40012c00 	.word	0x40012c00

080031e4 <TIM_OC3_SetConfig>:
 80031e4:	6a03      	ldr	r3, [r0, #32]
 80031e6:	b570      	push	{r4, r5, r6, lr}
 80031e8:	f423 7380 	bic.w	r3, r3, #256	; 0x100
 80031ec:	6203      	str	r3, [r0, #32]
 80031ee:	6a03      	ldr	r3, [r0, #32]
 80031f0:	6844      	ldr	r4, [r0, #4]
 80031f2:	69c2      	ldr	r2, [r0, #28]
 80031f4:	680d      	ldr	r5, [r1, #0]
 80031f6:	f022 0273 	bic.w	r2, r2, #115	; 0x73
 80031fa:	432a      	orrs	r2, r5
 80031fc:	688d      	ldr	r5, [r1, #8]
 80031fe:	f423 7300 	bic.w	r3, r3, #512	; 0x200
 8003202:	ea43 2305 	orr.w	r3, r3, r5, lsl #8
 8003206:	4d0b      	ldr	r5, [pc, #44]	; (8003234 <TIM_OC3_SetConfig+0x50>)
 8003208:	42a8      	cmp	r0, r5
 800320a:	d10d      	bne.n	8003228 <TIM_OC3_SetConfig+0x44>
 800320c:	68cd      	ldr	r5, [r1, #12]
 800320e:	f423 6300 	bic.w	r3, r3, #2048	; 0x800
 8003212:	ea43 2305 	orr.w	r3, r3, r5, lsl #8
 8003216:	f424 5440 	bic.w	r4, r4, #12288	; 0x3000
 800321a:	e9d1 5605 	ldrd	r5, r6, [r1, #20]
 800321e:	4335      	orrs	r5, r6
 8003220:	f423 6380 	bic.w	r3, r3, #1024	; 0x400
 8003224:	ea44 1405 	orr.w	r4, r4, r5, lsl #4
 8003228:	6044      	str	r4, [r0, #4]
 800322a:	61c2      	str	r2, [r0, #28]
 800322c:	684a      	ldr	r2, [r1, #4]
 800322e:	63c2      	str	r2, [r0, #60]	; 0x3c
 8003230:	6203      	str	r3, [r0, #32]
 8003232:	bd70      	pop	{r4, r5, r6, pc}
 8003234:	40012c00 	.word	0x40012c00

08003238 <TIM_OC4_SetConfig>:
 8003238:	6a03      	ldr	r3, [r0, #32]
 800323a:	b530      	push	{r4, r5, lr}
 800323c:	f423 5380 	bic.w	r3, r3, #4096	; 0x1000
 8003240:	6203      	str	r3, [r0, #32]
 8003242:	6a03      	ldr	r3, [r0, #32]
 8003244:	6844      	ldr	r4, [r0, #4]
 8003246:	69c2      	ldr	r2, [r0, #28]
 8003248:	680d      	ldr	r5, [r1, #0]
 800324a:	f422 42e6 	bic.w	r2, r2, #29440	; 0x7300
 800324e:	ea42 2205 	orr.w	r2, r2, r5, lsl #8
 8003252:	688d      	ldr	r5, [r1, #8]
 8003254:	f423 5300 	bic.w	r3, r3, #8192	; 0x2000
 8003258:	ea43 3305 	orr.w	r3, r3, r5, lsl #12
 800325c:	4d06      	ldr	r5, [pc, #24]	; (8003278 <TIM_OC4_SetConfig+0x40>)
 800325e:	42a8      	cmp	r0, r5
 8003260:	bf02      	ittt	eq
 8003262:	694d      	ldreq	r5, [r1, #20]
 8003264:	f424 4480 	biceq.w	r4, r4, #16384	; 0x4000
 8003268:	ea44 1485 	orreq.w	r4, r4, r5, lsl #6
 800326c:	6044      	str	r4, [r0, #4]
 800326e:	61c2      	str	r2, [r0, #28]
 8003270:	684a      	ldr	r2, [r1, #4]
 8003272:	6402      	str	r2, [r0, #64]	; 0x40
 8003274:	6203      	str	r3, [r0, #32]
 8003276:	bd30      	pop	{r4, r5, pc}
 8003278:	40012c00 	.word	0x40012c00

0800327c <HAL_TIM_PWM_MspInit>:
 800327c:	4770      	bx	lr

0800327e <HAL_TIM_IC_MspInit>:
 800327e:	4770      	bx	lr

08003280 <HAL_TIM_ReadCapturedValue>:
 8003280:	2908      	cmp	r1, #8
 8003282:	d010      	beq.n	80032a6 <HAL_TIM_ReadCapturedValue+0x26>
 8003284:	d804      	bhi.n	8003290 <HAL_TIM_ReadCapturedValue+0x10>
 8003286:	b141      	cbz	r1, 800329a <HAL_TIM_ReadCapturedValue+0x1a>
 8003288:	2904      	cmp	r1, #4
 800328a:	d009      	beq.n	80032a0 <HAL_TIM_ReadCapturedValue+0x20>
 800328c:	2000      	movs	r0, #0
 800328e:	4770      	bx	lr
 8003290:	290c      	cmp	r1, #12
 8003292:	d1fb      	bne.n	800328c <HAL_TIM_ReadCapturedValue+0xc>
 8003294:	6803      	ldr	r3, [r0, #0]
 8003296:	6c18      	ldr	r0, [r3, #64]	; 0x40
 8003298:	4770      	bx	lr
 800329a:	6803      	ldr	r3, [r0, #0]
 800329c:	6b58      	ldr	r0, [r3, #52]	; 0x34
 800329e:	4770      	bx	lr
 80032a0:	6803      	ldr	r3, [r0, #0]
 80032a2:	6b98      	ldr	r0, [r3, #56]	; 0x38
 80032a4:	4770      	bx	lr
 80032a6:	6803      	ldr	r3, [r0, #0]
 80032a8:	6bd8      	ldr	r0, [r3, #60]	; 0x3c
 80032aa:	4770      	bx	lr

080032ac <HAL_TIM_PeriodElapsedCallback>:
 80032ac:	4770      	bx	lr

080032ae <HAL_TIM_OC_DelayElapsedCallback>:
 80032ae:	4770      	bx	lr

080032b0 <HAL_TIM_PWM_PulseFinishedCallback>:
 80032b0:	4770      	bx	lr

080032b2 <HAL_TIM_TriggerCallback>:
 80032b2:	4770      	bx	lr

080032b4 <HAL_TIM_IRQHandler>:
 80032b4:	6803      	ldr	r3, [r0, #0]
 80032b6:	b510      	push	{r4, lr}
 80032b8:	691a      	ldr	r2, [r3, #16]
 80032ba:	4604      	mov	r4, r0
 80032bc:	0791      	lsls	r1, r2, #30
 80032be:	d50e      	bpl.n	80032de <HAL_TIM_IRQHandler+0x2a>
 80032c0:	68da      	ldr	r2, [r3, #12]
 80032c2:	0792      	lsls	r2, r2, #30
 80032c4:	d50b      	bpl.n	80032de <HAL_TIM_IRQHandler+0x2a>
 80032c6:	f06f 0202 	mvn.w	r2, #2
 80032ca:	611a      	str	r2, [r3, #16]
 80032cc:	2201      	movs	r2, #1
 80032ce:	7702      	strb	r2, [r0, #28]
 80032d0:	699b      	ldr	r3, [r3, #24]
 80032d2:	079b      	lsls	r3, r3, #30
 80032d4:	d077      	beq.n	80033c6 <HAL_TIM_IRQHandler+0x112>
 80032d6:	f7fe f917 	bl	8001508 <HAL_TIM_IC_CaptureCallback>
 80032da:	2300      	movs	r3, #0
 80032dc:	7723      	strb	r3, [r4, #28]
 80032de:	6823      	ldr	r3, [r4, #0]
 80032e0:	691a      	ldr	r2, [r3, #16]
 80032e2:	0750      	lsls	r0, r2, #29
 80032e4:	d510      	bpl.n	8003308 <HAL_TIM_IRQHandler+0x54>
 80032e6:	68da      	ldr	r2, [r3, #12]
 80032e8:	0751      	lsls	r1, r2, #29
 80032ea:	d50d      	bpl.n	8003308 <HAL_TIM_IRQHandler+0x54>
 80032ec:	f06f 0204 	mvn.w	r2, #4
 80032f0:	611a      	str	r2, [r3, #16]
 80032f2:	2202      	movs	r2, #2
 80032f4:	7722      	strb	r2, [r4, #28]
 80032f6:	699b      	ldr	r3, [r3, #24]
 80032f8:	4620      	mov	r0, r4
 80032fa:	f413 7f40 	tst.w	r3, #768	; 0x300
 80032fe:	d068      	beq.n	80033d2 <HAL_TIM_IRQHandler+0x11e>
 8003300:	f7fe f902 	bl	8001508 <HAL_TIM_IC_CaptureCallback>
 8003304:	2300      	movs	r3, #0
 8003306:	7723      	strb	r3, [r4, #28]
 8003308:	6823      	ldr	r3, [r4, #0]
 800330a:	691a      	ldr	r2, [r3, #16]
 800330c:	0712      	lsls	r2, r2, #28
 800330e:	d50f      	bpl.n	8003330 <HAL_TIM_IRQHandler+0x7c>
 8003310:	68da      	ldr	r2, [r3, #12]
 8003312:	0710      	lsls	r0, r2, #28
 8003314:	d50c      	bpl.n	8003330 <HAL_TIM_IRQHandler+0x7c>
 8003316:	f06f 0208 	mvn.w	r2, #8
 800331a:	611a      	str	r2, [r3, #16]
 800331c:	2204      	movs	r2, #4
 800331e:	7722      	strb	r2, [r4, #28]
 8003320:	69db      	ldr	r3, [r3, #28]
 8003322:	4620      	mov	r0, r4
 8003324:	0799      	lsls	r1, r3, #30
 8003326:	d05a      	beq.n	80033de <HAL_TIM_IRQHandler+0x12a>
 8003328:	f7fe f8ee 	bl	8001508 <HAL_TIM_IC_CaptureCallback>
 800332c:	2300      	movs	r3, #0
 800332e:	7723      	strb	r3, [r4, #28]
 8003330:	6823      	ldr	r3, [r4, #0]
 8003332:	691a      	ldr	r2, [r3, #16]
 8003334:	06d2      	lsls	r2, r2, #27
 8003336:	d510      	bpl.n	800335a <HAL_TIM_IRQHandler+0xa6>
 8003338:	68da      	ldr	r2, [r3, #12]
 800333a:	06d0      	lsls	r0, r2, #27
 800333c:	d50d      	bpl.n	800335a <HAL_TIM_IRQHandler+0xa6>
 800333e:	f06f 0210 	mvn.w	r2, #16
 8003342:	611a      	str	r2, [r3, #16]
 8003344:	2208      	movs	r2, #8
 8003346:	7722      	strb	r2, [r4, #28]
 8003348:	69db      	ldr	r3, [r3, #28]
 800334a:	4620      	mov	r0, r4
 800334c:	f413 7f40 	tst.w	r3, #768	; 0x300
 8003350:	d04b      	beq.n	80033ea <HAL_TIM_IRQHandler+0x136>
 8003352:	f7fe f8d9 	bl	8001508 <HAL_TIM_IC_CaptureCallback>
 8003356:	2300      	movs	r3, #0
 8003358:	7723      	strb	r3, [r4, #28]
 800335a:	6823      	ldr	r3, [r4, #0]
 800335c:	691a      	ldr	r2, [r3, #16]
 800335e:	07d1      	lsls	r1, r2, #31
 8003360:	d508      	bpl.n	8003374 <HAL_TIM_IRQHandler+0xc0>
 8003362:	68da      	ldr	r2, [r3, #12]
 8003364:	07d2      	lsls	r2, r2, #31
 8003366:	d505      	bpl.n	8003374 <HAL_TIM_IRQHandler+0xc0>
 8003368:	f06f 0201 	mvn.w	r2, #1
 800336c:	4620      	mov	r0, r4
 800336e:	611a      	str	r2, [r3, #16]
 8003370:	f7ff ff9c 	bl	80032ac <HAL_TIM_PeriodElapsedCallback>
 8003374:	6823      	ldr	r3, [r4, #0]
 8003376:	691a      	ldr	r2, [r3, #16]
 8003378:	0610      	lsls	r0, r2, #24
 800337a:	d508      	bpl.n	800338e <HAL_TIM_IRQHandler+0xda>
 800337c:	68da      	ldr	r2, [r3, #12]
 800337e:	0611      	lsls	r1, r2, #24
 8003380:	d505      	bpl.n	800338e <HAL_TIM_IRQHandler+0xda>
 8003382:	f06f 0280 	mvn.w	r2, #128	; 0x80
 8003386:	4620      	mov	r0, r4
 8003388:	611a      	str	r2, [r3, #16]
 800338a:	f000 fc3e 	bl	8003c0a <HAL_TIMEx_BreakCallback>
 800338e:	6823      	ldr	r3, [r4, #0]
 8003390:	691a      	ldr	r2, [r3, #16]
 8003392:	0652      	lsls	r2, r2, #25
 8003394:	d508      	bpl.n	80033a8 <HAL_TIM_IRQHandler+0xf4>
 8003396:	68da      	ldr	r2, [r3, #12]
 8003398:	0650      	lsls	r0, r2, #25
 800339a:	d505      	bpl.n	80033a8 <HAL_TIM_IRQHandler+0xf4>
 800339c:	f06f 0240 	mvn.w	r2, #64	; 0x40
 80033a0:	4620      	mov	r0, r4
 80033a2:	611a      	str	r2, [r3, #16]
 80033a4:	f7ff ff85 	bl	80032b2 <HAL_TIM_TriggerCallback>
 80033a8:	6823      	ldr	r3, [r4, #0]
 80033aa:	691a      	ldr	r2, [r3, #16]
 80033ac:	0691      	lsls	r1, r2, #26
 80033ae:	d522      	bpl.n	80033f6 <HAL_TIM_IRQHandler+0x142>
 80033b0:	68da      	ldr	r2, [r3, #12]
 80033b2:	0692      	lsls	r2, r2, #26
 80033b4:	d51f      	bpl.n	80033f6 <HAL_TIM_IRQHandler+0x142>
 80033b6:	f06f 0220 	mvn.w	r2, #32
 80033ba:	4620      	mov	r0, r4
 80033bc:	e8bd 4010 	ldmia.w	sp!, {r4, lr}
 80033c0:	611a      	str	r2, [r3, #16]
 80033c2:	f000 bc21 	b.w	8003c08 <HAL_TIMEx_CommutCallback>
 80033c6:	f7ff ff72 	bl	80032ae <HAL_TIM_OC_DelayElapsedCallback>
 80033ca:	4620      	mov	r0, r4
 80033cc:	f7ff ff70 	bl	80032b0 <HAL_TIM_PWM_PulseFinishedCallback>
 80033d0:	e783      	b.n	80032da <HAL_TIM_IRQHandler+0x26>
 80033d2:	f7ff ff6c 	bl	80032ae <HAL_TIM_OC_DelayElapsedCallback>
 80033d6:	4620      	mov	r0, r4
 80033d8:	f7ff ff6a 	bl	80032b0 <HAL_TIM_PWM_PulseFinishedCallback>
 80033dc:	e792      	b.n	8003304 <HAL_TIM_IRQHandler+0x50>
 80033de:	f7ff ff66 	bl	80032ae <HAL_TIM_OC_DelayElapsedCallback>
 80033e2:	4620      	mov	r0, r4
 80033e4:	f7ff ff64 	bl	80032b0 <HAL_TIM_PWM_PulseFinishedCallback>
 80033e8:	e7a0      	b.n	800332c <HAL_TIM_IRQHandler+0x78>
 80033ea:	f7ff ff60 	bl	80032ae <HAL_TIM_OC_DelayElapsedCallback>
 80033ee:	4620      	mov	r0, r4
 80033f0:	f7ff ff5e 	bl	80032b0 <HAL_TIM_PWM_PulseFinishedCallback>
 80033f4:	e7af      	b.n	8003356 <HAL_TIM_IRQHandler+0xa2>
 80033f6:	bd10      	pop	{r4, pc}

080033f8 <TIM_Base_SetConfig>:
 80033f8:	4a1a      	ldr	r2, [pc, #104]	; (8003464 <TIM_Base_SetConfig+0x6c>)
 80033fa:	6803      	ldr	r3, [r0, #0]
 80033fc:	4290      	cmp	r0, r2
 80033fe:	d00a      	beq.n	8003416 <TIM_Base_SetConfig+0x1e>
 8003400:	f1b0 4f80 	cmp.w	r0, #1073741824	; 0x40000000
 8003404:	d007      	beq.n	8003416 <TIM_Base_SetConfig+0x1e>
 8003406:	f5a2 3294 	sub.w	r2, r2, #75776	; 0x12800
 800340a:	4290      	cmp	r0, r2
 800340c:	d003      	beq.n	8003416 <TIM_Base_SetConfig+0x1e>
 800340e:	f502 6280 	add.w	r2, r2, #1024	; 0x400
 8003412:	4290      	cmp	r0, r2
 8003414:	d115      	bne.n	8003442 <TIM_Base_SetConfig+0x4a>
 8003416:	684a      	ldr	r2, [r1, #4]
 8003418:	f023 0370 	bic.w	r3, r3, #112	; 0x70
 800341c:	4313      	orrs	r3, r2
 800341e:	4a11      	ldr	r2, [pc, #68]	; (8003464 <TIM_Base_SetConfig+0x6c>)
 8003420:	4290      	cmp	r0, r2
 8003422:	d00a      	beq.n	800343a <TIM_Base_SetConfig+0x42>
 8003424:	f1b0 4f80 	cmp.w	r0, #1073741824	; 0x40000000
 8003428:	d007      	beq.n	800343a <TIM_Base_SetConfig+0x42>
 800342a:	f5a2 3294 	sub.w	r2, r2, #75776	; 0x12800
 800342e:	4290      	cmp	r0, r2
 8003430:	d003      	beq.n	800343a <TIM_Base_SetConfig+0x42>
 8003432:	f502 6280 	add.w	r2, r2, #1024	; 0x400
 8003436:	4290      	cmp	r0, r2
 8003438:	d103      	bne.n	8003442 <TIM_Base_SetConfig+0x4a>
 800343a:	68ca      	ldr	r2, [r1, #12]
 800343c:	f423 7340 	bic.w	r3, r3, #768	; 0x300
 8003440:	4313      	orrs	r3, r2
 8003442:	694a      	ldr	r2, [r1, #20]
 8003444:	f023 0380 	bic.w	r3, r3, #128	; 0x80
 8003448:	4313      	orrs	r3, r2
 800344a:	6003      	str	r3, [r0, #0]
 800344c:	688b      	ldr	r3, [r1, #8]
 800344e:	62c3      	str	r3, [r0, #44]	; 0x2c
 8003450:	680b      	ldr	r3, [r1, #0]
 8003452:	6283      	str	r3, [r0, #40]	; 0x28
 8003454:	4b03      	ldr	r3, [pc, #12]	; (8003464 <TIM_Base_SetConfig+0x6c>)
 8003456:	4298      	cmp	r0, r3
 8003458:	bf04      	itt	eq
 800345a:	690b      	ldreq	r3, [r1, #16]
 800345c:	6303      	streq	r3, [r0, #48]	; 0x30
 800345e:	2301      	movs	r3, #1
 8003460:	6143      	str	r3, [r0, #20]
 8003462:	4770      	bx	lr
 8003464:	40012c00 	.word	0x40012c00

08003468 <HAL_TIM_Base_Init>:
 8003468:	b510      	push	{r4, lr}
 800346a:	4604      	mov	r4, r0
 800346c:	b330      	cbz	r0, 80034bc <HAL_TIM_Base_Init+0x54>
 800346e:	f890 303d 	ldrb.w	r3, [r0, #61]	; 0x3d
 8003472:	f003 02ff 	and.w	r2, r3, #255	; 0xff
 8003476:	b91b      	cbnz	r3, 8003480 <HAL_TIM_Base_Init+0x18>
 8003478:	f880 203c 	strb.w	r2, [r0, #60]	; 0x3c
 800347c:	f7fe fb0e 	bl	8001a9c <HAL_TIM_Base_MspInit>
 8003480:	2302      	movs	r3, #2
 8003482:	6820      	ldr	r0, [r4, #0]
 8003484:	f884 303d 	strb.w	r3, [r4, #61]	; 0x3d
 8003488:	1d21      	adds	r1, r4, #4
 800348a:	f7ff ffb5 	bl	80033f8 <TIM_Base_SetConfig>
 800348e:	2301      	movs	r3, #1
 8003490:	2000      	movs	r0, #0
 8003492:	f884 3046 	strb.w	r3, [r4, #70]	; 0x46
 8003496:	f884 303e 	strb.w	r3, [r4, #62]	; 0x3e
 800349a:	f884 303f 	strb.w	r3, [r4, #63]	; 0x3f
 800349e:	f884 3040 	strb.w	r3, [r4, #64]	; 0x40
 80034a2:	f884 3041 	strb.w	r3, [r4, #65]	; 0x41
 80034a6:	f884 3042 	strb.w	r3, [r4, #66]	; 0x42
 80034aa:	f884 3043 	strb.w	r3, [r4, #67]	; 0x43
 80034ae:	f884 3044 	strb.w	r3, [r4, #68]	; 0x44
 80034b2:	f884 3045 	strb.w	r3, [r4, #69]	; 0x45
 80034b6:	f884 303d 	strb.w	r3, [r4, #61]	; 0x3d
 80034ba:	bd10      	pop	{r4, pc}
 80034bc:	2001      	movs	r0, #1
 80034be:	e7fc      	b.n	80034ba <HAL_TIM_Base_Init+0x52>

080034c0 <HAL_TIM_PWM_Init>:
 80034c0:	b510      	push	{r4, lr}
 80034c2:	4604      	mov	r4, r0
 80034c4:	b330      	cbz	r0, 8003514 <HAL_TIM_PWM_Init+0x54>
 80034c6:	f890 303d 	ldrb.w	r3, [r0, #61]	; 0x3d
 80034ca:	f003 02ff 	and.w	r2, r3, #255	; 0xff
 80034ce:	b91b      	cbnz	r3, 80034d8 <HAL_TIM_PWM_Init+0x18>
 80034d0:	f880 203c 	strb.w	r2, [r0, #60]	; 0x3c
 80034d4:	f7ff fed2 	bl	800327c <HAL_TIM_PWM_MspInit>
 80034d8:	2302      	movs	r3, #2
 80034da:	6820      	ldr	r0, [r4, #0]
 80034dc:	f884 303d 	strb.w	r3, [r4, #61]	; 0x3d
 80034e0:	1d21      	adds	r1, r4, #4
 80034e2:	f7ff ff89 	bl	80033f8 <TIM_Base_SetConfig>
 80034e6:	2301      	movs	r3, #1
 80034e8:	2000      	movs	r0, #0
 80034ea:	f884 3046 	strb.w	r3, [r4, #70]	; 0x46
 80034ee:	f884 303e 	strb.w	r3, [r4, #62]	; 0x3e
 80034f2:	f884 303f 	strb.w	r3, [r4, #63]	; 0x3f
 80034f6:	f884 3040 	strb.w	r3, [r4, #64]	; 0x40
 80034fa:	f884 3041 	strb.w	r3, [r4, #65]	; 0x41
 80034fe:	f884 3042 	strb.w	r3, [r4, #66]	; 0x42
 8003502:	f884 3043 	strb.w	r3, [r4, #67]	; 0x43
 8003506:	f884 3044 	strb.w	r3, [r4, #68]	; 0x44
 800350a:	f884 3045 	strb.w	r3, [r4, #69]	; 0x45
 800350e:	f884 303d 	strb.w	r3, [r4, #61]	; 0x3d
 8003512:	bd10      	pop	{r4, pc}
 8003514:	2001      	movs	r0, #1
 8003516:	e7fc      	b.n	8003512 <HAL_TIM_PWM_Init+0x52>

08003518 <HAL_TIM_IC_Init>:
 8003518:	b510      	push	{r4, lr}
 800351a:	4604      	mov	r4, r0
 800351c:	b330      	cbz	r0, 800356c <HAL_TIM_IC_Init+0x54>
 800351e:	f890 303d 	ldrb.w	r3, [r0, #61]	; 0x3d
 8003522:	f003 02ff 	and.w	r2, r3, #255	; 0xff
 8003526:	b91b      	cbnz	r3, 8003530 <HAL_TIM_IC_Init+0x18>
 8003528:	f880 203c 	strb.w	r2, [r0, #60]	; 0x3c
 800352c:	f7ff fea7 	bl	800327e <HAL_TIM_IC_MspInit>
 8003530:	2302      	movs	r3, #2
 8003532:	6820      	ldr	r0, [r4, #0]
 8003534:	f884 303d 	strb.w	r3, [r4, #61]	; 0x3d
 8003538:	1d21      	adds	r1, r4, #4
 800353a:	f7ff ff5d 	bl	80033f8 <TIM_Base_SetConfig>
 800353e:	2301      	movs	r3, #1
 8003540:	2000      	movs	r0, #0
 8003542:	f884 3046 	strb.w	r3, [r4, #70]	; 0x46
 8003546:	f884 303e 	strb.w	r3, [r4, #62]	; 0x3e
 800354a:	f884 303f 	strb.w	r3, [r4, #63]	; 0x3f
 800354e:	f884 3040 	strb.w	r3, [r4, #64]	; 0x40
 8003552:	f884 3041 	strb.w	r3, [r4, #65]	; 0x41
 8003556:	f884 3042 	strb.w	r3, [r4, #66]	; 0x42
 800355a:	f884 3043 	strb.w	r3, [r4, #67]	; 0x43
 800355e:	f884 3044 	strb.w	r3, [r4, #68]	; 0x44
 8003562:	f884 3045 	strb.w	r3, [r4, #69]	; 0x45
 8003566:	f884 303d 	strb.w	r3, [r4, #61]	; 0x3d
 800356a:	bd10      	pop	{r4, pc}
 800356c:	2001      	movs	r0, #1
 800356e:	e7fc      	b.n	800356a <HAL_TIM_IC_Init+0x52>

08003570 <TIM_OC2_SetConfig>:
 8003570:	6a03      	ldr	r3, [r0, #32]
 8003572:	b570      	push	{r4, r5, r6, lr}
 8003574:	f023 0310 	bic.w	r3, r3, #16
 8003578:	6203      	str	r3, [r0, #32]
 800357a:	6a03      	ldr	r3, [r0, #32]
 800357c:	6844      	ldr	r4, [r0, #4]
 800357e:	6982      	ldr	r2, [r0, #24]
 8003580:	680d      	ldr	r5, [r1, #0]
 8003582:	f422 42e6 	bic.w	r2, r2, #29440	; 0x7300
 8003586:	ea42 2205 	orr.w	r2, r2, r5, lsl #8
 800358a:	688d      	ldr	r5, [r1, #8]
 800358c:	f023 0320 	bic.w	r3, r3, #32
 8003590:	ea43 1305 	orr.w	r3, r3, r5, lsl #4
 8003594:	4d0b      	ldr	r5, [pc, #44]	; (80035c4 <TIM_OC2_SetConfig+0x54>)
 8003596:	42a8      	cmp	r0, r5
 8003598:	d10d      	bne.n	80035b6 <TIM_OC2_SetConfig+0x46>
 800359a:	68cd      	ldr	r5, [r1, #12]
 800359c:	f023 0380 	bic.w	r3, r3, #128	; 0x80
 80035a0:	ea43 1305 	orr.w	r3, r3, r5, lsl #4
 80035a4:	f424 6440 	bic.w	r4, r4, #3072	; 0xc00
 80035a8:	e9d1 5605 	ldrd	r5, r6, [r1, #20]
 80035ac:	4335      	orrs	r5, r6
 80035ae:	f023 0340 	bic.w	r3, r3, #64	; 0x40
 80035b2:	ea44 0485 	orr.w	r4, r4, r5, lsl #2
 80035b6:	6044      	str	r4, [r0, #4]
 80035b8:	6182      	str	r2, [r0, #24]
 80035ba:	684a      	ldr	r2, [r1, #4]
 80035bc:	6382      	str	r2, [r0, #56]	; 0x38
 80035be:	6203      	str	r3, [r0, #32]
 80035c0:	bd70      	pop	{r4, r5, r6, pc}
 80035c2:	bf00      	nop
 80035c4:	40012c00 	.word	0x40012c00

080035c8 <HAL_TIM_PWM_ConfigChannel>:
 80035c8:	b538      	push	{r3, r4, r5, lr}
 80035ca:	f890 303c 	ldrb.w	r3, [r0, #60]	; 0x3c
 80035ce:	4604      	mov	r4, r0
 80035d0:	2b01      	cmp	r3, #1
 80035d2:	d052      	beq.n	800367a <HAL_TIM_PWM_ConfigChannel+0xb2>
 80035d4:	2301      	movs	r3, #1
 80035d6:	2a08      	cmp	r2, #8
 80035d8:	f880 303c 	strb.w	r3, [r0, #60]	; 0x3c
 80035dc:	d03c      	beq.n	8003658 <HAL_TIM_PWM_ConfigChannel+0x90>
 80035de:	d806      	bhi.n	80035ee <HAL_TIM_PWM_ConfigChannel+0x26>
 80035e0:	b1c2      	cbz	r2, 8003614 <HAL_TIM_PWM_ConfigChannel+0x4c>
 80035e2:	2a04      	cmp	r2, #4
 80035e4:	d027      	beq.n	8003636 <HAL_TIM_PWM_ConfigChannel+0x6e>
 80035e6:	2000      	movs	r0, #0
 80035e8:	f884 003c 	strb.w	r0, [r4, #60]	; 0x3c
 80035ec:	bd38      	pop	{r3, r4, r5, pc}
 80035ee:	2a0c      	cmp	r2, #12
 80035f0:	d1f9      	bne.n	80035e6 <HAL_TIM_PWM_ConfigChannel+0x1e>
 80035f2:	6800      	ldr	r0, [r0, #0]
 80035f4:	f7ff fe20 	bl	8003238 <TIM_OC4_SetConfig>
 80035f8:	6823      	ldr	r3, [r4, #0]
 80035fa:	6909      	ldr	r1, [r1, #16]
 80035fc:	69da      	ldr	r2, [r3, #28]
 80035fe:	f442 6200 	orr.w	r2, r2, #2048	; 0x800
 8003602:	61da      	str	r2, [r3, #28]
 8003604:	69da      	ldr	r2, [r3, #28]
 8003606:	f422 6280 	bic.w	r2, r2, #1024	; 0x400
 800360a:	61da      	str	r2, [r3, #28]
 800360c:	69da      	ldr	r2, [r3, #28]
 800360e:	ea42 2201 	orr.w	r2, r2, r1, lsl #8
 8003612:	e030      	b.n	8003676 <HAL_TIM_PWM_ConfigChannel+0xae>
 8003614:	6800      	ldr	r0, [r0, #0]
 8003616:	f7ff fdbd 	bl	8003194 <TIM_OC1_SetConfig>
 800361a:	6823      	ldr	r3, [r4, #0]
 800361c:	6909      	ldr	r1, [r1, #16]
 800361e:	699a      	ldr	r2, [r3, #24]
 8003620:	f042 0208 	orr.w	r2, r2, #8
 8003624:	619a      	str	r2, [r3, #24]
 8003626:	699a      	ldr	r2, [r3, #24]
 8003628:	f022 0204 	bic.w	r2, r2, #4
 800362c:	619a      	str	r2, [r3, #24]
 800362e:	699a      	ldr	r2, [r3, #24]
 8003630:	430a      	orrs	r2, r1
 8003632:	619a      	str	r2, [r3, #24]
 8003634:	e7d7      	b.n	80035e6 <HAL_TIM_PWM_ConfigChannel+0x1e>
 8003636:	6800      	ldr	r0, [r0, #0]
 8003638:	f7ff ff9a 	bl	8003570 <TIM_OC2_SetConfig>
 800363c:	6823      	ldr	r3, [r4, #0]
 800363e:	6909      	ldr	r1, [r1, #16]
 8003640:	699a      	ldr	r2, [r3, #24]
 8003642:	f442 6200 	orr.w	r2, r2, #2048	; 0x800
 8003646:	619a      	str	r2, [r3, #24]
 8003648:	699a      	ldr	r2, [r3, #24]
 800364a:	f422 6280 	bic.w	r2, r2, #1024	; 0x400
 800364e:	619a      	str	r2, [r3, #24]
 8003650:	699a      	ldr	r2, [r3, #24]
 8003652:	ea42 2201 	orr.w	r2, r2, r1, lsl #8
 8003656:	e7ec      	b.n	8003632 <HAL_TIM_PWM_ConfigChannel+0x6a>
 8003658:	6800      	ldr	r0, [r0, #0]
 800365a:	f7ff fdc3 	bl	80031e4 <TIM_OC3_SetConfig>
 800365e:	6823      	ldr	r3, [r4, #0]
 8003660:	6909      	ldr	r1, [r1, #16]
 8003662:	69da      	ldr	r2, [r3, #28]
 8003664:	f042 0208 	orr.w	r2, r2, #8
 8003668:	61da      	str	r2, [r3, #28]
 800366a:	69da      	ldr	r2, [r3, #28]
 800366c:	f022 0204 	bic.w	r2, r2, #4
 8003670:	61da      	str	r2, [r3, #28]
 8003672:	69da      	ldr	r2, [r3, #28]
 8003674:	430a      	orrs	r2, r1
 8003676:	61da      	str	r2, [r3, #28]
 8003678:	e7b5      	b.n	80035e6 <HAL_TIM_PWM_ConfigChannel+0x1e>
 800367a:	2002      	movs	r0, #2
 800367c:	e7b6      	b.n	80035ec <HAL_TIM_PWM_ConfigChannel+0x24>
	...

08003680 <TIM_TI1_SetConfig>:
 8003680:	b570      	push	{r4, r5, r6, lr}
 8003682:	6a04      	ldr	r4, [r0, #32]
 8003684:	4e12      	ldr	r6, [pc, #72]	; (80036d0 <TIM_TI1_SetConfig+0x50>)
 8003686:	f024 0401 	bic.w	r4, r4, #1
 800368a:	6204      	str	r4, [r0, #32]
 800368c:	42b0      	cmp	r0, r6
 800368e:	6984      	ldr	r4, [r0, #24]
 8003690:	6a05      	ldr	r5, [r0, #32]
 8003692:	d019      	beq.n	80036c8 <TIM_TI1_SetConfig+0x48>
 8003694:	f1b0 4f80 	cmp.w	r0, #1073741824	; 0x40000000
 8003698:	d016      	beq.n	80036c8 <TIM_TI1_SetConfig+0x48>
 800369a:	f5a6 3694 	sub.w	r6, r6, #75776	; 0x12800
 800369e:	42b0      	cmp	r0, r6
 80036a0:	d012      	beq.n	80036c8 <TIM_TI1_SetConfig+0x48>
 80036a2:	f506 6680 	add.w	r6, r6, #1024	; 0x400
 80036a6:	42b0      	cmp	r0, r6
 80036a8:	d00e      	beq.n	80036c8 <TIM_TI1_SetConfig+0x48>
 80036aa:	f044 0201 	orr.w	r2, r4, #1
 80036ae:	011b      	lsls	r3, r3, #4
 80036b0:	f022 02f0 	bic.w	r2, r2, #240	; 0xf0
 80036b4:	b2db      	uxtb	r3, r3
 80036b6:	4313      	orrs	r3, r2
 80036b8:	f001 010a 	and.w	r1, r1, #10
 80036bc:	f025 020a 	bic.w	r2, r5, #10
 80036c0:	4311      	orrs	r1, r2
 80036c2:	6183      	str	r3, [r0, #24]
 80036c4:	6201      	str	r1, [r0, #32]
 80036c6:	bd70      	pop	{r4, r5, r6, pc}
 80036c8:	f024 0403 	bic.w	r4, r4, #3
 80036cc:	4322      	orrs	r2, r4
 80036ce:	e7ee      	b.n	80036ae <TIM_TI1_SetConfig+0x2e>
 80036d0:	40012c00 	.word	0x40012c00

080036d4 <HAL_TIM_IC_ConfigChannel>:
 80036d4:	b5f8      	push	{r3, r4, r5, r6, r7, lr}
 80036d6:	f890 303c 	ldrb.w	r3, [r0, #60]	; 0x3c
 80036da:	4604      	mov	r4, r0
 80036dc:	2b01      	cmp	r3, #1
 80036de:	460e      	mov	r6, r1
 80036e0:	4615      	mov	r5, r2
 80036e2:	d079      	beq.n	80037d8 <HAL_TIM_IC_ConfigChannel+0x104>
 80036e4:	2301      	movs	r3, #1
 80036e6:	f880 303c 	strb.w	r3, [r0, #60]	; 0x3c
 80036ea:	68f3      	ldr	r3, [r6, #12]
 80036ec:	6800      	ldr	r0, [r0, #0]
 80036ee:	c906      	ldmia	r1, {r1, r2}
 80036f0:	b975      	cbnz	r5, 8003710 <HAL_TIM_IC_ConfigChannel+0x3c>
 80036f2:	f7ff ffc5 	bl	8003680 <TIM_TI1_SetConfig>
 80036f6:	6823      	ldr	r3, [r4, #0]
 80036f8:	68b1      	ldr	r1, [r6, #8]
 80036fa:	699a      	ldr	r2, [r3, #24]
 80036fc:	f022 020c 	bic.w	r2, r2, #12
 8003700:	619a      	str	r2, [r3, #24]
 8003702:	699a      	ldr	r2, [r3, #24]
 8003704:	430a      	orrs	r2, r1
 8003706:	619a      	str	r2, [r3, #24]
 8003708:	2000      	movs	r0, #0
 800370a:	f884 003c 	strb.w	r0, [r4, #60]	; 0x3c
 800370e:	bdf8      	pop	{r3, r4, r5, r6, r7, pc}
 8003710:	2d04      	cmp	r5, #4
 8003712:	68b6      	ldr	r6, [r6, #8]
 8003714:	d122      	bne.n	800375c <HAL_TIM_IC_ConfigChannel+0x88>
 8003716:	6a05      	ldr	r5, [r0, #32]
 8003718:	0109      	lsls	r1, r1, #4
 800371a:	f025 0510 	bic.w	r5, r5, #16
 800371e:	6205      	str	r5, [r0, #32]
 8003720:	6987      	ldr	r7, [r0, #24]
 8003722:	f8d0 e020 	ldr.w	lr, [r0, #32]
 8003726:	f427 7c40 	bic.w	ip, r7, #768	; 0x300
 800372a:	031d      	lsls	r5, r3, #12
 800372c:	ea4c 2c02 	orr.w	ip, ip, r2, lsl #8
 8003730:	f42c 4c70 	bic.w	ip, ip, #61440	; 0xf000
 8003734:	b2ad      	uxth	r5, r5
 8003736:	f02e 0ea0 	bic.w	lr, lr, #160	; 0xa0
 800373a:	f001 01a0 	and.w	r1, r1, #160	; 0xa0
 800373e:	ea45 050c 	orr.w	r5, r5, ip
 8003742:	ea41 010e 	orr.w	r1, r1, lr
 8003746:	6185      	str	r5, [r0, #24]
 8003748:	6201      	str	r1, [r0, #32]
 800374a:	6983      	ldr	r3, [r0, #24]
 800374c:	f423 6340 	bic.w	r3, r3, #3072	; 0xc00
 8003750:	6183      	str	r3, [r0, #24]
 8003752:	6983      	ldr	r3, [r0, #24]
 8003754:	ea43 2606 	orr.w	r6, r3, r6, lsl #8
 8003758:	6186      	str	r6, [r0, #24]
 800375a:	e7d5      	b.n	8003708 <HAL_TIM_IC_ConfigChannel+0x34>
 800375c:	2d08      	cmp	r5, #8
 800375e:	6a05      	ldr	r5, [r0, #32]
 8003760:	d11c      	bne.n	800379c <HAL_TIM_IC_ConfigChannel+0xc8>
 8003762:	f425 7580 	bic.w	r5, r5, #256	; 0x100
 8003766:	6205      	str	r5, [r0, #32]
 8003768:	69c7      	ldr	r7, [r0, #28]
 800376a:	6a05      	ldr	r5, [r0, #32]
 800376c:	f027 0703 	bic.w	r7, r7, #3
 8003770:	4317      	orrs	r7, r2
 8003772:	011b      	lsls	r3, r3, #4
 8003774:	0209      	lsls	r1, r1, #8
 8003776:	b2db      	uxtb	r3, r3
 8003778:	f027 07f0 	bic.w	r7, r7, #240	; 0xf0
 800377c:	f425 7500 	bic.w	r5, r5, #512	; 0x200
 8003780:	f401 7100 	and.w	r1, r1, #512	; 0x200
 8003784:	431f      	orrs	r7, r3
 8003786:	4329      	orrs	r1, r5
 8003788:	61c7      	str	r7, [r0, #28]
 800378a:	6201      	str	r1, [r0, #32]
 800378c:	69c3      	ldr	r3, [r0, #28]
 800378e:	f023 030c 	bic.w	r3, r3, #12
 8003792:	61c3      	str	r3, [r0, #28]
 8003794:	69c3      	ldr	r3, [r0, #28]
 8003796:	431e      	orrs	r6, r3
 8003798:	61c6      	str	r6, [r0, #28]
 800379a:	e7b5      	b.n	8003708 <HAL_TIM_IC_ConfigChannel+0x34>
 800379c:	f425 5580 	bic.w	r5, r5, #4096	; 0x1000
 80037a0:	6205      	str	r5, [r0, #32]
 80037a2:	69c5      	ldr	r5, [r0, #28]
 80037a4:	6a07      	ldr	r7, [r0, #32]
 80037a6:	f425 7540 	bic.w	r5, r5, #768	; 0x300
 80037aa:	ea45 2502 	orr.w	r5, r5, r2, lsl #8
 80037ae:	031b      	lsls	r3, r3, #12
 80037b0:	0309      	lsls	r1, r1, #12
 80037b2:	f425 4570 	bic.w	r5, r5, #61440	; 0xf000
 80037b6:	b29b      	uxth	r3, r3
 80037b8:	f427 5700 	bic.w	r7, r7, #8192	; 0x2000
 80037bc:	f401 5100 	and.w	r1, r1, #8192	; 0x2000
 80037c0:	432b      	orrs	r3, r5
 80037c2:	4339      	orrs	r1, r7
 80037c4:	61c3      	str	r3, [r0, #28]
 80037c6:	6201      	str	r1, [r0, #32]
 80037c8:	69c3      	ldr	r3, [r0, #28]
 80037ca:	f423 6340 	bic.w	r3, r3, #3072	; 0xc00
 80037ce:	61c3      	str	r3, [r0, #28]
 80037d0:	69c3      	ldr	r3, [r0, #28]
 80037d2:	ea43 2606 	orr.w	r6, r3, r6, lsl #8
 80037d6:	e7df      	b.n	8003798 <HAL_TIM_IC_ConfigChannel+0xc4>
 80037d8:	2002      	movs	r0, #2
 80037da:	e798      	b.n	800370e <HAL_TIM_IC_ConfigChannel+0x3a>

080037dc <TIM_ETR_SetConfig>:
 80037dc:	b510      	push	{r4, lr}
 80037de:	6884      	ldr	r4, [r0, #8]
 80037e0:	430a      	orrs	r2, r1
 80037e2:	f424 447f 	bic.w	r4, r4, #65280	; 0xff00
 80037e6:	ea42 2203 	orr.w	r2, r2, r3, lsl #8
 80037ea:	4322      	orrs	r2, r4
 80037ec:	6082      	str	r2, [r0, #8]
 80037ee:	bd10      	pop	{r4, pc}

080037f0 <HAL_TIM_ConfigClockSource>:
 80037f0:	b570      	push	{r4, r5, r6, lr}
 80037f2:	f890 303c 	ldrb.w	r3, [r0, #60]	; 0x3c
 80037f6:	4604      	mov	r4, r0
 80037f8:	2b01      	cmp	r3, #1
 80037fa:	f04f 0002 	mov.w	r0, #2
 80037fe:	d027      	beq.n	8003850 <HAL_TIM_ConfigClockSource+0x60>
 8003800:	2301      	movs	r3, #1
 8003802:	f884 003d 	strb.w	r0, [r4, #61]	; 0x3d
 8003806:	6820      	ldr	r0, [r4, #0]
 8003808:	f884 303c 	strb.w	r3, [r4, #60]	; 0x3c
 800380c:	6883      	ldr	r3, [r0, #8]
 800380e:	f423 437f 	bic.w	r3, r3, #65280	; 0xff00
 8003812:	f023 0377 	bic.w	r3, r3, #119	; 0x77
 8003816:	6083      	str	r3, [r0, #8]
 8003818:	680b      	ldr	r3, [r1, #0]
 800381a:	2b60      	cmp	r3, #96	; 0x60
 800381c:	d04d      	beq.n	80038ba <HAL_TIM_ConfigClockSource+0xca>
 800381e:	d832      	bhi.n	8003886 <HAL_TIM_ConfigClockSource+0x96>
 8003820:	2b40      	cmp	r3, #64	; 0x40
 8003822:	d062      	beq.n	80038ea <HAL_TIM_ConfigClockSource+0xfa>
 8003824:	d815      	bhi.n	8003852 <HAL_TIM_ConfigClockSource+0x62>
 8003826:	2b20      	cmp	r3, #32
 8003828:	d003      	beq.n	8003832 <HAL_TIM_ConfigClockSource+0x42>
 800382a:	d809      	bhi.n	8003840 <HAL_TIM_ConfigClockSource+0x50>
 800382c:	f033 0210 	bics.w	r2, r3, #16
 8003830:	d108      	bne.n	8003844 <HAL_TIM_ConfigClockSource+0x54>
 8003832:	6882      	ldr	r2, [r0, #8]
 8003834:	f022 0270 	bic.w	r2, r2, #112	; 0x70
 8003838:	4313      	orrs	r3, r2
 800383a:	f043 0307 	orr.w	r3, r3, #7
 800383e:	e020      	b.n	8003882 <HAL_TIM_ConfigClockSource+0x92>
 8003840:	2b30      	cmp	r3, #48	; 0x30
 8003842:	d0f6      	beq.n	8003832 <HAL_TIM_ConfigClockSource+0x42>
 8003844:	2301      	movs	r3, #1
 8003846:	2000      	movs	r0, #0
 8003848:	f884 303d 	strb.w	r3, [r4, #61]	; 0x3d
 800384c:	f884 003c 	strb.w	r0, [r4, #60]	; 0x3c
 8003850:	bd70      	pop	{r4, r5, r6, pc}
 8003852:	2b50      	cmp	r3, #80	; 0x50
 8003854:	d1f6      	bne.n	8003844 <HAL_TIM_ConfigClockSource+0x54>
 8003856:	684a      	ldr	r2, [r1, #4]
 8003858:	68ce      	ldr	r6, [r1, #12]
 800385a:	6a01      	ldr	r1, [r0, #32]
 800385c:	6a05      	ldr	r5, [r0, #32]
 800385e:	f021 010a 	bic.w	r1, r1, #10
 8003862:	f025 0501 	bic.w	r5, r5, #1
 8003866:	6205      	str	r5, [r0, #32]
 8003868:	6983      	ldr	r3, [r0, #24]
 800386a:	430a      	orrs	r2, r1
 800386c:	f023 03f0 	bic.w	r3, r3, #240	; 0xf0
 8003870:	ea43 1306 	orr.w	r3, r3, r6, lsl #4
 8003874:	6183      	str	r3, [r0, #24]
 8003876:	6202      	str	r2, [r0, #32]
 8003878:	6883      	ldr	r3, [r0, #8]
 800387a:	f023 0370 	bic.w	r3, r3, #112	; 0x70
 800387e:	f043 0357 	orr.w	r3, r3, #87	; 0x57
 8003882:	6083      	str	r3, [r0, #8]
 8003884:	e7de      	b.n	8003844 <HAL_TIM_ConfigClockSource+0x54>
 8003886:	2b70      	cmp	r3, #112	; 0x70
 8003888:	d00c      	beq.n	80038a4 <HAL_TIM_ConfigClockSource+0xb4>
 800388a:	f5b3 5f00 	cmp.w	r3, #8192	; 0x2000
 800388e:	d1d9      	bne.n	8003844 <HAL_TIM_ConfigClockSource+0x54>
 8003890:	68cb      	ldr	r3, [r1, #12]
 8003892:	e9d1 2101 	ldrd	r2, r1, [r1, #4]
 8003896:	f7ff ffa1 	bl	80037dc <TIM_ETR_SetConfig>
 800389a:	6822      	ldr	r2, [r4, #0]
 800389c:	6893      	ldr	r3, [r2, #8]
 800389e:	f443 4380 	orr.w	r3, r3, #16384	; 0x4000
 80038a2:	e008      	b.n	80038b6 <HAL_TIM_ConfigClockSource+0xc6>
 80038a4:	68cb      	ldr	r3, [r1, #12]
 80038a6:	e9d1 2101 	ldrd	r2, r1, [r1, #4]
 80038aa:	f7ff ff97 	bl	80037dc <TIM_ETR_SetConfig>
 80038ae:	6822      	ldr	r2, [r4, #0]
 80038b0:	6893      	ldr	r3, [r2, #8]
 80038b2:	f043 0377 	orr.w	r3, r3, #119	; 0x77
 80038b6:	6093      	str	r3, [r2, #8]
 80038b8:	e7c4      	b.n	8003844 <HAL_TIM_ConfigClockSource+0x54>
 80038ba:	684d      	ldr	r5, [r1, #4]
 80038bc:	68ce      	ldr	r6, [r1, #12]
 80038be:	6a01      	ldr	r1, [r0, #32]
 80038c0:	f021 0110 	bic.w	r1, r1, #16
 80038c4:	6201      	str	r1, [r0, #32]
 80038c6:	6982      	ldr	r2, [r0, #24]
 80038c8:	6a03      	ldr	r3, [r0, #32]
 80038ca:	f422 4270 	bic.w	r2, r2, #61440	; 0xf000
 80038ce:	f023 03a0 	bic.w	r3, r3, #160	; 0xa0
 80038d2:	ea43 1305 	orr.w	r3, r3, r5, lsl #4
 80038d6:	ea42 3206 	orr.w	r2, r2, r6, lsl #12
 80038da:	6182      	str	r2, [r0, #24]
 80038dc:	6203      	str	r3, [r0, #32]
 80038de:	6883      	ldr	r3, [r0, #8]
 80038e0:	f023 0370 	bic.w	r3, r3, #112	; 0x70
 80038e4:	f043 0367 	orr.w	r3, r3, #103	; 0x67
 80038e8:	e7cb      	b.n	8003882 <HAL_TIM_ConfigClockSource+0x92>
 80038ea:	684a      	ldr	r2, [r1, #4]
 80038ec:	68ce      	ldr	r6, [r1, #12]
 80038ee:	6a01      	ldr	r1, [r0, #32]
 80038f0:	6a05      	ldr	r5, [r0, #32]
 80038f2:	f021 010a 	bic.w	r1, r1, #10
 80038f6:	f025 0501 	bic.w	r5, r5, #1
 80038fa:	6205      	str	r5, [r0, #32]
 80038fc:	6983      	ldr	r3, [r0, #24]
 80038fe:	430a      	orrs	r2, r1
 8003900:	f023 03f0 	bic.w	r3, r3, #240	; 0xf0
 8003904:	ea43 1306 	orr.w	r3, r3, r6, lsl #4
 8003908:	6183      	str	r3, [r0, #24]
 800390a:	6202      	str	r2, [r0, #32]
 800390c:	6883      	ldr	r3, [r0, #8]
 800390e:	f023 0370 	bic.w	r3, r3, #112	; 0x70
 8003912:	f043 0347 	orr.w	r3, r3, #71	; 0x47
 8003916:	e7b4      	b.n	8003882 <HAL_TIM_ConfigClockSource+0x92>

08003918 <TIM_SlaveTimer_SetConfig>:
 8003918:	6800      	ldr	r0, [r0, #0]
 800391a:	b538      	push	{r3, r4, r5, lr}
 800391c:	6883      	ldr	r3, [r0, #8]
 800391e:	684a      	ldr	r2, [r1, #4]
 8003920:	f023 0370 	bic.w	r3, r3, #112	; 0x70
 8003924:	680c      	ldr	r4, [r1, #0]
 8003926:	4313      	orrs	r3, r2
 8003928:	f023 0307 	bic.w	r3, r3, #7
 800392c:	4323      	orrs	r3, r4
 800392e:	2a60      	cmp	r2, #96	; 0x60
 8003930:	6083      	str	r3, [r0, #8]
 8003932:	d02e      	beq.n	8003992 <TIM_SlaveTimer_SetConfig+0x7a>
 8003934:	d805      	bhi.n	8003942 <TIM_SlaveTimer_SetConfig+0x2a>
 8003936:	2a40      	cmp	r2, #64	; 0x40
 8003938:	d00b      	beq.n	8003952 <TIM_SlaveTimer_SetConfig+0x3a>
 800393a:	2a50      	cmp	r2, #80	; 0x50
 800393c:	d019      	beq.n	8003972 <TIM_SlaveTimer_SetConfig+0x5a>
 800393e:	2000      	movs	r0, #0
 8003940:	bd38      	pop	{r3, r4, r5, pc}
 8003942:	2a70      	cmp	r2, #112	; 0x70
 8003944:	d1fb      	bne.n	800393e <TIM_SlaveTimer_SetConfig+0x26>
 8003946:	690b      	ldr	r3, [r1, #16]
 8003948:	e9d1 2102 	ldrd	r2, r1, [r1, #8]
 800394c:	f7ff ff46 	bl	80037dc <TIM_ETR_SetConfig>
 8003950:	e7f5      	b.n	800393e <TIM_SlaveTimer_SetConfig+0x26>
 8003952:	2c05      	cmp	r4, #5
 8003954:	d030      	beq.n	80039b8 <TIM_SlaveTimer_SetConfig+0xa0>
 8003956:	6a02      	ldr	r2, [r0, #32]
 8003958:	6a03      	ldr	r3, [r0, #32]
 800395a:	6909      	ldr	r1, [r1, #16]
 800395c:	f023 0301 	bic.w	r3, r3, #1
 8003960:	6203      	str	r3, [r0, #32]
 8003962:	6983      	ldr	r3, [r0, #24]
 8003964:	f023 03f0 	bic.w	r3, r3, #240	; 0xf0
 8003968:	ea43 1301 	orr.w	r3, r3, r1, lsl #4
 800396c:	6183      	str	r3, [r0, #24]
 800396e:	6202      	str	r2, [r0, #32]
 8003970:	e7e5      	b.n	800393e <TIM_SlaveTimer_SetConfig+0x26>
 8003972:	688a      	ldr	r2, [r1, #8]
 8003974:	690d      	ldr	r5, [r1, #16]
 8003976:	6a01      	ldr	r1, [r0, #32]
 8003978:	6a04      	ldr	r4, [r0, #32]
 800397a:	f021 010a 	bic.w	r1, r1, #10
 800397e:	f024 0401 	bic.w	r4, r4, #1
 8003982:	6204      	str	r4, [r0, #32]
 8003984:	6983      	ldr	r3, [r0, #24]
 8003986:	430a      	orrs	r2, r1
 8003988:	f023 03f0 	bic.w	r3, r3, #240	; 0xf0
 800398c:	ea43 1305 	orr.w	r3, r3, r5, lsl #4
 8003990:	e7ec      	b.n	800396c <TIM_SlaveTimer_SetConfig+0x54>
 8003992:	688c      	ldr	r4, [r1, #8]
 8003994:	690d      	ldr	r5, [r1, #16]
 8003996:	6a01      	ldr	r1, [r0, #32]
 8003998:	f021 0110 	bic.w	r1, r1, #16
 800399c:	6201      	str	r1, [r0, #32]
 800399e:	6982      	ldr	r2, [r0, #24]
 80039a0:	6a03      	ldr	r3, [r0, #32]
 80039a2:	f422 4270 	bic.w	r2, r2, #61440	; 0xf000
 80039a6:	f023 03a0 	bic.w	r3, r3, #160	; 0xa0
 80039aa:	ea42 3205 	orr.w	r2, r2, r5, lsl #12
 80039ae:	ea43 1304 	orr.w	r3, r3, r4, lsl #4
 80039b2:	6182      	str	r2, [r0, #24]
 80039b4:	6203      	str	r3, [r0, #32]
 80039b6:	e7c2      	b.n	800393e <TIM_SlaveTimer_SetConfig+0x26>
 80039b8:	2001      	movs	r0, #1
 80039ba:	e7c1      	b.n	8003940 <TIM_SlaveTimer_SetConfig+0x28>

080039bc <HAL_TIM_SlaveConfigSynchro>:
 80039bc:	b538      	push	{r3, r4, r5, lr}
 80039be:	f890 303c 	ldrb.w	r3, [r0, #60]	; 0x3c
 80039c2:	4604      	mov	r4, r0
 80039c4:	2b01      	cmp	r3, #1
 80039c6:	f04f 0302 	mov.w	r3, #2
 80039ca:	d01c      	beq.n	8003a06 <HAL_TIM_SlaveConfigSynchro+0x4a>
 80039cc:	2501      	movs	r5, #1
 80039ce:	f880 303d 	strb.w	r3, [r0, #61]	; 0x3d
 80039d2:	f880 503c 	strb.w	r5, [r0, #60]	; 0x3c
 80039d6:	f7ff ff9f 	bl	8003918 <TIM_SlaveTimer_SetConfig>
 80039da:	b130      	cbz	r0, 80039ea <HAL_TIM_SlaveConfigSynchro+0x2e>
 80039dc:	2300      	movs	r3, #0
 80039de:	4628      	mov	r0, r5
 80039e0:	f884 503d 	strb.w	r5, [r4, #61]	; 0x3d
 80039e4:	f884 303c 	strb.w	r3, [r4, #60]	; 0x3c
 80039e8:	bd38      	pop	{r3, r4, r5, pc}
 80039ea:	6823      	ldr	r3, [r4, #0]
 80039ec:	68da      	ldr	r2, [r3, #12]
 80039ee:	f022 0240 	bic.w	r2, r2, #64	; 0x40
 80039f2:	60da      	str	r2, [r3, #12]
 80039f4:	68da      	ldr	r2, [r3, #12]
 80039f6:	f422 4280 	bic.w	r2, r2, #16384	; 0x4000
 80039fa:	60da      	str	r2, [r3, #12]
 80039fc:	f884 503d 	strb.w	r5, [r4, #61]	; 0x3d
 8003a00:	f884 003c 	strb.w	r0, [r4, #60]	; 0x3c
 8003a04:	e7f0      	b.n	80039e8 <HAL_TIM_SlaveConfigSynchro+0x2c>
 8003a06:	4618      	mov	r0, r3
 8003a08:	e7ee      	b.n	80039e8 <HAL_TIM_SlaveConfigSynchro+0x2c>

08003a0a <TIM_CCxChannelCmd>:
 8003a0a:	b510      	push	{r4, lr}
 8003a0c:	2401      	movs	r4, #1
 8003a0e:	6a03      	ldr	r3, [r0, #32]
 8003a10:	f001 011f 	and.w	r1, r1, #31
 8003a14:	408c      	lsls	r4, r1
 8003a16:	ea23 0304 	bic.w	r3, r3, r4
 8003a1a:	6203      	str	r3, [r0, #32]
 8003a1c:	6a03      	ldr	r3, [r0, #32]
 8003a1e:	408a      	lsls	r2, r1
 8003a20:	431a      	orrs	r2, r3
 8003a22:	6202      	str	r2, [r0, #32]
 8003a24:	bd10      	pop	{r4, pc}
	...

08003a28 <HAL_TIM_OC_Start>:
 8003a28:	b510      	push	{r4, lr}
 8003a2a:	4604      	mov	r4, r0
 8003a2c:	b929      	cbnz	r1, 8003a3a <HAL_TIM_OC_Start+0x12>
 8003a2e:	f890 303e 	ldrb.w	r3, [r0, #62]	; 0x3e
 8003a32:	2b01      	cmp	r3, #1
 8003a34:	d021      	beq.n	8003a7a <HAL_TIM_OC_Start+0x52>
 8003a36:	2001      	movs	r0, #1
 8003a38:	bd10      	pop	{r4, pc}
 8003a3a:	2904      	cmp	r1, #4
 8003a3c:	d107      	bne.n	8003a4e <HAL_TIM_OC_Start+0x26>
 8003a3e:	f890 303f 	ldrb.w	r3, [r0, #63]	; 0x3f
 8003a42:	2b01      	cmp	r3, #1
 8003a44:	d1f7      	bne.n	8003a36 <HAL_TIM_OC_Start+0xe>
 8003a46:	2302      	movs	r3, #2
 8003a48:	f884 303f 	strb.w	r3, [r4, #63]	; 0x3f
 8003a4c:	e018      	b.n	8003a80 <HAL_TIM_OC_Start+0x58>
 8003a4e:	2908      	cmp	r1, #8
 8003a50:	d107      	bne.n	8003a62 <HAL_TIM_OC_Start+0x3a>
 8003a52:	f890 3040 	ldrb.w	r3, [r0, #64]	; 0x40
 8003a56:	2b01      	cmp	r3, #1
 8003a58:	d1ed      	bne.n	8003a36 <HAL_TIM_OC_Start+0xe>
 8003a5a:	2302      	movs	r3, #2
 8003a5c:	f884 3040 	strb.w	r3, [r4, #64]	; 0x40
 8003a60:	e00e      	b.n	8003a80 <HAL_TIM_OC_Start+0x58>
 8003a62:	f890 3041 	ldrb.w	r3, [r0, #65]	; 0x41
 8003a66:	2b01      	cmp	r3, #1
 8003a68:	d1e5      	bne.n	8003a36 <HAL_TIM_OC_Start+0xe>
 8003a6a:	2904      	cmp	r1, #4
 8003a6c:	d0eb      	beq.n	8003a46 <HAL_TIM_OC_Start+0x1e>
 8003a6e:	2908      	cmp	r1, #8
 8003a70:	d0f3      	beq.n	8003a5a <HAL_TIM_OC_Start+0x32>
 8003a72:	2302      	movs	r3, #2
 8003a74:	f880 3041 	strb.w	r3, [r0, #65]	; 0x41
 8003a78:	e002      	b.n	8003a80 <HAL_TIM_OC_Start+0x58>
 8003a7a:	2302      	movs	r3, #2
 8003a7c:	f880 303e 	strb.w	r3, [r0, #62]	; 0x3e
 8003a80:	2201      	movs	r2, #1
 8003a82:	6820      	ldr	r0, [r4, #0]
 8003a84:	f7ff ffc1 	bl	8003a0a <TIM_CCxChannelCmd>
 8003a88:	6823      	ldr	r3, [r4, #0]
 8003a8a:	4a0e      	ldr	r2, [pc, #56]	; (8003ac4 <HAL_TIM_OC_Start+0x9c>)
 8003a8c:	4293      	cmp	r3, r2
 8003a8e:	d10a      	bne.n	8003aa6 <HAL_TIM_OC_Start+0x7e>
 8003a90:	6c5a      	ldr	r2, [r3, #68]	; 0x44
 8003a92:	f442 4200 	orr.w	r2, r2, #32768	; 0x8000
 8003a96:	645a      	str	r2, [r3, #68]	; 0x44
 8003a98:	689a      	ldr	r2, [r3, #8]
 8003a9a:	f002 0207 	and.w	r2, r2, #7
 8003a9e:	2a06      	cmp	r2, #6
 8003aa0:	d10b      	bne.n	8003aba <HAL_TIM_OC_Start+0x92>
 8003aa2:	2000      	movs	r0, #0
 8003aa4:	e7c8      	b.n	8003a38 <HAL_TIM_OC_Start+0x10>
 8003aa6:	f1b3 4f80 	cmp.w	r3, #1073741824	; 0x40000000
 8003aaa:	d0f5      	beq.n	8003a98 <HAL_TIM_OC_Start+0x70>
 8003aac:	4a06      	ldr	r2, [pc, #24]	; (8003ac8 <HAL_TIM_OC_Start+0xa0>)
 8003aae:	4293      	cmp	r3, r2
 8003ab0:	d0f2      	beq.n	8003a98 <HAL_TIM_OC_Start+0x70>
 8003ab2:	f502 6280 	add.w	r2, r2, #1024	; 0x400
 8003ab6:	4293      	cmp	r3, r2
 8003ab8:	d0ee      	beq.n	8003a98 <HAL_TIM_OC_Start+0x70>
 8003aba:	681a      	ldr	r2, [r3, #0]
 8003abc:	f042 0201 	orr.w	r2, r2, #1
 8003ac0:	601a      	str	r2, [r3, #0]
 8003ac2:	e7ee      	b.n	8003aa2 <HAL_TIM_OC_Start+0x7a>
 8003ac4:	40012c00 	.word	0x40012c00
 8003ac8:	40000400 	.word	0x40000400

08003acc <HAL_TIM_PWM_Start>:
 8003acc:	f7ff bfac 	b.w	8003a28 <HAL_TIM_OC_Start>

08003ad0 <HAL_TIM_IC_Start_IT>:
 8003ad0:	b510      	push	{r4, lr}
 8003ad2:	4604      	mov	r4, r0
 8003ad4:	bb91      	cbnz	r1, 8003b3c <HAL_TIM_IC_Start_IT+0x6c>
 8003ad6:	f890 003e 	ldrb.w	r0, [r0, #62]	; 0x3e
 8003ada:	f894 3042 	ldrb.w	r3, [r4, #66]	; 0x42
 8003ade:	b2c0      	uxtb	r0, r0
 8003ae0:	2801      	cmp	r0, #1
 8003ae2:	b2db      	uxtb	r3, r3
 8003ae4:	d15e      	bne.n	8003ba4 <HAL_TIM_IC_Start_IT+0xd4>
 8003ae6:	2b01      	cmp	r3, #1
 8003ae8:	d15d      	bne.n	8003ba6 <HAL_TIM_IC_Start_IT+0xd6>
 8003aea:	2302      	movs	r3, #2
 8003aec:	6820      	ldr	r0, [r4, #0]
 8003aee:	2900      	cmp	r1, #0
 8003af0:	d13a      	bne.n	8003b68 <HAL_TIM_IC_Start_IT+0x98>
 8003af2:	f884 303e 	strb.w	r3, [r4, #62]	; 0x3e
 8003af6:	f884 3042 	strb.w	r3, [r4, #66]	; 0x42
 8003afa:	68c3      	ldr	r3, [r0, #12]
 8003afc:	f043 0302 	orr.w	r3, r3, #2
 8003b00:	60c3      	str	r3, [r0, #12]
 8003b02:	2201      	movs	r2, #1
 8003b04:	f7ff ff81 	bl	8003a0a <TIM_CCxChannelCmd>
 8003b08:	6823      	ldr	r3, [r4, #0]
 8003b0a:	4a27      	ldr	r2, [pc, #156]	; (8003ba8 <HAL_TIM_IC_Start_IT+0xd8>)
 8003b0c:	4293      	cmp	r3, r2
 8003b0e:	d00a      	beq.n	8003b26 <HAL_TIM_IC_Start_IT+0x56>
 8003b10:	f1b3 4f80 	cmp.w	r3, #1073741824	; 0x40000000
 8003b14:	d007      	beq.n	8003b26 <HAL_TIM_IC_Start_IT+0x56>
 8003b16:	f5a2 3294 	sub.w	r2, r2, #75776	; 0x12800
 8003b1a:	4293      	cmp	r3, r2
 8003b1c:	d003      	beq.n	8003b26 <HAL_TIM_IC_Start_IT+0x56>
 8003b1e:	f502 6280 	add.w	r2, r2, #1024	; 0x400
 8003b22:	4293      	cmp	r3, r2
 8003b24:	d104      	bne.n	8003b30 <HAL_TIM_IC_Start_IT+0x60>
 8003b26:	689a      	ldr	r2, [r3, #8]
 8003b28:	f002 0207 	and.w	r2, r2, #7
 8003b2c:	2a06      	cmp	r2, #6
 8003b2e:	d003      	beq.n	8003b38 <HAL_TIM_IC_Start_IT+0x68>
 8003b30:	681a      	ldr	r2, [r3, #0]
 8003b32:	f042 0201 	orr.w	r2, r2, #1
 8003b36:	601a      	str	r2, [r3, #0]
 8003b38:	2000      	movs	r0, #0
 8003b3a:	e034      	b.n	8003ba6 <HAL_TIM_IC_Start_IT+0xd6>
 8003b3c:	2904      	cmp	r1, #4
 8003b3e:	d105      	bne.n	8003b4c <HAL_TIM_IC_Start_IT+0x7c>
 8003b40:	f890 003f 	ldrb.w	r0, [r0, #63]	; 0x3f
 8003b44:	f894 3043 	ldrb.w	r3, [r4, #67]	; 0x43
 8003b48:	b2c0      	uxtb	r0, r0
 8003b4a:	e7c9      	b.n	8003ae0 <HAL_TIM_IC_Start_IT+0x10>
 8003b4c:	2908      	cmp	r1, #8
 8003b4e:	bf0b      	itete	eq
 8003b50:	f890 0040 	ldrbeq.w	r0, [r0, #64]	; 0x40
 8003b54:	f894 0041 	ldrbne.w	r0, [r4, #65]	; 0x41
 8003b58:	f894 3044 	ldrbeq.w	r3, [r4, #68]	; 0x44
 8003b5c:	f894 3045 	ldrbne.w	r3, [r4, #69]	; 0x45
 8003b60:	bf0c      	ite	eq
 8003b62:	b2c0      	uxtbeq	r0, r0
 8003b64:	b2c0      	uxtbne	r0, r0
 8003b66:	e7bb      	b.n	8003ae0 <HAL_TIM_IC_Start_IT+0x10>
 8003b68:	2904      	cmp	r1, #4
 8003b6a:	d107      	bne.n	8003b7c <HAL_TIM_IC_Start_IT+0xac>
 8003b6c:	f884 303f 	strb.w	r3, [r4, #63]	; 0x3f
 8003b70:	f884 3043 	strb.w	r3, [r4, #67]	; 0x43
 8003b74:	68c3      	ldr	r3, [r0, #12]
 8003b76:	f043 0304 	orr.w	r3, r3, #4
 8003b7a:	e7c1      	b.n	8003b00 <HAL_TIM_IC_Start_IT+0x30>
 8003b7c:	2908      	cmp	r1, #8
 8003b7e:	d107      	bne.n	8003b90 <HAL_TIM_IC_Start_IT+0xc0>
 8003b80:	f884 3040 	strb.w	r3, [r4, #64]	; 0x40
 8003b84:	f884 3044 	strb.w	r3, [r4, #68]	; 0x44
 8003b88:	68c3      	ldr	r3, [r0, #12]
 8003b8a:	f043 0308 	orr.w	r3, r3, #8
 8003b8e:	e7b7      	b.n	8003b00 <HAL_TIM_IC_Start_IT+0x30>
 8003b90:	290c      	cmp	r1, #12
 8003b92:	f884 3041 	strb.w	r3, [r4, #65]	; 0x41
 8003b96:	f884 3045 	strb.w	r3, [r4, #69]	; 0x45
 8003b9a:	d1b2      	bne.n	8003b02 <HAL_TIM_IC_Start_IT+0x32>
 8003b9c:	68c3      	ldr	r3, [r0, #12]
 8003b9e:	f043 0310 	orr.w	r3, r3, #16
 8003ba2:	e7ad      	b.n	8003b00 <HAL_TIM_IC_Start_IT+0x30>
 8003ba4:	2001      	movs	r0, #1
 8003ba6:	bd10      	pop	{r4, pc}
 8003ba8:	40012c00 	.word	0x40012c00

08003bac <HAL_TIMEx_MasterConfigSynchronization>:
 8003bac:	b530      	push	{r4, r5, lr}
 8003bae:	f890 303c 	ldrb.w	r3, [r0, #60]	; 0x3c
 8003bb2:	4602      	mov	r2, r0
 8003bb4:	2b01      	cmp	r3, #1
 8003bb6:	f04f 0002 	mov.w	r0, #2
 8003bba:	d022      	beq.n	8003c02 <HAL_TIMEx_MasterConfigSynchronization+0x56>
 8003bbc:	6813      	ldr	r3, [r2, #0]
 8003bbe:	f882 003d 	strb.w	r0, [r2, #61]	; 0x3d
 8003bc2:	685c      	ldr	r4, [r3, #4]
 8003bc4:	680d      	ldr	r5, [r1, #0]
 8003bc6:	f024 0470 	bic.w	r4, r4, #112	; 0x70
 8003bca:	432c      	orrs	r4, r5
 8003bcc:	6898      	ldr	r0, [r3, #8]
 8003bce:	605c      	str	r4, [r3, #4]
 8003bd0:	4c0c      	ldr	r4, [pc, #48]	; (8003c04 <HAL_TIMEx_MasterConfigSynchronization+0x58>)
 8003bd2:	42a3      	cmp	r3, r4
 8003bd4:	d00a      	beq.n	8003bec <HAL_TIMEx_MasterConfigSynchronization+0x40>
 8003bd6:	f1b3 4f80 	cmp.w	r3, #1073741824	; 0x40000000
 8003bda:	d007      	beq.n	8003bec <HAL_TIMEx_MasterConfigSynchronization+0x40>
 8003bdc:	f5a4 3494 	sub.w	r4, r4, #75776	; 0x12800
 8003be0:	42a3      	cmp	r3, r4
 8003be2:	d003      	beq.n	8003bec <HAL_TIMEx_MasterConfigSynchronization+0x40>
 8003be4:	f504 6480 	add.w	r4, r4, #1024	; 0x400
 8003be8:	42a3      	cmp	r3, r4
 8003bea:	d104      	bne.n	8003bf6 <HAL_TIMEx_MasterConfigSynchronization+0x4a>
 8003bec:	6849      	ldr	r1, [r1, #4]
 8003bee:	f020 0080 	bic.w	r0, r0, #128	; 0x80
 8003bf2:	4301      	orrs	r1, r0
 8003bf4:	6099      	str	r1, [r3, #8]
 8003bf6:	2301      	movs	r3, #1
 8003bf8:	2000      	movs	r0, #0
 8003bfa:	f882 303d 	strb.w	r3, [r2, #61]	; 0x3d
 8003bfe:	f882 003c 	strb.w	r0, [r2, #60]	; 0x3c
 8003c02:	bd30      	pop	{r4, r5, pc}
 8003c04:	40012c00 	.word	0x40012c00

08003c08 <HAL_TIMEx_CommutCallback>:
 8003c08:	4770      	bx	lr

08003c0a <HAL_TIMEx_BreakCallback>:
 8003c0a:	4770      	bx	lr

08003c0c <UART_EndRxTransfer>:
 8003c0c:	6803      	ldr	r3, [r0, #0]
 8003c0e:	68da      	ldr	r2, [r3, #12]
 8003c10:	f422 7290 	bic.w	r2, r2, #288	; 0x120
 8003c14:	60da      	str	r2, [r3, #12]
 8003c16:	695a      	ldr	r2, [r3, #20]
 8003c18:	f022 0201 	bic.w	r2, r2, #1
 8003c1c:	615a      	str	r2, [r3, #20]
 8003c1e:	6b02      	ldr	r2, [r0, #48]	; 0x30
 8003c20:	2a01      	cmp	r2, #1
 8003c22:	bf02      	ittt	eq
 8003c24:	68da      	ldreq	r2, [r3, #12]
 8003c26:	f022 0210 	biceq.w	r2, r2, #16
 8003c2a:	60da      	streq	r2, [r3, #12]
 8003c2c:	2320      	movs	r3, #32
 8003c2e:	f880 303e 	strb.w	r3, [r0, #62]	; 0x3e
 8003c32:	2300      	movs	r3, #0
 8003c34:	6303      	str	r3, [r0, #48]	; 0x30
 8003c36:	4770      	bx	lr

08003c38 <UART_SetConfig>:
 8003c38:	b510      	push	{r4, lr}
 8003c3a:	4604      	mov	r4, r0
 8003c3c:	6803      	ldr	r3, [r0, #0]
 8003c3e:	68c1      	ldr	r1, [r0, #12]
 8003c40:	691a      	ldr	r2, [r3, #16]
 8003c42:	f422 5240 	bic.w	r2, r2, #12288	; 0x3000
 8003c46:	430a      	orrs	r2, r1
 8003c48:	611a      	str	r2, [r3, #16]
 8003c4a:	6882      	ldr	r2, [r0, #8]
 8003c4c:	6900      	ldr	r0, [r0, #16]
 8003c4e:	68d9      	ldr	r1, [r3, #12]
 8003c50:	4302      	orrs	r2, r0
 8003c52:	6960      	ldr	r0, [r4, #20]
 8003c54:	f421 51b0 	bic.w	r1, r1, #5632	; 0x1600
 8003c58:	f021 010c 	bic.w	r1, r1, #12
 8003c5c:	4302      	orrs	r2, r0
 8003c5e:	430a      	orrs	r2, r1
 8003c60:	60da      	str	r2, [r3, #12]
 8003c62:	695a      	ldr	r2, [r3, #20]
 8003c64:	69a1      	ldr	r1, [r4, #24]
 8003c66:	f422 7240 	bic.w	r2, r2, #768	; 0x300
 8003c6a:	430a      	orrs	r2, r1
 8003c6c:	615a      	str	r2, [r3, #20]
 8003c6e:	4a0e      	ldr	r2, [pc, #56]	; (8003ca8 <UART_SetConfig+0x70>)
 8003c70:	4293      	cmp	r3, r2
 8003c72:	d115      	bne.n	8003ca0 <UART_SetConfig+0x68>
 8003c74:	f7ff fa04 	bl	8003080 <HAL_RCC_GetPCLK2Freq>
 8003c78:	2319      	movs	r3, #25
 8003c7a:	4343      	muls	r3, r0
 8003c7c:	6862      	ldr	r2, [r4, #4]
 8003c7e:	6820      	ldr	r0, [r4, #0]
 8003c80:	0092      	lsls	r2, r2, #2
 8003c82:	fbb3 f3f2 	udiv	r3, r3, r2
 8003c86:	2264      	movs	r2, #100	; 0x64
 8003c88:	fbb3 f1f2 	udiv	r1, r3, r2
 8003c8c:	fb02 3311 	mls	r3, r2, r1, r3
 8003c90:	011b      	lsls	r3, r3, #4
 8003c92:	3332      	adds	r3, #50	; 0x32
 8003c94:	fbb3 f3f2 	udiv	r3, r3, r2
 8003c98:	eb03 1301 	add.w	r3, r3, r1, lsl #4
 8003c9c:	6083      	str	r3, [r0, #8]
 8003c9e:	bd10      	pop	{r4, pc}
 8003ca0:	f7ff f9de 	bl	8003060 <HAL_RCC_GetPCLK1Freq>
 8003ca4:	e7e8      	b.n	8003c78 <UART_SetConfig+0x40>
 8003ca6:	bf00      	nop
 8003ca8:	40013800 	.word	0x40013800

08003cac <UART_WaitOnFlagUntilTimeout.constprop.0>:
 8003cac:	b5f8      	push	{r3, r4, r5, r6, r7, lr}
 8003cae:	4604      	mov	r4, r0
 8003cb0:	460e      	mov	r6, r1
 8003cb2:	4617      	mov	r7, r2
 8003cb4:	461d      	mov	r5, r3
 8003cb6:	6822      	ldr	r2, [r4, #0]
 8003cb8:	6813      	ldr	r3, [r2, #0]
 8003cba:	ea36 0303 	bics.w	r3, r6, r3
 8003cbe:	d101      	bne.n	8003cc4 <UART_WaitOnFlagUntilTimeout.constprop.0+0x18>
 8003cc0:	2000      	movs	r0, #0
 8003cc2:	e014      	b.n	8003cee <UART_WaitOnFlagUntilTimeout.constprop.0+0x42>
 8003cc4:	1c6b      	adds	r3, r5, #1
 8003cc6:	d0f7      	beq.n	8003cb8 <UART_WaitOnFlagUntilTimeout.constprop.0+0xc>
 8003cc8:	b995      	cbnz	r5, 8003cf0 <UART_WaitOnFlagUntilTimeout.constprop.0+0x44>
 8003cca:	6823      	ldr	r3, [r4, #0]
 8003ccc:	2003      	movs	r0, #3
 8003cce:	68da      	ldr	r2, [r3, #12]
 8003cd0:	f422 72d0 	bic.w	r2, r2, #416	; 0x1a0
 8003cd4:	60da      	str	r2, [r3, #12]
 8003cd6:	695a      	ldr	r2, [r3, #20]
 8003cd8:	f022 0201 	bic.w	r2, r2, #1
 8003cdc:	615a      	str	r2, [r3, #20]
 8003cde:	2320      	movs	r3, #32
 8003ce0:	f884 303d 	strb.w	r3, [r4, #61]	; 0x3d
 8003ce4:	f884 303e 	strb.w	r3, [r4, #62]	; 0x3e
 8003ce8:	2300      	movs	r3, #0
 8003cea:	f884 303c 	strb.w	r3, [r4, #60]	; 0x3c
 8003cee:	bdf8      	pop	{r3, r4, r5, r6, r7, pc}
 8003cf0:	f7fe f828 	bl	8001d44 <HAL_GetTick>
 8003cf4:	1bc0      	subs	r0, r0, r7
 8003cf6:	4285      	cmp	r5, r0
 8003cf8:	d2dd      	bcs.n	8003cb6 <UART_WaitOnFlagUntilTimeout.constprop.0+0xa>
 8003cfa:	e7e6      	b.n	8003cca <UART_WaitOnFlagUntilTimeout.constprop.0+0x1e>

08003cfc <HAL_UART_Init>:
 8003cfc:	b510      	push	{r4, lr}
 8003cfe:	4604      	mov	r4, r0
 8003d00:	b340      	cbz	r0, 8003d54 <HAL_UART_Init+0x58>
 8003d02:	f890 303d 	ldrb.w	r3, [r0, #61]	; 0x3d
 8003d06:	f003 02ff 	and.w	r2, r3, #255	; 0xff
 8003d0a:	b91b      	cbnz	r3, 8003d14 <HAL_UART_Init+0x18>
 8003d0c:	f880 203c 	strb.w	r2, [r0, #60]	; 0x3c
 8003d10:	f7fd ff30 	bl	8001b74 <HAL_UART_MspInit>
 8003d14:	2324      	movs	r3, #36	; 0x24
 8003d16:	6822      	ldr	r2, [r4, #0]
 8003d18:	f884 303d 	strb.w	r3, [r4, #61]	; 0x3d
 8003d1c:	68d3      	ldr	r3, [r2, #12]
 8003d1e:	4620      	mov	r0, r4
 8003d20:	f423 5300 	bic.w	r3, r3, #8192	; 0x2000
 8003d24:	60d3      	str	r3, [r2, #12]
 8003d26:	f7ff ff87 	bl	8003c38 <UART_SetConfig>
 8003d2a:	6823      	ldr	r3, [r4, #0]
 8003d2c:	2000      	movs	r0, #0
 8003d2e:	691a      	ldr	r2, [r3, #16]
 8003d30:	f422 4290 	bic.w	r2, r2, #18432	; 0x4800
 8003d34:	611a      	str	r2, [r3, #16]
 8003d36:	695a      	ldr	r2, [r3, #20]
 8003d38:	f022 022a 	bic.w	r2, r2, #42	; 0x2a
 8003d3c:	615a      	str	r2, [r3, #20]
 8003d3e:	68da      	ldr	r2, [r3, #12]
 8003d40:	f442 5200 	orr.w	r2, r2, #8192	; 0x2000
 8003d44:	60da      	str	r2, [r3, #12]
 8003d46:	2320      	movs	r3, #32
 8003d48:	6420      	str	r0, [r4, #64]	; 0x40
 8003d4a:	f884 303d 	strb.w	r3, [r4, #61]	; 0x3d
 8003d4e:	f884 303e 	strb.w	r3, [r4, #62]	; 0x3e
 8003d52:	bd10      	pop	{r4, pc}
 8003d54:	2001      	movs	r0, #1
 8003d56:	e7fc      	b.n	8003d52 <HAL_UART_Init+0x56>

08003d58 <HAL_UART_Transmit>:
 8003d58:	e92d 43f8 	stmdb	sp!, {r3, r4, r5, r6, r7, r8, r9, lr}
 8003d5c:	4699      	mov	r9, r3
 8003d5e:	f890 303d 	ldrb.w	r3, [r0, #61]	; 0x3d
 8003d62:	4604      	mov	r4, r0
 8003d64:	2b20      	cmp	r3, #32
 8003d66:	460e      	mov	r6, r1
 8003d68:	4617      	mov	r7, r2
 8003d6a:	d148      	bne.n	8003dfe <HAL_UART_Transmit+0xa6>
 8003d6c:	2900      	cmp	r1, #0
 8003d6e:	d044      	beq.n	8003dfa <HAL_UART_Transmit+0xa2>
 8003d70:	2a00      	cmp	r2, #0
 8003d72:	d042      	beq.n	8003dfa <HAL_UART_Transmit+0xa2>
 8003d74:	f890 303c 	ldrb.w	r3, [r0, #60]	; 0x3c
 8003d78:	2b01      	cmp	r3, #1
 8003d7a:	d040      	beq.n	8003dfe <HAL_UART_Transmit+0xa6>
 8003d7c:	2301      	movs	r3, #1
 8003d7e:	2500      	movs	r5, #0
 8003d80:	f880 303c 	strb.w	r3, [r0, #60]	; 0x3c
 8003d84:	2321      	movs	r3, #33	; 0x21
 8003d86:	6405      	str	r5, [r0, #64]	; 0x40
 8003d88:	f880 303d 	strb.w	r3, [r0, #61]	; 0x3d
 8003d8c:	f7fd ffda 	bl	8001d44 <HAL_GetTick>
 8003d90:	68a3      	ldr	r3, [r4, #8]
 8003d92:	4680      	mov	r8, r0
 8003d94:	f5b3 5f80 	cmp.w	r3, #4096	; 0x1000
 8003d98:	84a7      	strh	r7, [r4, #36]	; 0x24
 8003d9a:	84e7      	strh	r7, [r4, #38]	; 0x26
 8003d9c:	d103      	bne.n	8003da6 <HAL_UART_Transmit+0x4e>
 8003d9e:	6923      	ldr	r3, [r4, #16]
 8003da0:	b90b      	cbnz	r3, 8003da6 <HAL_UART_Transmit+0x4e>
 8003da2:	4635      	mov	r5, r6
 8003da4:	461e      	mov	r6, r3
 8003da6:	2300      	movs	r3, #0
 8003da8:	f884 303c 	strb.w	r3, [r4, #60]	; 0x3c
 8003dac:	8ce3      	ldrh	r3, [r4, #38]	; 0x26
 8003dae:	b29b      	uxth	r3, r3
 8003db0:	b953      	cbnz	r3, 8003dc8 <HAL_UART_Transmit+0x70>
 8003db2:	464b      	mov	r3, r9
 8003db4:	4642      	mov	r2, r8
 8003db6:	2140      	movs	r1, #64	; 0x40
 8003db8:	4620      	mov	r0, r4
 8003dba:	f7ff ff77 	bl	8003cac <UART_WaitOnFlagUntilTimeout.constprop.0>
 8003dbe:	b950      	cbnz	r0, 8003dd6 <HAL_UART_Transmit+0x7e>
 8003dc0:	2320      	movs	r3, #32
 8003dc2:	f884 303d 	strb.w	r3, [r4, #61]	; 0x3d
 8003dc6:	e007      	b.n	8003dd8 <HAL_UART_Transmit+0x80>
 8003dc8:	464b      	mov	r3, r9
 8003dca:	4642      	mov	r2, r8
 8003dcc:	2180      	movs	r1, #128	; 0x80
 8003dce:	4620      	mov	r0, r4
 8003dd0:	f7ff ff6c 	bl	8003cac <UART_WaitOnFlagUntilTimeout.constprop.0>
 8003dd4:	b110      	cbz	r0, 8003ddc <HAL_UART_Transmit+0x84>
 8003dd6:	2003      	movs	r0, #3
 8003dd8:	e8bd 83f8 	ldmia.w	sp!, {r3, r4, r5, r6, r7, r8, r9, pc}
 8003ddc:	6822      	ldr	r2, [r4, #0]
 8003dde:	b94e      	cbnz	r6, 8003df4 <HAL_UART_Transmit+0x9c>
 8003de0:	f835 3b02 	ldrh.w	r3, [r5], #2
 8003de4:	f3c3 0308 	ubfx	r3, r3, #0, #9
 8003de8:	6053      	str	r3, [r2, #4]
 8003dea:	8ce1      	ldrh	r1, [r4, #38]	; 0x26
 8003dec:	3901      	subs	r1, #1
 8003dee:	b289      	uxth	r1, r1
 8003df0:	84e1      	strh	r1, [r4, #38]	; 0x26
 8003df2:	e7db      	b.n	8003dac <HAL_UART_Transmit+0x54>
 8003df4:	f816 3b01 	ldrb.w	r3, [r6], #1
 8003df8:	e7f6      	b.n	8003de8 <HAL_UART_Transmit+0x90>
 8003dfa:	2001      	movs	r0, #1
 8003dfc:	e7ec      	b.n	8003dd8 <HAL_UART_Transmit+0x80>
 8003dfe:	2002      	movs	r0, #2
 8003e00:	e7ea      	b.n	8003dd8 <HAL_UART_Transmit+0x80>

08003e02 <HAL_UART_TxCpltCallback>:
 8003e02:	4770      	bx	lr

08003e04 <HAL_UART_RxCpltCallback>:
 8003e04:	4770      	bx	lr

08003e06 <HAL_UART_ErrorCallback>:
 8003e06:	4770      	bx	lr

08003e08 <UART_DMAAbortOnError>:
 8003e08:	b508      	push	{r3, lr}
 8003e0a:	2300      	movs	r3, #0
 8003e0c:	6a40      	ldr	r0, [r0, #36]	; 0x24
 8003e0e:	85c3      	strh	r3, [r0, #46]	; 0x2e
 8003e10:	84c3      	strh	r3, [r0, #38]	; 0x26
 8003e12:	f7ff fff8 	bl	8003e06 <HAL_UART_ErrorCallback>
 8003e16:	bd08      	pop	{r3, pc}

08003e18 <HAL_UARTEx_RxEventCallback>:
 8003e18:	4770      	bx	lr

08003e1a <UART_Receive_IT.part.0.isra.0>:
 8003e1a:	b507      	push	{r0, r1, r2, lr}
 8003e1c:	6881      	ldr	r1, [r0, #8]
 8003e1e:	6a83      	ldr	r3, [r0, #40]	; 0x28
 8003e20:	f5b1 5f80 	cmp.w	r1, #4096	; 0x1000
 8003e24:	6802      	ldr	r2, [r0, #0]
 8003e26:	d134      	bne.n	8003e92 <UART_Receive_IT.part.0.isra.0+0x78>
 8003e28:	6901      	ldr	r1, [r0, #16]
 8003e2a:	2900      	cmp	r1, #0
 8003e2c:	d134      	bne.n	8003e98 <UART_Receive_IT.part.0.isra.0+0x7e>
 8003e2e:	6852      	ldr	r2, [r2, #4]
 8003e30:	f3c2 0208 	ubfx	r2, r2, #0, #9
 8003e34:	f823 2b02 	strh.w	r2, [r3], #2
 8003e38:	8dc2      	ldrh	r2, [r0, #46]	; 0x2e
 8003e3a:	6283      	str	r3, [r0, #40]	; 0x28
 8003e3c:	3a01      	subs	r2, #1
 8003e3e:	b292      	uxth	r2, r2
 8003e40:	85c2      	strh	r2, [r0, #46]	; 0x2e
 8003e42:	bb1a      	cbnz	r2, 8003e8c <UART_Receive_IT.part.0.isra.0+0x72>
 8003e44:	6803      	ldr	r3, [r0, #0]
 8003e46:	68d9      	ldr	r1, [r3, #12]
 8003e48:	f021 0120 	bic.w	r1, r1, #32
 8003e4c:	60d9      	str	r1, [r3, #12]
 8003e4e:	68d9      	ldr	r1, [r3, #12]
 8003e50:	f421 7180 	bic.w	r1, r1, #256	; 0x100
 8003e54:	60d9      	str	r1, [r3, #12]
 8003e56:	6959      	ldr	r1, [r3, #20]
 8003e58:	f021 0101 	bic.w	r1, r1, #1
 8003e5c:	6159      	str	r1, [r3, #20]
 8003e5e:	2120      	movs	r1, #32
 8003e60:	f880 103e 	strb.w	r1, [r0, #62]	; 0x3e
 8003e64:	6b01      	ldr	r1, [r0, #48]	; 0x30
 8003e66:	2901      	cmp	r1, #1
 8003e68:	d120      	bne.n	8003eac <UART_Receive_IT.part.0.isra.0+0x92>
 8003e6a:	6302      	str	r2, [r0, #48]	; 0x30
 8003e6c:	68d9      	ldr	r1, [r3, #12]
 8003e6e:	f021 0110 	bic.w	r1, r1, #16
 8003e72:	60d9      	str	r1, [r3, #12]
 8003e74:	6819      	ldr	r1, [r3, #0]
 8003e76:	06c9      	lsls	r1, r1, #27
 8003e78:	d505      	bpl.n	8003e86 <UART_Receive_IT.part.0.isra.0+0x6c>
 8003e7a:	9201      	str	r2, [sp, #4]
 8003e7c:	681a      	ldr	r2, [r3, #0]
 8003e7e:	9201      	str	r2, [sp, #4]
 8003e80:	685b      	ldr	r3, [r3, #4]
 8003e82:	9301      	str	r3, [sp, #4]
 8003e84:	9b01      	ldr	r3, [sp, #4]
 8003e86:	8d81      	ldrh	r1, [r0, #44]	; 0x2c
 8003e88:	f7ff ffc6 	bl	8003e18 <HAL_UARTEx_RxEventCallback>
 8003e8c:	b003      	add	sp, #12
 8003e8e:	f85d fb04 	ldr.w	pc, [sp], #4
 8003e92:	b939      	cbnz	r1, 8003ea4 <UART_Receive_IT.part.0.isra.0+0x8a>
 8003e94:	6901      	ldr	r1, [r0, #16]
 8003e96:	b929      	cbnz	r1, 8003ea4 <UART_Receive_IT.part.0.isra.0+0x8a>
 8003e98:	6852      	ldr	r2, [r2, #4]
 8003e9a:	b2d2      	uxtb	r2, r2
 8003e9c:	701a      	strb	r2, [r3, #0]
 8003e9e:	6a83      	ldr	r3, [r0, #40]	; 0x28
 8003ea0:	3301      	adds	r3, #1
 8003ea2:	e7c9      	b.n	8003e38 <UART_Receive_IT.part.0.isra.0+0x1e>
 8003ea4:	6852      	ldr	r2, [r2, #4]
 8003ea6:	f002 027f 	and.w	r2, r2, #127	; 0x7f
 8003eaa:	e7f7      	b.n	8003e9c <UART_Receive_IT.part.0.isra.0+0x82>
 8003eac:	f7ff ffaa 	bl	8003e04 <HAL_UART_RxCpltCallback>
 8003eb0:	e7ec      	b.n	8003e8c <UART_Receive_IT.part.0.isra.0+0x72>
	...

08003eb4 <HAL_UART_IRQHandler>:
 8003eb4:	6803      	ldr	r3, [r0, #0]
 8003eb6:	b537      	push	{r0, r1, r2, r4, r5, lr}
 8003eb8:	681a      	ldr	r2, [r3, #0]
 8003eba:	4604      	mov	r4, r0
 8003ebc:	f012 0f0f 	tst.w	r2, #15
 8003ec0:	68d9      	ldr	r1, [r3, #12]
 8003ec2:	695d      	ldr	r5, [r3, #20]
 8003ec4:	d10c      	bne.n	8003ee0 <HAL_UART_IRQHandler+0x2c>
 8003ec6:	0695      	lsls	r5, r2, #26
 8003ec8:	d567      	bpl.n	8003f9a <HAL_UART_IRQHandler+0xe6>
 8003eca:	068d      	lsls	r5, r1, #26
 8003ecc:	d565      	bpl.n	8003f9a <HAL_UART_IRQHandler+0xe6>
 8003ece:	f890 303e 	ldrb.w	r3, [r0, #62]	; 0x3e
 8003ed2:	2b22      	cmp	r3, #34	; 0x22
 8003ed4:	d15b      	bne.n	8003f8e <HAL_UART_IRQHandler+0xda>
 8003ed6:	b003      	add	sp, #12
 8003ed8:	e8bd 4030 	ldmia.w	sp!, {r4, r5, lr}
 8003edc:	f7ff bf9d 	b.w	8003e1a <UART_Receive_IT.part.0.isra.0>
 8003ee0:	f005 0001 	and.w	r0, r5, #1
 8003ee4:	f401 7590 	and.w	r5, r1, #288	; 0x120
 8003ee8:	4305      	orrs	r5, r0
 8003eea:	d056      	beq.n	8003f9a <HAL_UART_IRQHandler+0xe6>
 8003eec:	07d5      	lsls	r5, r2, #31
 8003eee:	d505      	bpl.n	8003efc <HAL_UART_IRQHandler+0x48>
 8003ef0:	05cb      	lsls	r3, r1, #23
 8003ef2:	bf42      	ittt	mi
 8003ef4:	6c23      	ldrmi	r3, [r4, #64]	; 0x40
 8003ef6:	f043 0301 	orrmi.w	r3, r3, #1
 8003efa:	6423      	strmi	r3, [r4, #64]	; 0x40
 8003efc:	0755      	lsls	r5, r2, #29
 8003efe:	d504      	bpl.n	8003f0a <HAL_UART_IRQHandler+0x56>
 8003f00:	b118      	cbz	r0, 8003f0a <HAL_UART_IRQHandler+0x56>
 8003f02:	6c23      	ldr	r3, [r4, #64]	; 0x40
 8003f04:	f043 0302 	orr.w	r3, r3, #2
 8003f08:	6423      	str	r3, [r4, #64]	; 0x40
 8003f0a:	0793      	lsls	r3, r2, #30
 8003f0c:	d504      	bpl.n	8003f18 <HAL_UART_IRQHandler+0x64>
 8003f0e:	b118      	cbz	r0, 8003f18 <HAL_UART_IRQHandler+0x64>
 8003f10:	6c23      	ldr	r3, [r4, #64]	; 0x40
 8003f12:	f043 0304 	orr.w	r3, r3, #4
 8003f16:	6423      	str	r3, [r4, #64]	; 0x40
 8003f18:	0715      	lsls	r5, r2, #28
 8003f1a:	d507      	bpl.n	8003f2c <HAL_UART_IRQHandler+0x78>
 8003f1c:	f001 0320 	and.w	r3, r1, #32
 8003f20:	4303      	orrs	r3, r0
 8003f22:	bf1e      	ittt	ne
 8003f24:	6c23      	ldrne	r3, [r4, #64]	; 0x40
 8003f26:	f043 0308 	orrne.w	r3, r3, #8
 8003f2a:	6423      	strne	r3, [r4, #64]	; 0x40
 8003f2c:	6c23      	ldr	r3, [r4, #64]	; 0x40
 8003f2e:	b373      	cbz	r3, 8003f8e <HAL_UART_IRQHandler+0xda>
 8003f30:	0692      	lsls	r2, r2, #26
 8003f32:	d508      	bpl.n	8003f46 <HAL_UART_IRQHandler+0x92>
 8003f34:	068b      	lsls	r3, r1, #26
 8003f36:	d506      	bpl.n	8003f46 <HAL_UART_IRQHandler+0x92>
 8003f38:	f894 303e 	ldrb.w	r3, [r4, #62]	; 0x3e
 8003f3c:	2b22      	cmp	r3, #34	; 0x22
 8003f3e:	d102      	bne.n	8003f46 <HAL_UART_IRQHandler+0x92>
 8003f40:	4620      	mov	r0, r4
 8003f42:	f7ff ff6a 	bl	8003e1a <UART_Receive_IT.part.0.isra.0>
 8003f46:	6823      	ldr	r3, [r4, #0]
 8003f48:	4620      	mov	r0, r4
 8003f4a:	695b      	ldr	r3, [r3, #20]
 8003f4c:	6c25      	ldr	r5, [r4, #64]	; 0x40
 8003f4e:	f003 0340 	and.w	r3, r3, #64	; 0x40
 8003f52:	f005 0508 	and.w	r5, r5, #8
 8003f56:	431d      	orrs	r5, r3
 8003f58:	d01b      	beq.n	8003f92 <HAL_UART_IRQHandler+0xde>
 8003f5a:	f7ff fe57 	bl	8003c0c <UART_EndRxTransfer>
 8003f5e:	6823      	ldr	r3, [r4, #0]
 8003f60:	695a      	ldr	r2, [r3, #20]
 8003f62:	0655      	lsls	r5, r2, #25
 8003f64:	d510      	bpl.n	8003f88 <HAL_UART_IRQHandler+0xd4>
 8003f66:	695a      	ldr	r2, [r3, #20]
 8003f68:	6ba0      	ldr	r0, [r4, #56]	; 0x38
 8003f6a:	f022 0240 	bic.w	r2, r2, #64	; 0x40
 8003f6e:	615a      	str	r2, [r3, #20]
 8003f70:	b150      	cbz	r0, 8003f88 <HAL_UART_IRQHandler+0xd4>
 8003f72:	4b53      	ldr	r3, [pc, #332]	; (80040c0 <HAL_UART_IRQHandler+0x20c>)
 8003f74:	6343      	str	r3, [r0, #52]	; 0x34
 8003f76:	f7fe f8a7 	bl	80020c8 <HAL_DMA_Abort_IT>
 8003f7a:	b140      	cbz	r0, 8003f8e <HAL_UART_IRQHandler+0xda>
 8003f7c:	6ba0      	ldr	r0, [r4, #56]	; 0x38
 8003f7e:	6b43      	ldr	r3, [r0, #52]	; 0x34
 8003f80:	b003      	add	sp, #12
 8003f82:	e8bd 4030 	ldmia.w	sp!, {r4, r5, lr}
 8003f86:	4718      	bx	r3
 8003f88:	4620      	mov	r0, r4
 8003f8a:	f7ff ff3c 	bl	8003e06 <HAL_UART_ErrorCallback>
 8003f8e:	b003      	add	sp, #12
 8003f90:	bd30      	pop	{r4, r5, pc}
 8003f92:	f7ff ff38 	bl	8003e06 <HAL_UART_ErrorCallback>
 8003f96:	6425      	str	r5, [r4, #64]	; 0x40
 8003f98:	e7f9      	b.n	8003f8e <HAL_UART_IRQHandler+0xda>
 8003f9a:	6b20      	ldr	r0, [r4, #48]	; 0x30
 8003f9c:	2801      	cmp	r0, #1
 8003f9e:	d155      	bne.n	800404c <HAL_UART_IRQHandler+0x198>
 8003fa0:	06d0      	lsls	r0, r2, #27
 8003fa2:	d553      	bpl.n	800404c <HAL_UART_IRQHandler+0x198>
 8003fa4:	06cd      	lsls	r5, r1, #27
 8003fa6:	d551      	bpl.n	800404c <HAL_UART_IRQHandler+0x198>
 8003fa8:	2100      	movs	r1, #0
 8003faa:	9101      	str	r1, [sp, #4]
 8003fac:	681a      	ldr	r2, [r3, #0]
 8003fae:	9201      	str	r2, [sp, #4]
 8003fb0:	685a      	ldr	r2, [r3, #4]
 8003fb2:	9201      	str	r2, [sp, #4]
 8003fb4:	9a01      	ldr	r2, [sp, #4]
 8003fb6:	695a      	ldr	r2, [r3, #20]
 8003fb8:	f012 0240 	ands.w	r2, r2, #64	; 0x40
 8003fbc:	d02a      	beq.n	8004014 <HAL_UART_IRQHandler+0x160>
 8003fbe:	6ba0      	ldr	r0, [r4, #56]	; 0x38
 8003fc0:	6802      	ldr	r2, [r0, #0]
 8003fc2:	6852      	ldr	r2, [r2, #4]
 8003fc4:	b292      	uxth	r2, r2
 8003fc6:	2a00      	cmp	r2, #0
 8003fc8:	d0e1      	beq.n	8003f8e <HAL_UART_IRQHandler+0xda>
 8003fca:	8da5      	ldrh	r5, [r4, #44]	; 0x2c
 8003fcc:	4295      	cmp	r5, r2
 8003fce:	d9de      	bls.n	8003f8e <HAL_UART_IRQHandler+0xda>
 8003fd0:	85e2      	strh	r2, [r4, #46]	; 0x2e
 8003fd2:	6982      	ldr	r2, [r0, #24]
 8003fd4:	2a20      	cmp	r2, #32
 8003fd6:	d015      	beq.n	8004004 <HAL_UART_IRQHandler+0x150>
 8003fd8:	68da      	ldr	r2, [r3, #12]
 8003fda:	f422 7280 	bic.w	r2, r2, #256	; 0x100
 8003fde:	60da      	str	r2, [r3, #12]
 8003fe0:	695a      	ldr	r2, [r3, #20]
 8003fe2:	f022 0201 	bic.w	r2, r2, #1
 8003fe6:	615a      	str	r2, [r3, #20]
 8003fe8:	695a      	ldr	r2, [r3, #20]
 8003fea:	f022 0240 	bic.w	r2, r2, #64	; 0x40
 8003fee:	615a      	str	r2, [r3, #20]
 8003ff0:	2220      	movs	r2, #32
 8003ff2:	f884 203e 	strb.w	r2, [r4, #62]	; 0x3e
 8003ff6:	6321      	str	r1, [r4, #48]	; 0x30
 8003ff8:	68da      	ldr	r2, [r3, #12]
 8003ffa:	f022 0210 	bic.w	r2, r2, #16
 8003ffe:	60da      	str	r2, [r3, #12]
 8004000:	f7fe f844 	bl	800208c <HAL_DMA_Abort>
 8004004:	8de3      	ldrh	r3, [r4, #46]	; 0x2e
 8004006:	8da1      	ldrh	r1, [r4, #44]	; 0x2c
 8004008:	1ac9      	subs	r1, r1, r3
 800400a:	b289      	uxth	r1, r1
 800400c:	4620      	mov	r0, r4
 800400e:	f7ff ff03 	bl	8003e18 <HAL_UARTEx_RxEventCallback>
 8004012:	e7bc      	b.n	8003f8e <HAL_UART_IRQHandler+0xda>
 8004014:	8de1      	ldrh	r1, [r4, #46]	; 0x2e
 8004016:	b288      	uxth	r0, r1
 8004018:	8de1      	ldrh	r1, [r4, #46]	; 0x2e
 800401a:	b289      	uxth	r1, r1
 800401c:	2900      	cmp	r1, #0
 800401e:	d0b6      	beq.n	8003f8e <HAL_UART_IRQHandler+0xda>
 8004020:	8da1      	ldrh	r1, [r4, #44]	; 0x2c
 8004022:	1a09      	subs	r1, r1, r0
 8004024:	b289      	uxth	r1, r1
 8004026:	2900      	cmp	r1, #0
 8004028:	d0b1      	beq.n	8003f8e <HAL_UART_IRQHandler+0xda>
 800402a:	68d8      	ldr	r0, [r3, #12]
 800402c:	f420 7090 	bic.w	r0, r0, #288	; 0x120
 8004030:	60d8      	str	r0, [r3, #12]
 8004032:	6958      	ldr	r0, [r3, #20]
 8004034:	f020 0001 	bic.w	r0, r0, #1
 8004038:	6158      	str	r0, [r3, #20]
 800403a:	2020      	movs	r0, #32
 800403c:	f884 003e 	strb.w	r0, [r4, #62]	; 0x3e
 8004040:	6322      	str	r2, [r4, #48]	; 0x30
 8004042:	68da      	ldr	r2, [r3, #12]
 8004044:	f022 0210 	bic.w	r2, r2, #16
 8004048:	60da      	str	r2, [r3, #12]
 800404a:	e7df      	b.n	800400c <HAL_UART_IRQHandler+0x158>
 800404c:	0610      	lsls	r0, r2, #24
 800404e:	d526      	bpl.n	800409e <HAL_UART_IRQHandler+0x1ea>
 8004050:	060d      	lsls	r5, r1, #24
 8004052:	d524      	bpl.n	800409e <HAL_UART_IRQHandler+0x1ea>
 8004054:	f894 203d 	ldrb.w	r2, [r4, #61]	; 0x3d
 8004058:	2a21      	cmp	r2, #33	; 0x21
 800405a:	d198      	bne.n	8003f8e <HAL_UART_IRQHandler+0xda>
 800405c:	68a1      	ldr	r1, [r4, #8]
 800405e:	6a22      	ldr	r2, [r4, #32]
 8004060:	f5b1 5f80 	cmp.w	r1, #4096	; 0x1000
 8004064:	d116      	bne.n	8004094 <HAL_UART_IRQHandler+0x1e0>
 8004066:	6921      	ldr	r1, [r4, #16]
 8004068:	b9a1      	cbnz	r1, 8004094 <HAL_UART_IRQHandler+0x1e0>
 800406a:	f832 1b02 	ldrh.w	r1, [r2], #2
 800406e:	f3c1 0108 	ubfx	r1, r1, #0, #9
 8004072:	6059      	str	r1, [r3, #4]
 8004074:	6222      	str	r2, [r4, #32]
 8004076:	8ce2      	ldrh	r2, [r4, #38]	; 0x26
 8004078:	3a01      	subs	r2, #1
 800407a:	b292      	uxth	r2, r2
 800407c:	84e2      	strh	r2, [r4, #38]	; 0x26
 800407e:	2a00      	cmp	r2, #0
 8004080:	d185      	bne.n	8003f8e <HAL_UART_IRQHandler+0xda>
 8004082:	68da      	ldr	r2, [r3, #12]
 8004084:	f022 0280 	bic.w	r2, r2, #128	; 0x80
 8004088:	60da      	str	r2, [r3, #12]
 800408a:	68da      	ldr	r2, [r3, #12]
 800408c:	f042 0240 	orr.w	r2, r2, #64	; 0x40
 8004090:	60da      	str	r2, [r3, #12]
 8004092:	e77c      	b.n	8003f8e <HAL_UART_IRQHandler+0xda>
 8004094:	1c51      	adds	r1, r2, #1
 8004096:	6221      	str	r1, [r4, #32]
 8004098:	7812      	ldrb	r2, [r2, #0]
 800409a:	605a      	str	r2, [r3, #4]
 800409c:	e7eb      	b.n	8004076 <HAL_UART_IRQHandler+0x1c2>
 800409e:	0650      	lsls	r0, r2, #25
 80040a0:	f57f af75 	bpl.w	8003f8e <HAL_UART_IRQHandler+0xda>
 80040a4:	064a      	lsls	r2, r1, #25
 80040a6:	f57f af72 	bpl.w	8003f8e <HAL_UART_IRQHandler+0xda>
 80040aa:	68da      	ldr	r2, [r3, #12]
 80040ac:	4620      	mov	r0, r4
 80040ae:	f022 0240 	bic.w	r2, r2, #64	; 0x40
 80040b2:	60da      	str	r2, [r3, #12]
 80040b4:	2320      	movs	r3, #32
 80040b6:	f884 303d 	strb.w	r3, [r4, #61]	; 0x3d
 80040ba:	f7ff fea2 	bl	8003e02 <HAL_UART_TxCpltCallback>
 80040be:	e766      	b.n	8003f8e <HAL_UART_IRQHandler+0xda>
 80040c0:	08003e09 	.word	0x08003e09

080040c4 <__errno>:
 80040c4:	4b01      	ldr	r3, [pc, #4]	; (80040cc <__errno+0x8>)
 80040c6:	6818      	ldr	r0, [r3, #0]
 80040c8:	4770      	bx	lr
 80040ca:	bf00      	nop
 80040cc:	2000000c 	.word	0x2000000c

080040d0 <__libc_init_array>:
 80040d0:	b570      	push	{r4, r5, r6, lr}
 80040d2:	2600      	movs	r6, #0
 80040d4:	4d0c      	ldr	r5, [pc, #48]	; (8004108 <__libc_init_array+0x38>)
 80040d6:	4c0d      	ldr	r4, [pc, #52]	; (800410c <__libc_init_array+0x3c>)
 80040d8:	1b64      	subs	r4, r4, r5
 80040da:	10a4      	asrs	r4, r4, #2
 80040dc:	42a6      	cmp	r6, r4
 80040de:	d109      	bne.n	80040f4 <__libc_init_array+0x24>
 80040e0:	f001 ffcc 	bl	800607c <_init>
 80040e4:	2600      	movs	r6, #0
 80040e6:	4d0a      	ldr	r5, [pc, #40]	; (8004110 <__libc_init_array+0x40>)
 80040e8:	4c0a      	ldr	r4, [pc, #40]	; (8004114 <__libc_init_array+0x44>)
 80040ea:	1b64      	subs	r4, r4, r5
 80040ec:	10a4      	asrs	r4, r4, #2
 80040ee:	42a6      	cmp	r6, r4
 80040f0:	d105      	bne.n	80040fe <__libc_init_array+0x2e>
 80040f2:	bd70      	pop	{r4, r5, r6, pc}
 80040f4:	f855 3b04 	ldr.w	r3, [r5], #4
 80040f8:	4798      	blx	r3
 80040fa:	3601      	adds	r6, #1
 80040fc:	e7ee      	b.n	80040dc <__libc_init_array+0xc>
 80040fe:	f855 3b04 	ldr.w	r3, [r5], #4
 8004102:	4798      	blx	r3
 8004104:	3601      	adds	r6, #1
 8004106:	e7f2      	b.n	80040ee <__libc_init_array+0x1e>
 8004108:	08006340 	.word	0x08006340
 800410c:	08006340 	.word	0x08006340
 8004110:	08006340 	.word	0x08006340
 8004114:	08006344 	.word	0x08006344

08004118 <memset>:
 8004118:	4603      	mov	r3, r0
 800411a:	4402      	add	r2, r0
 800411c:	4293      	cmp	r3, r2
 800411e:	d100      	bne.n	8004122 <memset+0xa>
 8004120:	4770      	bx	lr
 8004122:	f803 1b01 	strb.w	r1, [r3], #1
 8004126:	e7f9      	b.n	800411c <memset+0x4>

08004128 <siprintf>:
 8004128:	b40e      	push	{r1, r2, r3}
 800412a:	f06f 4100 	mvn.w	r1, #2147483648	; 0x80000000
 800412e:	b500      	push	{lr}
 8004130:	b09c      	sub	sp, #112	; 0x70
 8004132:	ab1d      	add	r3, sp, #116	; 0x74
 8004134:	9002      	str	r0, [sp, #8]
 8004136:	9006      	str	r0, [sp, #24]
 8004138:	9107      	str	r1, [sp, #28]
 800413a:	9104      	str	r1, [sp, #16]
 800413c:	4808      	ldr	r0, [pc, #32]	; (8004160 <siprintf+0x38>)
 800413e:	4909      	ldr	r1, [pc, #36]	; (8004164 <siprintf+0x3c>)
 8004140:	f853 2b04 	ldr.w	r2, [r3], #4
 8004144:	9105      	str	r1, [sp, #20]
 8004146:	6800      	ldr	r0, [r0, #0]
 8004148:	a902      	add	r1, sp, #8
 800414a:	9301      	str	r3, [sp, #4]
 800414c:	f000 f868 	bl	8004220 <_svfiprintf_r>
 8004150:	2200      	movs	r2, #0
 8004152:	9b02      	ldr	r3, [sp, #8]
 8004154:	701a      	strb	r2, [r3, #0]
 8004156:	b01c      	add	sp, #112	; 0x70
 8004158:	f85d eb04 	ldr.w	lr, [sp], #4
 800415c:	b003      	add	sp, #12
 800415e:	4770      	bx	lr
 8004160:	2000000c 	.word	0x2000000c
 8004164:	ffff0208 	.word	0xffff0208

08004168 <__ssputs_r>:
 8004168:	e92d 47f0 	stmdb	sp!, {r4, r5, r6, r7, r8, r9, sl, lr}
 800416c:	688e      	ldr	r6, [r1, #8]
 800416e:	4682      	mov	sl, r0
 8004170:	429e      	cmp	r6, r3
 8004172:	460c      	mov	r4, r1
 8004174:	4690      	mov	r8, r2
 8004176:	461f      	mov	r7, r3
 8004178:	d838      	bhi.n	80041ec <__ssputs_r+0x84>
 800417a:	898a      	ldrh	r2, [r1, #12]
 800417c:	f412 6f90 	tst.w	r2, #1152	; 0x480
 8004180:	d032      	beq.n	80041e8 <__ssputs_r+0x80>
 8004182:	6825      	ldr	r5, [r4, #0]
 8004184:	6909      	ldr	r1, [r1, #16]
 8004186:	3301      	adds	r3, #1
 8004188:	eba5 0901 	sub.w	r9, r5, r1
 800418c:	6965      	ldr	r5, [r4, #20]
 800418e:	444b      	add	r3, r9
 8004190:	eb05 0545 	add.w	r5, r5, r5, lsl #1
 8004194:	eb05 75d5 	add.w	r5, r5, r5, lsr #31
 8004198:	106d      	asrs	r5, r5, #1
 800419a:	429d      	cmp	r5, r3
 800419c:	bf38      	it	cc
 800419e:	461d      	movcc	r5, r3
 80041a0:	0553      	lsls	r3, r2, #21
 80041a2:	d531      	bpl.n	8004208 <__ssputs_r+0xa0>
 80041a4:	4629      	mov	r1, r5
 80041a6:	f000 fb6f 	bl	8004888 <_malloc_r>
 80041aa:	4606      	mov	r6, r0
 80041ac:	b950      	cbnz	r0, 80041c4 <__ssputs_r+0x5c>
 80041ae:	230c      	movs	r3, #12
 80041b0:	f04f 30ff 	mov.w	r0, #4294967295
 80041b4:	f8ca 3000 	str.w	r3, [sl]
 80041b8:	89a3      	ldrh	r3, [r4, #12]
 80041ba:	f043 0340 	orr.w	r3, r3, #64	; 0x40
 80041be:	81a3      	strh	r3, [r4, #12]
 80041c0:	e8bd 87f0 	ldmia.w	sp!, {r4, r5, r6, r7, r8, r9, sl, pc}
 80041c4:	464a      	mov	r2, r9
 80041c6:	6921      	ldr	r1, [r4, #16]
 80041c8:	f000 face 	bl	8004768 <memcpy>
 80041cc:	89a3      	ldrh	r3, [r4, #12]
 80041ce:	f423 6390 	bic.w	r3, r3, #1152	; 0x480
 80041d2:	f043 0380 	orr.w	r3, r3, #128	; 0x80
 80041d6:	81a3      	strh	r3, [r4, #12]
 80041d8:	6126      	str	r6, [r4, #16]
 80041da:	444e      	add	r6, r9
 80041dc:	6026      	str	r6, [r4, #0]
 80041de:	463e      	mov	r6, r7
 80041e0:	6165      	str	r5, [r4, #20]
 80041e2:	eba5 0509 	sub.w	r5, r5, r9
 80041e6:	60a5      	str	r5, [r4, #8]
 80041e8:	42be      	cmp	r6, r7
 80041ea:	d900      	bls.n	80041ee <__ssputs_r+0x86>
 80041ec:	463e      	mov	r6, r7
 80041ee:	4632      	mov	r2, r6
 80041f0:	4641      	mov	r1, r8
 80041f2:	6820      	ldr	r0, [r4, #0]
 80041f4:	f000 fac6 	bl	8004784 <memmove>
 80041f8:	68a3      	ldr	r3, [r4, #8]
 80041fa:	2000      	movs	r0, #0
 80041fc:	1b9b      	subs	r3, r3, r6
 80041fe:	60a3      	str	r3, [r4, #8]
 8004200:	6823      	ldr	r3, [r4, #0]
 8004202:	4433      	add	r3, r6
 8004204:	6023      	str	r3, [r4, #0]
 8004206:	e7db      	b.n	80041c0 <__ssputs_r+0x58>
 8004208:	462a      	mov	r2, r5
 800420a:	f000 fbb1 	bl	8004970 <_realloc_r>
 800420e:	4606      	mov	r6, r0
 8004210:	2800      	cmp	r0, #0
 8004212:	d1e1      	bne.n	80041d8 <__ssputs_r+0x70>
 8004214:	4650      	mov	r0, sl
 8004216:	6921      	ldr	r1, [r4, #16]
 8004218:	f000 face 	bl	80047b8 <_free_r>
 800421c:	e7c7      	b.n	80041ae <__ssputs_r+0x46>
	...

08004220 <_svfiprintf_r>:
 8004220:	e92d 4ff0 	stmdb	sp!, {r4, r5, r6, r7, r8, r9, sl, fp, lr}
 8004224:	4698      	mov	r8, r3
 8004226:	898b      	ldrh	r3, [r1, #12]
 8004228:	4607      	mov	r7, r0
 800422a:	061b      	lsls	r3, r3, #24
 800422c:	460d      	mov	r5, r1
 800422e:	4614      	mov	r4, r2
 8004230:	b09d      	sub	sp, #116	; 0x74
 8004232:	d50e      	bpl.n	8004252 <_svfiprintf_r+0x32>
 8004234:	690b      	ldr	r3, [r1, #16]
 8004236:	b963      	cbnz	r3, 8004252 <_svfiprintf_r+0x32>
 8004238:	2140      	movs	r1, #64	; 0x40
 800423a:	f000 fb25 	bl	8004888 <_malloc_r>
 800423e:	6028      	str	r0, [r5, #0]
 8004240:	6128      	str	r0, [r5, #16]
 8004242:	b920      	cbnz	r0, 800424e <_svfiprintf_r+0x2e>
 8004244:	230c      	movs	r3, #12
 8004246:	603b      	str	r3, [r7, #0]
 8004248:	f04f 30ff 	mov.w	r0, #4294967295
 800424c:	e0d1      	b.n	80043f2 <_svfiprintf_r+0x1d2>
 800424e:	2340      	movs	r3, #64	; 0x40
 8004250:	616b      	str	r3, [r5, #20]
 8004252:	2300      	movs	r3, #0
 8004254:	9309      	str	r3, [sp, #36]	; 0x24
 8004256:	2320      	movs	r3, #32
 8004258:	f88d 3029 	strb.w	r3, [sp, #41]	; 0x29
 800425c:	2330      	movs	r3, #48	; 0x30
 800425e:	f04f 0901 	mov.w	r9, #1
 8004262:	f8cd 800c 	str.w	r8, [sp, #12]
 8004266:	f8df 81a4 	ldr.w	r8, [pc, #420]	; 800440c <_svfiprintf_r+0x1ec>
 800426a:	f88d 302a 	strb.w	r3, [sp, #42]	; 0x2a
 800426e:	4623      	mov	r3, r4
 8004270:	469a      	mov	sl, r3
 8004272:	f813 2b01 	ldrb.w	r2, [r3], #1
 8004276:	b10a      	cbz	r2, 800427c <_svfiprintf_r+0x5c>
 8004278:	2a25      	cmp	r2, #37	; 0x25
 800427a:	d1f9      	bne.n	8004270 <_svfiprintf_r+0x50>
 800427c:	ebba 0b04 	subs.w	fp, sl, r4
 8004280:	d00b      	beq.n	800429a <_svfiprintf_r+0x7a>
 8004282:	465b      	mov	r3, fp
 8004284:	4622      	mov	r2, r4
 8004286:	4629      	mov	r1, r5
 8004288:	4638      	mov	r0, r7
 800428a:	f7ff ff6d 	bl	8004168 <__ssputs_r>
 800428e:	3001      	adds	r0, #1
 8004290:	f000 80aa 	beq.w	80043e8 <_svfiprintf_r+0x1c8>
 8004294:	9a09      	ldr	r2, [sp, #36]	; 0x24
 8004296:	445a      	add	r2, fp
 8004298:	9209      	str	r2, [sp, #36]	; 0x24
 800429a:	f89a 3000 	ldrb.w	r3, [sl]
 800429e:	2b00      	cmp	r3, #0
 80042a0:	f000 80a2 	beq.w	80043e8 <_svfiprintf_r+0x1c8>
 80042a4:	2300      	movs	r3, #0
 80042a6:	f04f 32ff 	mov.w	r2, #4294967295
 80042aa:	e9cd 2305 	strd	r2, r3, [sp, #20]
 80042ae:	f10a 0a01 	add.w	sl, sl, #1
 80042b2:	9304      	str	r3, [sp, #16]
 80042b4:	9307      	str	r3, [sp, #28]
 80042b6:	f88d 3053 	strb.w	r3, [sp, #83]	; 0x53
 80042ba:	931a      	str	r3, [sp, #104]	; 0x68
 80042bc:	4654      	mov	r4, sl
 80042be:	2205      	movs	r2, #5
 80042c0:	f814 1b01 	ldrb.w	r1, [r4], #1
 80042c4:	4851      	ldr	r0, [pc, #324]	; (800440c <_svfiprintf_r+0x1ec>)
 80042c6:	f000 fa41 	bl	800474c <memchr>
 80042ca:	9a04      	ldr	r2, [sp, #16]
 80042cc:	b9d8      	cbnz	r0, 8004306 <_svfiprintf_r+0xe6>
 80042ce:	06d0      	lsls	r0, r2, #27
 80042d0:	bf44      	itt	mi
 80042d2:	2320      	movmi	r3, #32
 80042d4:	f88d 3053 	strbmi.w	r3, [sp, #83]	; 0x53
 80042d8:	0711      	lsls	r1, r2, #28
 80042da:	bf44      	itt	mi
 80042dc:	232b      	movmi	r3, #43	; 0x2b
 80042de:	f88d 3053 	strbmi.w	r3, [sp, #83]	; 0x53
 80042e2:	f89a 3000 	ldrb.w	r3, [sl]
 80042e6:	2b2a      	cmp	r3, #42	; 0x2a
 80042e8:	d015      	beq.n	8004316 <_svfiprintf_r+0xf6>
 80042ea:	4654      	mov	r4, sl
 80042ec:	2000      	movs	r0, #0
 80042ee:	f04f 0c0a 	mov.w	ip, #10
 80042f2:	9a07      	ldr	r2, [sp, #28]
 80042f4:	4621      	mov	r1, r4
 80042f6:	f811 3b01 	ldrb.w	r3, [r1], #1
 80042fa:	3b30      	subs	r3, #48	; 0x30
 80042fc:	2b09      	cmp	r3, #9
 80042fe:	d94e      	bls.n	800439e <_svfiprintf_r+0x17e>
 8004300:	b1b0      	cbz	r0, 8004330 <_svfiprintf_r+0x110>
 8004302:	9207      	str	r2, [sp, #28]
 8004304:	e014      	b.n	8004330 <_svfiprintf_r+0x110>
 8004306:	eba0 0308 	sub.w	r3, r0, r8
 800430a:	fa09 f303 	lsl.w	r3, r9, r3
 800430e:	4313      	orrs	r3, r2
 8004310:	46a2      	mov	sl, r4
 8004312:	9304      	str	r3, [sp, #16]
 8004314:	e7d2      	b.n	80042bc <_svfiprintf_r+0x9c>
 8004316:	9b03      	ldr	r3, [sp, #12]
 8004318:	1d19      	adds	r1, r3, #4
 800431a:	681b      	ldr	r3, [r3, #0]
 800431c:	9103      	str	r1, [sp, #12]
 800431e:	2b00      	cmp	r3, #0
 8004320:	bfbb      	ittet	lt
 8004322:	425b      	neglt	r3, r3
 8004324:	f042 0202 	orrlt.w	r2, r2, #2
 8004328:	9307      	strge	r3, [sp, #28]
 800432a:	9307      	strlt	r3, [sp, #28]
 800432c:	bfb8      	it	lt
 800432e:	9204      	strlt	r2, [sp, #16]
 8004330:	7823      	ldrb	r3, [r4, #0]
 8004332:	2b2e      	cmp	r3, #46	; 0x2e
 8004334:	d10c      	bne.n	8004350 <_svfiprintf_r+0x130>
 8004336:	7863      	ldrb	r3, [r4, #1]
 8004338:	2b2a      	cmp	r3, #42	; 0x2a
 800433a:	d135      	bne.n	80043a8 <_svfiprintf_r+0x188>
 800433c:	9b03      	ldr	r3, [sp, #12]
 800433e:	3402      	adds	r4, #2
 8004340:	1d1a      	adds	r2, r3, #4
 8004342:	681b      	ldr	r3, [r3, #0]
 8004344:	9203      	str	r2, [sp, #12]
 8004346:	2b00      	cmp	r3, #0
 8004348:	bfb8      	it	lt
 800434a:	f04f 33ff 	movlt.w	r3, #4294967295
 800434e:	9305      	str	r3, [sp, #20]
 8004350:	f8df a0bc 	ldr.w	sl, [pc, #188]	; 8004410 <_svfiprintf_r+0x1f0>
 8004354:	2203      	movs	r2, #3
 8004356:	4650      	mov	r0, sl
 8004358:	7821      	ldrb	r1, [r4, #0]
 800435a:	f000 f9f7 	bl	800474c <memchr>
 800435e:	b140      	cbz	r0, 8004372 <_svfiprintf_r+0x152>
 8004360:	2340      	movs	r3, #64	; 0x40
 8004362:	eba0 000a 	sub.w	r0, r0, sl
 8004366:	fa03 f000 	lsl.w	r0, r3, r0
 800436a:	9b04      	ldr	r3, [sp, #16]
 800436c:	3401      	adds	r4, #1
 800436e:	4303      	orrs	r3, r0
 8004370:	9304      	str	r3, [sp, #16]
 8004372:	f814 1b01 	ldrb.w	r1, [r4], #1
 8004376:	2206      	movs	r2, #6
 8004378:	4826      	ldr	r0, [pc, #152]	; (8004414 <_svfiprintf_r+0x1f4>)
 800437a:	f88d 1028 	strb.w	r1, [sp, #40]	; 0x28
 800437e:	f000 f9e5 	bl	800474c <memchr>
 8004382:	2800      	cmp	r0, #0
 8004384:	d038      	beq.n	80043f8 <_svfiprintf_r+0x1d8>
 8004386:	4b24      	ldr	r3, [pc, #144]	; (8004418 <_svfiprintf_r+0x1f8>)
 8004388:	bb1b      	cbnz	r3, 80043d2 <_svfiprintf_r+0x1b2>
 800438a:	9b03      	ldr	r3, [sp, #12]
 800438c:	3307      	adds	r3, #7
 800438e:	f023 0307 	bic.w	r3, r3, #7
 8004392:	3308      	adds	r3, #8
 8004394:	9303      	str	r3, [sp, #12]
 8004396:	9b09      	ldr	r3, [sp, #36]	; 0x24
 8004398:	4433      	add	r3, r6
 800439a:	9309      	str	r3, [sp, #36]	; 0x24
 800439c:	e767      	b.n	800426e <_svfiprintf_r+0x4e>
 800439e:	460c      	mov	r4, r1
 80043a0:	2001      	movs	r0, #1
 80043a2:	fb0c 3202 	mla	r2, ip, r2, r3
 80043a6:	e7a5      	b.n	80042f4 <_svfiprintf_r+0xd4>
 80043a8:	2300      	movs	r3, #0
 80043aa:	f04f 0c0a 	mov.w	ip, #10
 80043ae:	4619      	mov	r1, r3
 80043b0:	3401      	adds	r4, #1
 80043b2:	9305      	str	r3, [sp, #20]
 80043b4:	4620      	mov	r0, r4
 80043b6:	f810 2b01 	ldrb.w	r2, [r0], #1
 80043ba:	3a30      	subs	r2, #48	; 0x30
 80043bc:	2a09      	cmp	r2, #9
 80043be:	d903      	bls.n	80043c8 <_svfiprintf_r+0x1a8>
 80043c0:	2b00      	cmp	r3, #0
 80043c2:	d0c5      	beq.n	8004350 <_svfiprintf_r+0x130>
 80043c4:	9105      	str	r1, [sp, #20]
 80043c6:	e7c3      	b.n	8004350 <_svfiprintf_r+0x130>
 80043c8:	4604      	mov	r4, r0
 80043ca:	2301      	movs	r3, #1
 80043cc:	fb0c 2101 	mla	r1, ip, r1, r2
 80043d0:	e7f0      	b.n	80043b4 <_svfiprintf_r+0x194>
 80043d2:	ab03      	add	r3, sp, #12
 80043d4:	9300      	str	r3, [sp, #0]
 80043d6:	462a      	mov	r2, r5
 80043d8:	4638      	mov	r0, r7
 80043da:	4b10      	ldr	r3, [pc, #64]	; (800441c <_svfiprintf_r+0x1fc>)
 80043dc:	a904      	add	r1, sp, #16
 80043de:	f3af 8000 	nop.w
 80043e2:	1c42      	adds	r2, r0, #1
 80043e4:	4606      	mov	r6, r0
 80043e6:	d1d6      	bne.n	8004396 <_svfiprintf_r+0x176>
 80043e8:	89ab      	ldrh	r3, [r5, #12]
 80043ea:	065b      	lsls	r3, r3, #25
 80043ec:	f53f af2c 	bmi.w	8004248 <_svfiprintf_r+0x28>
 80043f0:	9809      	ldr	r0, [sp, #36]	; 0x24
 80043f2:	b01d      	add	sp, #116	; 0x74
 80043f4:	e8bd 8ff0 	ldmia.w	sp!, {r4, r5, r6, r7, r8, r9, sl, fp, pc}
 80043f8:	ab03      	add	r3, sp, #12
 80043fa:	9300      	str	r3, [sp, #0]
 80043fc:	462a      	mov	r2, r5
 80043fe:	4638      	mov	r0, r7
 8004400:	4b06      	ldr	r3, [pc, #24]	; (800441c <_svfiprintf_r+0x1fc>)
 8004402:	a904      	add	r1, sp, #16
 8004404:	f000 f87c 	bl	8004500 <_printf_i>
 8004408:	e7eb      	b.n	80043e2 <_svfiprintf_r+0x1c2>
 800440a:	bf00      	nop
 800440c:	080060c4 	.word	0x080060c4
 8004410:	080060ca 	.word	0x080060ca
 8004414:	080060ce 	.word	0x080060ce
 8004418:	00000000 	.word	0x00000000
 800441c:	08004169 	.word	0x08004169

08004420 <_printf_common>:
 8004420:	e92d 47f0 	stmdb	sp!, {r4, r5, r6, r7, r8, r9, sl, lr}
 8004424:	4616      	mov	r6, r2
 8004426:	4699      	mov	r9, r3
 8004428:	688a      	ldr	r2, [r1, #8]
 800442a:	690b      	ldr	r3, [r1, #16]
 800442c:	4607      	mov	r7, r0
 800442e:	4293      	cmp	r3, r2
 8004430:	bfb8      	it	lt
 8004432:	4613      	movlt	r3, r2
 8004434:	6033      	str	r3, [r6, #0]
 8004436:	f891 2043 	ldrb.w	r2, [r1, #67]	; 0x43
 800443a:	460c      	mov	r4, r1
 800443c:	f8dd 8020 	ldr.w	r8, [sp, #32]
 8004440:	b10a      	cbz	r2, 8004446 <_printf_common+0x26>
 8004442:	3301      	adds	r3, #1
 8004444:	6033      	str	r3, [r6, #0]
 8004446:	6823      	ldr	r3, [r4, #0]
 8004448:	0699      	lsls	r1, r3, #26
 800444a:	bf42      	ittt	mi
 800444c:	6833      	ldrmi	r3, [r6, #0]
 800444e:	3302      	addmi	r3, #2
 8004450:	6033      	strmi	r3, [r6, #0]
 8004452:	6825      	ldr	r5, [r4, #0]
 8004454:	f015 0506 	ands.w	r5, r5, #6
 8004458:	d106      	bne.n	8004468 <_printf_common+0x48>
 800445a:	f104 0a19 	add.w	sl, r4, #25
 800445e:	68e3      	ldr	r3, [r4, #12]
 8004460:	6832      	ldr	r2, [r6, #0]
 8004462:	1a9b      	subs	r3, r3, r2
 8004464:	42ab      	cmp	r3, r5
 8004466:	dc28      	bgt.n	80044ba <_printf_common+0x9a>
 8004468:	f894 2043 	ldrb.w	r2, [r4, #67]	; 0x43
 800446c:	1e13      	subs	r3, r2, #0
 800446e:	6822      	ldr	r2, [r4, #0]
 8004470:	bf18      	it	ne
 8004472:	2301      	movne	r3, #1
 8004474:	0692      	lsls	r2, r2, #26
 8004476:	d42d      	bmi.n	80044d4 <_printf_common+0xb4>
 8004478:	4649      	mov	r1, r9
 800447a:	4638      	mov	r0, r7
 800447c:	f104 0243 	add.w	r2, r4, #67	; 0x43
 8004480:	47c0      	blx	r8
 8004482:	3001      	adds	r0, #1
 8004484:	d020      	beq.n	80044c8 <_printf_common+0xa8>
 8004486:	6823      	ldr	r3, [r4, #0]
 8004488:	68e5      	ldr	r5, [r4, #12]
 800448a:	f003 0306 	and.w	r3, r3, #6
 800448e:	2b04      	cmp	r3, #4
 8004490:	bf18      	it	ne
 8004492:	2500      	movne	r5, #0
 8004494:	6832      	ldr	r2, [r6, #0]
 8004496:	f04f 0600 	mov.w	r6, #0
 800449a:	68a3      	ldr	r3, [r4, #8]
 800449c:	bf08      	it	eq
 800449e:	1aad      	subeq	r5, r5, r2
 80044a0:	6922      	ldr	r2, [r4, #16]
 80044a2:	bf08      	it	eq
 80044a4:	ea25 75e5 	biceq.w	r5, r5, r5, asr #31
 80044a8:	4293      	cmp	r3, r2
 80044aa:	bfc4      	itt	gt
 80044ac:	1a9b      	subgt	r3, r3, r2
 80044ae:	18ed      	addgt	r5, r5, r3
 80044b0:	341a      	adds	r4, #26
 80044b2:	42b5      	cmp	r5, r6
 80044b4:	d11a      	bne.n	80044ec <_printf_common+0xcc>
 80044b6:	2000      	movs	r0, #0
 80044b8:	e008      	b.n	80044cc <_printf_common+0xac>
 80044ba:	2301      	movs	r3, #1
 80044bc:	4652      	mov	r2, sl
 80044be:	4649      	mov	r1, r9
 80044c0:	4638      	mov	r0, r7
 80044c2:	47c0      	blx	r8
 80044c4:	3001      	adds	r0, #1
 80044c6:	d103      	bne.n	80044d0 <_printf_common+0xb0>
 80044c8:	f04f 30ff 	mov.w	r0, #4294967295
 80044cc:	e8bd 87f0 	ldmia.w	sp!, {r4, r5, r6, r7, r8, r9, sl, pc}
 80044d0:	3501      	adds	r5, #1
 80044d2:	e7c4      	b.n	800445e <_printf_common+0x3e>
 80044d4:	2030      	movs	r0, #48	; 0x30
 80044d6:	18e1      	adds	r1, r4, r3
 80044d8:	f881 0043 	strb.w	r0, [r1, #67]	; 0x43
 80044dc:	1c5a      	adds	r2, r3, #1
 80044de:	f894 1045 	ldrb.w	r1, [r4, #69]	; 0x45
 80044e2:	4422      	add	r2, r4
 80044e4:	3302      	adds	r3, #2
 80044e6:	f882 1043 	strb.w	r1, [r2, #67]	; 0x43
 80044ea:	e7c5      	b.n	8004478 <_printf_common+0x58>
 80044ec:	2301      	movs	r3, #1
 80044ee:	4622      	mov	r2, r4
 80044f0:	4649      	mov	r1, r9
 80044f2:	4638      	mov	r0, r7
 80044f4:	47c0      	blx	r8
 80044f6:	3001      	adds	r0, #1
 80044f8:	d0e6      	beq.n	80044c8 <_printf_common+0xa8>
 80044fa:	3601      	adds	r6, #1
 80044fc:	e7d9      	b.n	80044b2 <_printf_common+0x92>
	...

08004500 <_printf_i>:
 8004500:	e92d 47ff 	stmdb	sp!, {r0, r1, r2, r3, r4, r5, r6, r7, r8, r9, sl, lr}
 8004504:	7e0f      	ldrb	r7, [r1, #24]
 8004506:	4691      	mov	r9, r2
 8004508:	2f78      	cmp	r7, #120	; 0x78
 800450a:	4680      	mov	r8, r0
 800450c:	460c      	mov	r4, r1
 800450e:	469a      	mov	sl, r3
 8004510:	9d0c      	ldr	r5, [sp, #48]	; 0x30
 8004512:	f101 0243 	add.w	r2, r1, #67	; 0x43
 8004516:	d807      	bhi.n	8004528 <_printf_i+0x28>
 8004518:	2f62      	cmp	r7, #98	; 0x62
 800451a:	d80a      	bhi.n	8004532 <_printf_i+0x32>
 800451c:	2f00      	cmp	r7, #0
 800451e:	f000 80d9 	beq.w	80046d4 <_printf_i+0x1d4>
 8004522:	2f58      	cmp	r7, #88	; 0x58
 8004524:	f000 80a4 	beq.w	8004670 <_printf_i+0x170>
 8004528:	f104 0542 	add.w	r5, r4, #66	; 0x42
 800452c:	f884 7042 	strb.w	r7, [r4, #66]	; 0x42
 8004530:	e03a      	b.n	80045a8 <_printf_i+0xa8>
 8004532:	f1a7 0363 	sub.w	r3, r7, #99	; 0x63
 8004536:	2b15      	cmp	r3, #21
 8004538:	d8f6      	bhi.n	8004528 <_printf_i+0x28>
 800453a:	a101      	add	r1, pc, #4	; (adr r1, 8004540 <_printf_i+0x40>)
 800453c:	f851 f023 	ldr.w	pc, [r1, r3, lsl #2]
 8004540:	08004599 	.word	0x08004599
 8004544:	080045ad 	.word	0x080045ad
 8004548:	08004529 	.word	0x08004529
 800454c:	08004529 	.word	0x08004529
 8004550:	08004529 	.word	0x08004529
 8004554:	08004529 	.word	0x08004529
 8004558:	080045ad 	.word	0x080045ad
 800455c:	08004529 	.word	0x08004529
 8004560:	08004529 	.word	0x08004529
 8004564:	08004529 	.word	0x08004529
 8004568:	08004529 	.word	0x08004529
 800456c:	080046bb 	.word	0x080046bb
 8004570:	080045dd 	.word	0x080045dd
 8004574:	0800469d 	.word	0x0800469d
 8004578:	08004529 	.word	0x08004529
 800457c:	08004529 	.word	0x08004529
 8004580:	080046dd 	.word	0x080046dd
 8004584:	08004529 	.word	0x08004529
 8004588:	080045dd 	.word	0x080045dd
 800458c:	08004529 	.word	0x08004529
 8004590:	08004529 	.word	0x08004529
 8004594:	080046a5 	.word	0x080046a5
 8004598:	682b      	ldr	r3, [r5, #0]
 800459a:	1d1a      	adds	r2, r3, #4
 800459c:	681b      	ldr	r3, [r3, #0]
 800459e:	602a      	str	r2, [r5, #0]
 80045a0:	f104 0542 	add.w	r5, r4, #66	; 0x42
 80045a4:	f884 3042 	strb.w	r3, [r4, #66]	; 0x42
 80045a8:	2301      	movs	r3, #1
 80045aa:	e0a4      	b.n	80046f6 <_printf_i+0x1f6>
 80045ac:	6820      	ldr	r0, [r4, #0]
 80045ae:	6829      	ldr	r1, [r5, #0]
 80045b0:	0606      	lsls	r6, r0, #24
 80045b2:	f101 0304 	add.w	r3, r1, #4
 80045b6:	d50a      	bpl.n	80045ce <_printf_i+0xce>
 80045b8:	680e      	ldr	r6, [r1, #0]
 80045ba:	602b      	str	r3, [r5, #0]
 80045bc:	2e00      	cmp	r6, #0
 80045be:	da03      	bge.n	80045c8 <_printf_i+0xc8>
 80045c0:	232d      	movs	r3, #45	; 0x2d
 80045c2:	4276      	negs	r6, r6
 80045c4:	f884 3043 	strb.w	r3, [r4, #67]	; 0x43
 80045c8:	230a      	movs	r3, #10
 80045ca:	485e      	ldr	r0, [pc, #376]	; (8004744 <_printf_i+0x244>)
 80045cc:	e019      	b.n	8004602 <_printf_i+0x102>
 80045ce:	680e      	ldr	r6, [r1, #0]
 80045d0:	f010 0f40 	tst.w	r0, #64	; 0x40
 80045d4:	602b      	str	r3, [r5, #0]
 80045d6:	bf18      	it	ne
 80045d8:	b236      	sxthne	r6, r6
 80045da:	e7ef      	b.n	80045bc <_printf_i+0xbc>
 80045dc:	682b      	ldr	r3, [r5, #0]
 80045de:	6820      	ldr	r0, [r4, #0]
 80045e0:	1d19      	adds	r1, r3, #4
 80045e2:	6029      	str	r1, [r5, #0]
 80045e4:	0601      	lsls	r1, r0, #24
 80045e6:	d501      	bpl.n	80045ec <_printf_i+0xec>
 80045e8:	681e      	ldr	r6, [r3, #0]
 80045ea:	e002      	b.n	80045f2 <_printf_i+0xf2>
 80045ec:	0646      	lsls	r6, r0, #25
 80045ee:	d5fb      	bpl.n	80045e8 <_printf_i+0xe8>
 80045f0:	881e      	ldrh	r6, [r3, #0]
 80045f2:	2f6f      	cmp	r7, #111	; 0x6f
 80045f4:	bf0c      	ite	eq
 80045f6:	2308      	moveq	r3, #8
 80045f8:	230a      	movne	r3, #10
 80045fa:	4852      	ldr	r0, [pc, #328]	; (8004744 <_printf_i+0x244>)
 80045fc:	2100      	movs	r1, #0
 80045fe:	f884 1043 	strb.w	r1, [r4, #67]	; 0x43
 8004602:	6865      	ldr	r5, [r4, #4]
 8004604:	2d00      	cmp	r5, #0
 8004606:	bfa8      	it	ge
 8004608:	6821      	ldrge	r1, [r4, #0]
 800460a:	60a5      	str	r5, [r4, #8]
 800460c:	bfa4      	itt	ge
 800460e:	f021 0104 	bicge.w	r1, r1, #4
 8004612:	6021      	strge	r1, [r4, #0]
 8004614:	b90e      	cbnz	r6, 800461a <_printf_i+0x11a>
 8004616:	2d00      	cmp	r5, #0
 8004618:	d04d      	beq.n	80046b6 <_printf_i+0x1b6>
 800461a:	4615      	mov	r5, r2
 800461c:	fbb6 f1f3 	udiv	r1, r6, r3
 8004620:	fb03 6711 	mls	r7, r3, r1, r6
 8004624:	5dc7      	ldrb	r7, [r0, r7]
 8004626:	f805 7d01 	strb.w	r7, [r5, #-1]!
 800462a:	4637      	mov	r7, r6
 800462c:	42bb      	cmp	r3, r7
 800462e:	460e      	mov	r6, r1
 8004630:	d9f4      	bls.n	800461c <_printf_i+0x11c>
 8004632:	2b08      	cmp	r3, #8
 8004634:	d10b      	bne.n	800464e <_printf_i+0x14e>
 8004636:	6823      	ldr	r3, [r4, #0]
 8004638:	07de      	lsls	r6, r3, #31
 800463a:	d508      	bpl.n	800464e <_printf_i+0x14e>
 800463c:	6923      	ldr	r3, [r4, #16]
 800463e:	6861      	ldr	r1, [r4, #4]
 8004640:	4299      	cmp	r1, r3
 8004642:	bfde      	ittt	le
 8004644:	2330      	movle	r3, #48	; 0x30
 8004646:	f805 3c01 	strble.w	r3, [r5, #-1]
 800464a:	f105 35ff 	addle.w	r5, r5, #4294967295
 800464e:	1b52      	subs	r2, r2, r5
 8004650:	6122      	str	r2, [r4, #16]
 8004652:	464b      	mov	r3, r9
 8004654:	4621      	mov	r1, r4
 8004656:	4640      	mov	r0, r8
 8004658:	f8cd a000 	str.w	sl, [sp]
 800465c:	aa03      	add	r2, sp, #12
 800465e:	f7ff fedf 	bl	8004420 <_printf_common>
 8004662:	3001      	adds	r0, #1
 8004664:	d14c      	bne.n	8004700 <_printf_i+0x200>
 8004666:	f04f 30ff 	mov.w	r0, #4294967295
 800466a:	b004      	add	sp, #16
 800466c:	e8bd 87f0 	ldmia.w	sp!, {r4, r5, r6, r7, r8, r9, sl, pc}
 8004670:	4834      	ldr	r0, [pc, #208]	; (8004744 <_printf_i+0x244>)
 8004672:	f881 7045 	strb.w	r7, [r1, #69]	; 0x45
 8004676:	6829      	ldr	r1, [r5, #0]
 8004678:	6823      	ldr	r3, [r4, #0]
 800467a:	f851 6b04 	ldr.w	r6, [r1], #4
 800467e:	6029      	str	r1, [r5, #0]
 8004680:	061d      	lsls	r5, r3, #24
 8004682:	d514      	bpl.n	80046ae <_printf_i+0x1ae>
 8004684:	07df      	lsls	r7, r3, #31
 8004686:	bf44      	itt	mi
 8004688:	f043 0320 	orrmi.w	r3, r3, #32
 800468c:	6023      	strmi	r3, [r4, #0]
 800468e:	b91e      	cbnz	r6, 8004698 <_printf_i+0x198>
 8004690:	6823      	ldr	r3, [r4, #0]
 8004692:	f023 0320 	bic.w	r3, r3, #32
 8004696:	6023      	str	r3, [r4, #0]
 8004698:	2310      	movs	r3, #16
 800469a:	e7af      	b.n	80045fc <_printf_i+0xfc>
 800469c:	6823      	ldr	r3, [r4, #0]
 800469e:	f043 0320 	orr.w	r3, r3, #32
 80046a2:	6023      	str	r3, [r4, #0]
 80046a4:	2378      	movs	r3, #120	; 0x78
 80046a6:	4828      	ldr	r0, [pc, #160]	; (8004748 <_printf_i+0x248>)
 80046a8:	f884 3045 	strb.w	r3, [r4, #69]	; 0x45
 80046ac:	e7e3      	b.n	8004676 <_printf_i+0x176>
 80046ae:	0659      	lsls	r1, r3, #25
 80046b0:	bf48      	it	mi
 80046b2:	b2b6      	uxthmi	r6, r6
 80046b4:	e7e6      	b.n	8004684 <_printf_i+0x184>
 80046b6:	4615      	mov	r5, r2
 80046b8:	e7bb      	b.n	8004632 <_printf_i+0x132>
 80046ba:	682b      	ldr	r3, [r5, #0]
 80046bc:	6826      	ldr	r6, [r4, #0]
 80046be:	1d18      	adds	r0, r3, #4
 80046c0:	6961      	ldr	r1, [r4, #20]
 80046c2:	6028      	str	r0, [r5, #0]
 80046c4:	0635      	lsls	r5, r6, #24
 80046c6:	681b      	ldr	r3, [r3, #0]
 80046c8:	d501      	bpl.n	80046ce <_printf_i+0x1ce>
 80046ca:	6019      	str	r1, [r3, #0]
 80046cc:	e002      	b.n	80046d4 <_printf_i+0x1d4>
 80046ce:	0670      	lsls	r0, r6, #25
 80046d0:	d5fb      	bpl.n	80046ca <_printf_i+0x1ca>
 80046d2:	8019      	strh	r1, [r3, #0]
 80046d4:	2300      	movs	r3, #0
 80046d6:	4615      	mov	r5, r2
 80046d8:	6123      	str	r3, [r4, #16]
 80046da:	e7ba      	b.n	8004652 <_printf_i+0x152>
 80046dc:	682b      	ldr	r3, [r5, #0]
 80046de:	2100      	movs	r1, #0
 80046e0:	1d1a      	adds	r2, r3, #4
 80046e2:	602a      	str	r2, [r5, #0]
 80046e4:	681d      	ldr	r5, [r3, #0]
 80046e6:	6862      	ldr	r2, [r4, #4]
 80046e8:	4628      	mov	r0, r5
 80046ea:	f000 f82f 	bl	800474c <memchr>
 80046ee:	b108      	cbz	r0, 80046f4 <_printf_i+0x1f4>
 80046f0:	1b40      	subs	r0, r0, r5
 80046f2:	6060      	str	r0, [r4, #4]
 80046f4:	6863      	ldr	r3, [r4, #4]
 80046f6:	6123      	str	r3, [r4, #16]
 80046f8:	2300      	movs	r3, #0
 80046fa:	f884 3043 	strb.w	r3, [r4, #67]	; 0x43
 80046fe:	e7a8      	b.n	8004652 <_printf_i+0x152>
 8004700:	462a      	mov	r2, r5
 8004702:	4649      	mov	r1, r9
 8004704:	4640      	mov	r0, r8
 8004706:	6923      	ldr	r3, [r4, #16]
 8004708:	47d0      	blx	sl
 800470a:	3001      	adds	r0, #1
 800470c:	d0ab      	beq.n	8004666 <_printf_i+0x166>
 800470e:	6823      	ldr	r3, [r4, #0]
 8004710:	079b      	lsls	r3, r3, #30
 8004712:	d413      	bmi.n	800473c <_printf_i+0x23c>
 8004714:	68e0      	ldr	r0, [r4, #12]
 8004716:	9b03      	ldr	r3, [sp, #12]
 8004718:	4298      	cmp	r0, r3
 800471a:	bfb8      	it	lt
 800471c:	4618      	movlt	r0, r3
 800471e:	e7a4      	b.n	800466a <_printf_i+0x16a>
 8004720:	2301      	movs	r3, #1
 8004722:	4632      	mov	r2, r6
 8004724:	4649      	mov	r1, r9
 8004726:	4640      	mov	r0, r8
 8004728:	47d0      	blx	sl
 800472a:	3001      	adds	r0, #1
 800472c:	d09b      	beq.n	8004666 <_printf_i+0x166>
 800472e:	3501      	adds	r5, #1
 8004730:	68e3      	ldr	r3, [r4, #12]
 8004732:	9903      	ldr	r1, [sp, #12]
 8004734:	1a5b      	subs	r3, r3, r1
 8004736:	42ab      	cmp	r3, r5
 8004738:	dcf2      	bgt.n	8004720 <_printf_i+0x220>
 800473a:	e7eb      	b.n	8004714 <_printf_i+0x214>
 800473c:	2500      	movs	r5, #0
 800473e:	f104 0619 	add.w	r6, r4, #25
 8004742:	e7f5      	b.n	8004730 <_printf_i+0x230>
 8004744:	080060d5 	.word	0x080060d5
 8004748:	080060e6 	.word	0x080060e6

0800474c <memchr>:
 800474c:	4603      	mov	r3, r0
 800474e:	b510      	push	{r4, lr}
 8004750:	b2c9      	uxtb	r1, r1
 8004752:	4402      	add	r2, r0
 8004754:	4293      	cmp	r3, r2
 8004756:	4618      	mov	r0, r3
 8004758:	d101      	bne.n	800475e <memchr+0x12>
 800475a:	2000      	movs	r0, #0
 800475c:	e003      	b.n	8004766 <memchr+0x1a>
 800475e:	7804      	ldrb	r4, [r0, #0]
 8004760:	3301      	adds	r3, #1
 8004762:	428c      	cmp	r4, r1
 8004764:	d1f6      	bne.n	8004754 <memchr+0x8>
 8004766:	bd10      	pop	{r4, pc}

08004768 <memcpy>:
 8004768:	440a      	add	r2, r1
 800476a:	4291      	cmp	r1, r2
 800476c:	f100 33ff 	add.w	r3, r0, #4294967295
 8004770:	d100      	bne.n	8004774 <memcpy+0xc>
 8004772:	4770      	bx	lr
 8004774:	b510      	push	{r4, lr}
 8004776:	f811 4b01 	ldrb.w	r4, [r1], #1
 800477a:	4291      	cmp	r1, r2
 800477c:	f803 4f01 	strb.w	r4, [r3, #1]!
 8004780:	d1f9      	bne.n	8004776 <memcpy+0xe>
 8004782:	bd10      	pop	{r4, pc}

08004784 <memmove>:
 8004784:	4288      	cmp	r0, r1
 8004786:	b510      	push	{r4, lr}
 8004788:	eb01 0402 	add.w	r4, r1, r2
 800478c:	d902      	bls.n	8004794 <memmove+0x10>
 800478e:	4284      	cmp	r4, r0
 8004790:	4623      	mov	r3, r4
 8004792:	d807      	bhi.n	80047a4 <memmove+0x20>
 8004794:	1e43      	subs	r3, r0, #1
 8004796:	42a1      	cmp	r1, r4
 8004798:	d008      	beq.n	80047ac <memmove+0x28>
 800479a:	f811 2b01 	ldrb.w	r2, [r1], #1
 800479e:	f803 2f01 	strb.w	r2, [r3, #1]!
 80047a2:	e7f8      	b.n	8004796 <memmove+0x12>
 80047a4:	4601      	mov	r1, r0
 80047a6:	4402      	add	r2, r0
 80047a8:	428a      	cmp	r2, r1
 80047aa:	d100      	bne.n	80047ae <memmove+0x2a>
 80047ac:	bd10      	pop	{r4, pc}
 80047ae:	f813 4d01 	ldrb.w	r4, [r3, #-1]!
 80047b2:	f802 4d01 	strb.w	r4, [r2, #-1]!
 80047b6:	e7f7      	b.n	80047a8 <memmove+0x24>

080047b8 <_free_r>:
 80047b8:	b538      	push	{r3, r4, r5, lr}
 80047ba:	4605      	mov	r5, r0
 80047bc:	2900      	cmp	r1, #0
 80047be:	d040      	beq.n	8004842 <_free_r+0x8a>
 80047c0:	f851 3c04 	ldr.w	r3, [r1, #-4]
 80047c4:	1f0c      	subs	r4, r1, #4
 80047c6:	2b00      	cmp	r3, #0
 80047c8:	bfb8      	it	lt
 80047ca:	18e4      	addlt	r4, r4, r3
 80047cc:	f000 f910 	bl	80049f0 <__malloc_lock>
 80047d0:	4a1c      	ldr	r2, [pc, #112]	; (8004844 <_free_r+0x8c>)
 80047d2:	6813      	ldr	r3, [r2, #0]
 80047d4:	b933      	cbnz	r3, 80047e4 <_free_r+0x2c>
 80047d6:	6063      	str	r3, [r4, #4]
 80047d8:	6014      	str	r4, [r2, #0]
 80047da:	4628      	mov	r0, r5
 80047dc:	e8bd 4038 	ldmia.w	sp!, {r3, r4, r5, lr}
 80047e0:	f000 b90c 	b.w	80049fc <__malloc_unlock>
 80047e4:	42a3      	cmp	r3, r4
 80047e6:	d908      	bls.n	80047fa <_free_r+0x42>
 80047e8:	6820      	ldr	r0, [r4, #0]
 80047ea:	1821      	adds	r1, r4, r0
 80047ec:	428b      	cmp	r3, r1
 80047ee:	bf01      	itttt	eq
 80047f0:	6819      	ldreq	r1, [r3, #0]
 80047f2:	685b      	ldreq	r3, [r3, #4]
 80047f4:	1809      	addeq	r1, r1, r0
 80047f6:	6021      	streq	r1, [r4, #0]
 80047f8:	e7ed      	b.n	80047d6 <_free_r+0x1e>
 80047fa:	461a      	mov	r2, r3
 80047fc:	685b      	ldr	r3, [r3, #4]
 80047fe:	b10b      	cbz	r3, 8004804 <_free_r+0x4c>
 8004800:	42a3      	cmp	r3, r4
 8004802:	d9fa      	bls.n	80047fa <_free_r+0x42>
 8004804:	6811      	ldr	r1, [r2, #0]
 8004806:	1850      	adds	r0, r2, r1
 8004808:	42a0      	cmp	r0, r4
 800480a:	d10b      	bne.n	8004824 <_free_r+0x6c>
 800480c:	6820      	ldr	r0, [r4, #0]
 800480e:	4401      	add	r1, r0
 8004810:	1850      	adds	r0, r2, r1
 8004812:	4283      	cmp	r3, r0
 8004814:	6011      	str	r1, [r2, #0]
 8004816:	d1e0      	bne.n	80047da <_free_r+0x22>
 8004818:	6818      	ldr	r0, [r3, #0]
 800481a:	685b      	ldr	r3, [r3, #4]
 800481c:	4401      	add	r1, r0
 800481e:	6011      	str	r1, [r2, #0]
 8004820:	6053      	str	r3, [r2, #4]
 8004822:	e7da      	b.n	80047da <_free_r+0x22>
 8004824:	d902      	bls.n	800482c <_free_r+0x74>
 8004826:	230c      	movs	r3, #12
 8004828:	602b      	str	r3, [r5, #0]
 800482a:	e7d6      	b.n	80047da <_free_r+0x22>
 800482c:	6820      	ldr	r0, [r4, #0]
 800482e:	1821      	adds	r1, r4, r0
 8004830:	428b      	cmp	r3, r1
 8004832:	bf01      	itttt	eq
 8004834:	6819      	ldreq	r1, [r3, #0]
 8004836:	685b      	ldreq	r3, [r3, #4]
 8004838:	1809      	addeq	r1, r1, r0
 800483a:	6021      	streq	r1, [r4, #0]
 800483c:	6063      	str	r3, [r4, #4]
 800483e:	6054      	str	r4, [r2, #4]
 8004840:	e7cb      	b.n	80047da <_free_r+0x22>
 8004842:	bd38      	pop	{r3, r4, r5, pc}
 8004844:	2000025c 	.word	0x2000025c

08004848 <sbrk_aligned>:
 8004848:	b570      	push	{r4, r5, r6, lr}
 800484a:	4e0e      	ldr	r6, [pc, #56]	; (8004884 <sbrk_aligned+0x3c>)
 800484c:	460c      	mov	r4, r1
 800484e:	6831      	ldr	r1, [r6, #0]
 8004850:	4605      	mov	r5, r0
 8004852:	b911      	cbnz	r1, 800485a <sbrk_aligned+0x12>
 8004854:	f000 f8bc 	bl	80049d0 <_sbrk_r>
 8004858:	6030      	str	r0, [r6, #0]
 800485a:	4621      	mov	r1, r4
 800485c:	4628      	mov	r0, r5
 800485e:	f000 f8b7 	bl	80049d0 <_sbrk_r>
 8004862:	1c43      	adds	r3, r0, #1
 8004864:	d00a      	beq.n	800487c <sbrk_aligned+0x34>
 8004866:	1cc4      	adds	r4, r0, #3
 8004868:	f024 0403 	bic.w	r4, r4, #3
 800486c:	42a0      	cmp	r0, r4
 800486e:	d007      	beq.n	8004880 <sbrk_aligned+0x38>
 8004870:	1a21      	subs	r1, r4, r0
 8004872:	4628      	mov	r0, r5
 8004874:	f000 f8ac 	bl	80049d0 <_sbrk_r>
 8004878:	3001      	adds	r0, #1
 800487a:	d101      	bne.n	8004880 <sbrk_aligned+0x38>
 800487c:	f04f 34ff 	mov.w	r4, #4294967295
 8004880:	4620      	mov	r0, r4
 8004882:	bd70      	pop	{r4, r5, r6, pc}
 8004884:	20000260 	.word	0x20000260

08004888 <_malloc_r>:
 8004888:	e92d 41f0 	stmdb	sp!, {r4, r5, r6, r7, r8, lr}
 800488c:	1ccd      	adds	r5, r1, #3
 800488e:	f025 0503 	bic.w	r5, r5, #3
 8004892:	3508      	adds	r5, #8
 8004894:	2d0c      	cmp	r5, #12
 8004896:	bf38      	it	cc
 8004898:	250c      	movcc	r5, #12
 800489a:	2d00      	cmp	r5, #0
 800489c:	4607      	mov	r7, r0
 800489e:	db01      	blt.n	80048a4 <_malloc_r+0x1c>
 80048a0:	42a9      	cmp	r1, r5
 80048a2:	d905      	bls.n	80048b0 <_malloc_r+0x28>
 80048a4:	230c      	movs	r3, #12
 80048a6:	2600      	movs	r6, #0
 80048a8:	603b      	str	r3, [r7, #0]
 80048aa:	4630      	mov	r0, r6
 80048ac:	e8bd 81f0 	ldmia.w	sp!, {r4, r5, r6, r7, r8, pc}
 80048b0:	4e2e      	ldr	r6, [pc, #184]	; (800496c <_malloc_r+0xe4>)
 80048b2:	f000 f89d 	bl	80049f0 <__malloc_lock>
 80048b6:	6833      	ldr	r3, [r6, #0]
 80048b8:	461c      	mov	r4, r3
 80048ba:	bb34      	cbnz	r4, 800490a <_malloc_r+0x82>
 80048bc:	4629      	mov	r1, r5
 80048be:	4638      	mov	r0, r7
 80048c0:	f7ff ffc2 	bl	8004848 <sbrk_aligned>
 80048c4:	1c43      	adds	r3, r0, #1
 80048c6:	4604      	mov	r4, r0
 80048c8:	d14d      	bne.n	8004966 <_malloc_r+0xde>
 80048ca:	6834      	ldr	r4, [r6, #0]
 80048cc:	4626      	mov	r6, r4
 80048ce:	2e00      	cmp	r6, #0
 80048d0:	d140      	bne.n	8004954 <_malloc_r+0xcc>
 80048d2:	6823      	ldr	r3, [r4, #0]
 80048d4:	4631      	mov	r1, r6
 80048d6:	4638      	mov	r0, r7
 80048d8:	eb04 0803 	add.w	r8, r4, r3
 80048dc:	f000 f878 	bl	80049d0 <_sbrk_r>
 80048e0:	4580      	cmp	r8, r0
 80048e2:	d13a      	bne.n	800495a <_malloc_r+0xd2>
 80048e4:	6821      	ldr	r1, [r4, #0]
 80048e6:	3503      	adds	r5, #3
 80048e8:	1a6d      	subs	r5, r5, r1
 80048ea:	f025 0503 	bic.w	r5, r5, #3
 80048ee:	3508      	adds	r5, #8
 80048f0:	2d0c      	cmp	r5, #12
 80048f2:	bf38      	it	cc
 80048f4:	250c      	movcc	r5, #12
 80048f6:	4638      	mov	r0, r7
 80048f8:	4629      	mov	r1, r5
 80048fa:	f7ff ffa5 	bl	8004848 <sbrk_aligned>
 80048fe:	3001      	adds	r0, #1
 8004900:	d02b      	beq.n	800495a <_malloc_r+0xd2>
 8004902:	6823      	ldr	r3, [r4, #0]
 8004904:	442b      	add	r3, r5
 8004906:	6023      	str	r3, [r4, #0]
 8004908:	e00e      	b.n	8004928 <_malloc_r+0xa0>
 800490a:	6822      	ldr	r2, [r4, #0]
 800490c:	1b52      	subs	r2, r2, r5
 800490e:	d41e      	bmi.n	800494e <_malloc_r+0xc6>
 8004910:	2a0b      	cmp	r2, #11
 8004912:	d916      	bls.n	8004942 <_malloc_r+0xba>
 8004914:	1961      	adds	r1, r4, r5
 8004916:	42a3      	cmp	r3, r4
 8004918:	6025      	str	r5, [r4, #0]
 800491a:	bf18      	it	ne
 800491c:	6059      	strne	r1, [r3, #4]
 800491e:	6863      	ldr	r3, [r4, #4]
 8004920:	bf08      	it	eq
 8004922:	6031      	streq	r1, [r6, #0]
 8004924:	5162      	str	r2, [r4, r5]
 8004926:	604b      	str	r3, [r1, #4]
 8004928:	4638      	mov	r0, r7
 800492a:	f104 060b 	add.w	r6, r4, #11
 800492e:	f000 f865 	bl	80049fc <__malloc_unlock>
 8004932:	f026 0607 	bic.w	r6, r6, #7
 8004936:	1d23      	adds	r3, r4, #4
 8004938:	1af2      	subs	r2, r6, r3
 800493a:	d0b6      	beq.n	80048aa <_malloc_r+0x22>
 800493c:	1b9b      	subs	r3, r3, r6
 800493e:	50a3      	str	r3, [r4, r2]
 8004940:	e7b3      	b.n	80048aa <_malloc_r+0x22>
 8004942:	6862      	ldr	r2, [r4, #4]
 8004944:	42a3      	cmp	r3, r4
 8004946:	bf0c      	ite	eq
 8004948:	6032      	streq	r2, [r6, #0]
 800494a:	605a      	strne	r2, [r3, #4]
 800494c:	e7ec      	b.n	8004928 <_malloc_r+0xa0>
 800494e:	4623      	mov	r3, r4
 8004950:	6864      	ldr	r4, [r4, #4]
 8004952:	e7b2      	b.n	80048ba <_malloc_r+0x32>
 8004954:	4634      	mov	r4, r6
 8004956:	6876      	ldr	r6, [r6, #4]
 8004958:	e7b9      	b.n	80048ce <_malloc_r+0x46>
 800495a:	230c      	movs	r3, #12
 800495c:	4638      	mov	r0, r7
 800495e:	603b      	str	r3, [r7, #0]
 8004960:	f000 f84c 	bl	80049fc <__malloc_unlock>
 8004964:	e7a1      	b.n	80048aa <_malloc_r+0x22>
 8004966:	6025      	str	r5, [r4, #0]
 8004968:	e7de      	b.n	8004928 <_malloc_r+0xa0>
 800496a:	bf00      	nop
 800496c:	2000025c 	.word	0x2000025c

08004970 <_realloc_r>:
 8004970:	e92d 41f0 	stmdb	sp!, {r4, r5, r6, r7, r8, lr}
 8004974:	4680      	mov	r8, r0
 8004976:	4614      	mov	r4, r2
 8004978:	460e      	mov	r6, r1
 800497a:	b921      	cbnz	r1, 8004986 <_realloc_r+0x16>
 800497c:	4611      	mov	r1, r2
 800497e:	e8bd 41f0 	ldmia.w	sp!, {r4, r5, r6, r7, r8, lr}
 8004982:	f7ff bf81 	b.w	8004888 <_malloc_r>
 8004986:	b92a      	cbnz	r2, 8004994 <_realloc_r+0x24>
 8004988:	f7ff ff16 	bl	80047b8 <_free_r>
 800498c:	4625      	mov	r5, r4
 800498e:	4628      	mov	r0, r5
 8004990:	e8bd 81f0 	ldmia.w	sp!, {r4, r5, r6, r7, r8, pc}
 8004994:	f000 f838 	bl	8004a08 <_malloc_usable_size_r>
 8004998:	4284      	cmp	r4, r0
 800499a:	4607      	mov	r7, r0
 800499c:	d802      	bhi.n	80049a4 <_realloc_r+0x34>
 800499e:	ebb4 0f50 	cmp.w	r4, r0, lsr #1
 80049a2:	d812      	bhi.n	80049ca <_realloc_r+0x5a>
 80049a4:	4621      	mov	r1, r4
 80049a6:	4640      	mov	r0, r8
 80049a8:	f7ff ff6e 	bl	8004888 <_malloc_r>
 80049ac:	4605      	mov	r5, r0
 80049ae:	2800      	cmp	r0, #0
 80049b0:	d0ed      	beq.n	800498e <_realloc_r+0x1e>
 80049b2:	42bc      	cmp	r4, r7
 80049b4:	4622      	mov	r2, r4
 80049b6:	4631      	mov	r1, r6
 80049b8:	bf28      	it	cs
 80049ba:	463a      	movcs	r2, r7
 80049bc:	f7ff fed4 	bl	8004768 <memcpy>
 80049c0:	4631      	mov	r1, r6
 80049c2:	4640      	mov	r0, r8
 80049c4:	f7ff fef8 	bl	80047b8 <_free_r>
 80049c8:	e7e1      	b.n	800498e <_realloc_r+0x1e>
 80049ca:	4635      	mov	r5, r6
 80049cc:	e7df      	b.n	800498e <_realloc_r+0x1e>
	...

080049d0 <_sbrk_r>:
 80049d0:	b538      	push	{r3, r4, r5, lr}
 80049d2:	2300      	movs	r3, #0
 80049d4:	4d05      	ldr	r5, [pc, #20]	; (80049ec <_sbrk_r+0x1c>)
 80049d6:	4604      	mov	r4, r0
 80049d8:	4608      	mov	r0, r1
 80049da:	602b      	str	r3, [r5, #0]
 80049dc:	f7fd f928 	bl	8001c30 <_sbrk>
 80049e0:	1c43      	adds	r3, r0, #1
 80049e2:	d102      	bne.n	80049ea <_sbrk_r+0x1a>
 80049e4:	682b      	ldr	r3, [r5, #0]
 80049e6:	b103      	cbz	r3, 80049ea <_sbrk_r+0x1a>
 80049e8:	6023      	str	r3, [r4, #0]
 80049ea:	bd38      	pop	{r3, r4, r5, pc}
 80049ec:	20000264 	.word	0x20000264

080049f0 <__malloc_lock>:
 80049f0:	4801      	ldr	r0, [pc, #4]	; (80049f8 <__malloc_lock+0x8>)
 80049f2:	f000 b811 	b.w	8004a18 <__retarget_lock_acquire_recursive>
 80049f6:	bf00      	nop
 80049f8:	20000268 	.word	0x20000268

080049fc <__malloc_unlock>:
 80049fc:	4801      	ldr	r0, [pc, #4]	; (8004a04 <__malloc_unlock+0x8>)
 80049fe:	f000 b80c 	b.w	8004a1a <__retarget_lock_release_recursive>
 8004a02:	bf00      	nop
 8004a04:	20000268 	.word	0x20000268

08004a08 <_malloc_usable_size_r>:
 8004a08:	f851 3c04 	ldr.w	r3, [r1, #-4]
 8004a0c:	1f18      	subs	r0, r3, #4
 8004a0e:	2b00      	cmp	r3, #0
 8004a10:	bfbc      	itt	lt
 8004a12:	580b      	ldrlt	r3, [r1, r0]
 8004a14:	18c0      	addlt	r0, r0, r3
 8004a16:	4770      	bx	lr

08004a18 <__retarget_lock_acquire_recursive>:
 8004a18:	4770      	bx	lr

08004a1a <__retarget_lock_release_recursive>:
 8004a1a:	4770      	bx	lr

08004a1c <sin>:
 8004a1c:	b530      	push	{r4, r5, lr}
 8004a1e:	4a20      	ldr	r2, [pc, #128]	; (8004aa0 <sin+0x84>)
 8004a20:	f021 4300 	bic.w	r3, r1, #2147483648	; 0x80000000
 8004a24:	4293      	cmp	r3, r2
 8004a26:	b087      	sub	sp, #28
 8004a28:	dc06      	bgt.n	8004a38 <sin+0x1c>
 8004a2a:	2300      	movs	r3, #0
 8004a2c:	2200      	movs	r2, #0
 8004a2e:	9300      	str	r3, [sp, #0]
 8004a30:	2300      	movs	r3, #0
 8004a32:	f000 ffdd 	bl	80059f0 <__kernel_sin>
 8004a36:	e006      	b.n	8004a46 <sin+0x2a>
 8004a38:	4a1a      	ldr	r2, [pc, #104]	; (8004aa4 <sin+0x88>)
 8004a3a:	4293      	cmp	r3, r2
 8004a3c:	dd05      	ble.n	8004a4a <sin+0x2e>
 8004a3e:	4602      	mov	r2, r0
 8004a40:	460b      	mov	r3, r1
 8004a42:	f7fb fb89 	bl	8000158 <__aeabi_dsub>
 8004a46:	b007      	add	sp, #28
 8004a48:	bd30      	pop	{r4, r5, pc}
 8004a4a:	aa02      	add	r2, sp, #8
 8004a4c:	f000 f928 	bl	8004ca0 <__ieee754_rem_pio2>
 8004a50:	f000 0003 	and.w	r0, r0, #3
 8004a54:	2801      	cmp	r0, #1
 8004a56:	d009      	beq.n	8004a6c <sin+0x50>
 8004a58:	2802      	cmp	r0, #2
 8004a5a:	d00e      	beq.n	8004a7a <sin+0x5e>
 8004a5c:	b9c0      	cbnz	r0, 8004a90 <sin+0x74>
 8004a5e:	e9dd 0102 	ldrd	r0, r1, [sp, #8]
 8004a62:	2301      	movs	r3, #1
 8004a64:	9300      	str	r3, [sp, #0]
 8004a66:	e9dd 2304 	ldrd	r2, r3, [sp, #16]
 8004a6a:	e7e2      	b.n	8004a32 <sin+0x16>
 8004a6c:	e9dd 2304 	ldrd	r2, r3, [sp, #16]
 8004a70:	e9dd 0102 	ldrd	r0, r1, [sp, #8]
 8004a74:	f000 fbbc 	bl	80051f0 <__kernel_cos>
 8004a78:	e7e5      	b.n	8004a46 <sin+0x2a>
 8004a7a:	2301      	movs	r3, #1
 8004a7c:	e9dd 0102 	ldrd	r0, r1, [sp, #8]
 8004a80:	9300      	str	r3, [sp, #0]
 8004a82:	e9dd 2304 	ldrd	r2, r3, [sp, #16]
 8004a86:	f000 ffb3 	bl	80059f0 <__kernel_sin>
 8004a8a:	f101 4100 	add.w	r1, r1, #2147483648	; 0x80000000
 8004a8e:	e7da      	b.n	8004a46 <sin+0x2a>
 8004a90:	e9dd 2304 	ldrd	r2, r3, [sp, #16]
 8004a94:	e9dd 0102 	ldrd	r0, r1, [sp, #8]
 8004a98:	f000 fbaa 	bl	80051f0 <__kernel_cos>
 8004a9c:	e7f5      	b.n	8004a8a <sin+0x6e>
 8004a9e:	bf00      	nop
 8004aa0:	3fe921fb 	.word	0x3fe921fb
 8004aa4:	7fefffff 	.word	0x7fefffff

08004aa8 <atan2>:
 8004aa8:	f000 b826 	b.w	8004af8 <__ieee754_atan2>

08004aac <sqrt>:
 8004aac:	b5f8      	push	{r3, r4, r5, r6, r7, lr}
 8004aae:	4606      	mov	r6, r0
 8004ab0:	460f      	mov	r7, r1
 8004ab2:	f000 faed 	bl	8005090 <__ieee754_sqrt>
 8004ab6:	4632      	mov	r2, r6
 8004ab8:	4604      	mov	r4, r0
 8004aba:	460d      	mov	r5, r1
 8004abc:	463b      	mov	r3, r7
 8004abe:	4630      	mov	r0, r6
 8004ac0:	4639      	mov	r1, r7
 8004ac2:	f7fb ff9b 	bl	80009fc <__aeabi_dcmpun>
 8004ac6:	b990      	cbnz	r0, 8004aee <sqrt+0x42>
 8004ac8:	2200      	movs	r2, #0
 8004aca:	2300      	movs	r3, #0
 8004acc:	4630      	mov	r0, r6
 8004ace:	4639      	mov	r1, r7
 8004ad0:	f7fb ff6c 	bl	80009ac <__aeabi_dcmplt>
 8004ad4:	b158      	cbz	r0, 8004aee <sqrt+0x42>
 8004ad6:	f7ff faf5 	bl	80040c4 <__errno>
 8004ada:	2321      	movs	r3, #33	; 0x21
 8004adc:	2200      	movs	r2, #0
 8004ade:	6003      	str	r3, [r0, #0]
 8004ae0:	2300      	movs	r3, #0
 8004ae2:	4610      	mov	r0, r2
 8004ae4:	4619      	mov	r1, r3
 8004ae6:	f7fb fe19 	bl	800071c <__aeabi_ddiv>
 8004aea:	4604      	mov	r4, r0
 8004aec:	460d      	mov	r5, r1
 8004aee:	4620      	mov	r0, r4
 8004af0:	4629      	mov	r1, r5
 8004af2:	bdf8      	pop	{r3, r4, r5, r6, r7, pc}
 8004af4:	0000      	movs	r0, r0
	...

08004af8 <__ieee754_atan2>:
 8004af8:	e92d 4ff8 	stmdb	sp!, {r3, r4, r5, r6, r7, r8, r9, sl, fp, lr}
 8004afc:	4692      	mov	sl, r2
 8004afe:	4699      	mov	r9, r3
 8004b00:	f023 4200 	bic.w	r2, r3, #2147483648	; 0x80000000
 8004b04:	461f      	mov	r7, r3
 8004b06:	f1ca 0300 	rsb	r3, sl, #0
 8004b0a:	f8df e184 	ldr.w	lr, [pc, #388]	; 8004c90 <__ieee754_atan2+0x198>
 8004b0e:	ea43 030a 	orr.w	r3, r3, sl
 8004b12:	ea42 73d3 	orr.w	r3, r2, r3, lsr #31
 8004b16:	4573      	cmp	r3, lr
 8004b18:	4604      	mov	r4, r0
 8004b1a:	460d      	mov	r5, r1
 8004b1c:	d808      	bhi.n	8004b30 <__ieee754_atan2+0x38>
 8004b1e:	4246      	negs	r6, r0
 8004b20:	f021 4300 	bic.w	r3, r1, #2147483648	; 0x80000000
 8004b24:	4306      	orrs	r6, r0
 8004b26:	ea43 76d6 	orr.w	r6, r3, r6, lsr #31
 8004b2a:	4576      	cmp	r6, lr
 8004b2c:	468c      	mov	ip, r1
 8004b2e:	d908      	bls.n	8004b42 <__ieee754_atan2+0x4a>
 8004b30:	4652      	mov	r2, sl
 8004b32:	464b      	mov	r3, r9
 8004b34:	4620      	mov	r0, r4
 8004b36:	4629      	mov	r1, r5
 8004b38:	f7fb fb10 	bl	800015c <__adddf3>
 8004b3c:	4604      	mov	r4, r0
 8004b3e:	460d      	mov	r5, r1
 8004b40:	e019      	b.n	8004b76 <__ieee754_atan2+0x7e>
 8004b42:	f109 4640 	add.w	r6, r9, #3221225472	; 0xc0000000
 8004b46:	f506 1680 	add.w	r6, r6, #1048576	; 0x100000
 8004b4a:	ea56 060a 	orrs.w	r6, r6, sl
 8004b4e:	d103      	bne.n	8004b58 <__ieee754_atan2+0x60>
 8004b50:	e8bd 4ff8 	ldmia.w	sp!, {r3, r4, r5, r6, r7, r8, r9, sl, fp, lr}
 8004b54:	f001 b804 	b.w	8005b60 <atan>
 8004b58:	17be      	asrs	r6, r7, #30
 8004b5a:	f006 0602 	and.w	r6, r6, #2
 8004b5e:	ea46 76d1 	orr.w	r6, r6, r1, lsr #31
 8004b62:	ea53 0100 	orrs.w	r1, r3, r0
 8004b66:	d10a      	bne.n	8004b7e <__ieee754_atan2+0x86>
 8004b68:	2e02      	cmp	r6, #2
 8004b6a:	d067      	beq.n	8004c3c <__ieee754_atan2+0x144>
 8004b6c:	2e03      	cmp	r6, #3
 8004b6e:	d102      	bne.n	8004b76 <__ieee754_atan2+0x7e>
 8004b70:	a53b      	add	r5, pc, #236	; (adr r5, 8004c60 <__ieee754_atan2+0x168>)
 8004b72:	e9d5 4500 	ldrd	r4, r5, [r5]
 8004b76:	4620      	mov	r0, r4
 8004b78:	4629      	mov	r1, r5
 8004b7a:	e8bd 8ff8 	ldmia.w	sp!, {r3, r4, r5, r6, r7, r8, r9, sl, fp, pc}
 8004b7e:	ea52 010a 	orrs.w	r1, r2, sl
 8004b82:	d106      	bne.n	8004b92 <__ieee754_atan2+0x9a>
 8004b84:	f1bc 0f00 	cmp.w	ip, #0
 8004b88:	da63      	bge.n	8004c52 <__ieee754_atan2+0x15a>
 8004b8a:	a537      	add	r5, pc, #220	; (adr r5, 8004c68 <__ieee754_atan2+0x170>)
 8004b8c:	e9d5 4500 	ldrd	r4, r5, [r5]
 8004b90:	e7f1      	b.n	8004b76 <__ieee754_atan2+0x7e>
 8004b92:	4572      	cmp	r2, lr
 8004b94:	d10f      	bne.n	8004bb6 <__ieee754_atan2+0xbe>
 8004b96:	4293      	cmp	r3, r2
 8004b98:	f106 36ff 	add.w	r6, r6, #4294967295
 8004b9c:	d107      	bne.n	8004bae <__ieee754_atan2+0xb6>
 8004b9e:	2e02      	cmp	r6, #2
 8004ba0:	d850      	bhi.n	8004c44 <__ieee754_atan2+0x14c>
 8004ba2:	4b3c      	ldr	r3, [pc, #240]	; (8004c94 <__ieee754_atan2+0x19c>)
 8004ba4:	eb03 06c6 	add.w	r6, r3, r6, lsl #3
 8004ba8:	e9d6 4500 	ldrd	r4, r5, [r6]
 8004bac:	e7e3      	b.n	8004b76 <__ieee754_atan2+0x7e>
 8004bae:	2e02      	cmp	r6, #2
 8004bb0:	d84c      	bhi.n	8004c4c <__ieee754_atan2+0x154>
 8004bb2:	4b39      	ldr	r3, [pc, #228]	; (8004c98 <__ieee754_atan2+0x1a0>)
 8004bb4:	e7f6      	b.n	8004ba4 <__ieee754_atan2+0xac>
 8004bb6:	4573      	cmp	r3, lr
 8004bb8:	d0e4      	beq.n	8004b84 <__ieee754_atan2+0x8c>
 8004bba:	1a9b      	subs	r3, r3, r2
 8004bbc:	f1b3 7f74 	cmp.w	r3, #63963136	; 0x3d00000
 8004bc0:	ea4f 5223 	mov.w	r2, r3, asr #20
 8004bc4:	da20      	bge.n	8004c08 <__ieee754_atan2+0x110>
 8004bc6:	2f00      	cmp	r7, #0
 8004bc8:	da01      	bge.n	8004bce <__ieee754_atan2+0xd6>
 8004bca:	323c      	adds	r2, #60	; 0x3c
 8004bcc:	db20      	blt.n	8004c10 <__ieee754_atan2+0x118>
 8004bce:	4652      	mov	r2, sl
 8004bd0:	464b      	mov	r3, r9
 8004bd2:	4620      	mov	r0, r4
 8004bd4:	4629      	mov	r1, r5
 8004bd6:	f7fb fda1 	bl	800071c <__aeabi_ddiv>
 8004bda:	f001 f94b 	bl	8005e74 <fabs>
 8004bde:	f000 ffbf 	bl	8005b60 <atan>
 8004be2:	4604      	mov	r4, r0
 8004be4:	460d      	mov	r5, r1
 8004be6:	2e01      	cmp	r6, #1
 8004be8:	d015      	beq.n	8004c16 <__ieee754_atan2+0x11e>
 8004bea:	2e02      	cmp	r6, #2
 8004bec:	d017      	beq.n	8004c1e <__ieee754_atan2+0x126>
 8004bee:	2e00      	cmp	r6, #0
 8004bf0:	d0c1      	beq.n	8004b76 <__ieee754_atan2+0x7e>
 8004bf2:	a31f      	add	r3, pc, #124	; (adr r3, 8004c70 <__ieee754_atan2+0x178>)
 8004bf4:	e9d3 2300 	ldrd	r2, r3, [r3]
 8004bf8:	4620      	mov	r0, r4
 8004bfa:	4629      	mov	r1, r5
 8004bfc:	f7fb faac 	bl	8000158 <__aeabi_dsub>
 8004c00:	a31d      	add	r3, pc, #116	; (adr r3, 8004c78 <__ieee754_atan2+0x180>)
 8004c02:	e9d3 2300 	ldrd	r2, r3, [r3]
 8004c06:	e016      	b.n	8004c36 <__ieee754_atan2+0x13e>
 8004c08:	a51d      	add	r5, pc, #116	; (adr r5, 8004c80 <__ieee754_atan2+0x188>)
 8004c0a:	e9d5 4500 	ldrd	r4, r5, [r5]
 8004c0e:	e7ea      	b.n	8004be6 <__ieee754_atan2+0xee>
 8004c10:	2400      	movs	r4, #0
 8004c12:	2500      	movs	r5, #0
 8004c14:	e7e7      	b.n	8004be6 <__ieee754_atan2+0xee>
 8004c16:	f105 4300 	add.w	r3, r5, #2147483648	; 0x80000000
 8004c1a:	461d      	mov	r5, r3
 8004c1c:	e7ab      	b.n	8004b76 <__ieee754_atan2+0x7e>
 8004c1e:	a314      	add	r3, pc, #80	; (adr r3, 8004c70 <__ieee754_atan2+0x178>)
 8004c20:	e9d3 2300 	ldrd	r2, r3, [r3]
 8004c24:	4620      	mov	r0, r4
 8004c26:	4629      	mov	r1, r5
 8004c28:	f7fb fa96 	bl	8000158 <__aeabi_dsub>
 8004c2c:	4602      	mov	r2, r0
 8004c2e:	460b      	mov	r3, r1
 8004c30:	a111      	add	r1, pc, #68	; (adr r1, 8004c78 <__ieee754_atan2+0x180>)
 8004c32:	e9d1 0100 	ldrd	r0, r1, [r1]
 8004c36:	f7fb fa8f 	bl	8000158 <__aeabi_dsub>
 8004c3a:	e77f      	b.n	8004b3c <__ieee754_atan2+0x44>
 8004c3c:	a50e      	add	r5, pc, #56	; (adr r5, 8004c78 <__ieee754_atan2+0x180>)
 8004c3e:	e9d5 4500 	ldrd	r4, r5, [r5]
 8004c42:	e798      	b.n	8004b76 <__ieee754_atan2+0x7e>
 8004c44:	a510      	add	r5, pc, #64	; (adr r5, 8004c88 <__ieee754_atan2+0x190>)
 8004c46:	e9d5 4500 	ldrd	r4, r5, [r5]
 8004c4a:	e794      	b.n	8004b76 <__ieee754_atan2+0x7e>
 8004c4c:	2400      	movs	r4, #0
 8004c4e:	2500      	movs	r5, #0
 8004c50:	e791      	b.n	8004b76 <__ieee754_atan2+0x7e>
 8004c52:	a50b      	add	r5, pc, #44	; (adr r5, 8004c80 <__ieee754_atan2+0x188>)
 8004c54:	e9d5 4500 	ldrd	r4, r5, [r5]
 8004c58:	e78d      	b.n	8004b76 <__ieee754_atan2+0x7e>
 8004c5a:	bf00      	nop
 8004c5c:	f3af 8000 	nop.w
 8004c60:	54442d18 	.word	0x54442d18
 8004c64:	c00921fb 	.word	0xc00921fb
 8004c68:	54442d18 	.word	0x54442d18
 8004c6c:	bff921fb 	.word	0xbff921fb
 8004c70:	33145c07 	.word	0x33145c07
 8004c74:	3ca1a626 	.word	0x3ca1a626
 8004c78:	54442d18 	.word	0x54442d18
 8004c7c:	400921fb 	.word	0x400921fb
 8004c80:	54442d18 	.word	0x54442d18
 8004c84:	3ff921fb 	.word	0x3ff921fb
 8004c88:	54442d18 	.word	0x54442d18
 8004c8c:	3fe921fb 	.word	0x3fe921fb
 8004c90:	7ff00000 	.word	0x7ff00000
 8004c94:	080060f8 	.word	0x080060f8
 8004c98:	08006110 	.word	0x08006110
 8004c9c:	00000000 	.word	0x00000000

08004ca0 <__ieee754_rem_pio2>:
 8004ca0:	e92d 4ff0 	stmdb	sp!, {r4, r5, r6, r7, r8, r9, sl, fp, lr}
 8004ca4:	4614      	mov	r4, r2
 8004ca6:	4ac4      	ldr	r2, [pc, #784]	; (8004fb8 <__ieee754_rem_pio2+0x318>)
 8004ca8:	f021 4a00 	bic.w	sl, r1, #2147483648	; 0x80000000
 8004cac:	b08d      	sub	sp, #52	; 0x34
 8004cae:	4592      	cmp	sl, r2
 8004cb0:	9104      	str	r1, [sp, #16]
 8004cb2:	dc07      	bgt.n	8004cc4 <__ieee754_rem_pio2+0x24>
 8004cb4:	2200      	movs	r2, #0
 8004cb6:	2300      	movs	r3, #0
 8004cb8:	e9c4 0100 	strd	r0, r1, [r4]
 8004cbc:	e9c4 2302 	strd	r2, r3, [r4, #8]
 8004cc0:	2500      	movs	r5, #0
 8004cc2:	e024      	b.n	8004d0e <__ieee754_rem_pio2+0x6e>
 8004cc4:	4abd      	ldr	r2, [pc, #756]	; (8004fbc <__ieee754_rem_pio2+0x31c>)
 8004cc6:	4592      	cmp	sl, r2
 8004cc8:	dc72      	bgt.n	8004db0 <__ieee754_rem_pio2+0x110>
 8004cca:	9b04      	ldr	r3, [sp, #16]
 8004ccc:	4dbc      	ldr	r5, [pc, #752]	; (8004fc0 <__ieee754_rem_pio2+0x320>)
 8004cce:	2b00      	cmp	r3, #0
 8004cd0:	a3ab      	add	r3, pc, #684	; (adr r3, 8004f80 <__ieee754_rem_pio2+0x2e0>)
 8004cd2:	e9d3 2300 	ldrd	r2, r3, [r3]
 8004cd6:	dd36      	ble.n	8004d46 <__ieee754_rem_pio2+0xa6>
 8004cd8:	f7fb fa3e 	bl	8000158 <__aeabi_dsub>
 8004cdc:	45aa      	cmp	sl, r5
 8004cde:	4606      	mov	r6, r0
 8004ce0:	460f      	mov	r7, r1
 8004ce2:	d018      	beq.n	8004d16 <__ieee754_rem_pio2+0x76>
 8004ce4:	a3a8      	add	r3, pc, #672	; (adr r3, 8004f88 <__ieee754_rem_pio2+0x2e8>)
 8004ce6:	e9d3 2300 	ldrd	r2, r3, [r3]
 8004cea:	f7fb fa35 	bl	8000158 <__aeabi_dsub>
 8004cee:	4602      	mov	r2, r0
 8004cf0:	460b      	mov	r3, r1
 8004cf2:	4630      	mov	r0, r6
 8004cf4:	e9c4 2300 	strd	r2, r3, [r4]
 8004cf8:	4639      	mov	r1, r7
 8004cfa:	f7fb fa2d 	bl	8000158 <__aeabi_dsub>
 8004cfe:	a3a2      	add	r3, pc, #648	; (adr r3, 8004f88 <__ieee754_rem_pio2+0x2e8>)
 8004d00:	e9d3 2300 	ldrd	r2, r3, [r3]
 8004d04:	f7fb fa28 	bl	8000158 <__aeabi_dsub>
 8004d08:	2501      	movs	r5, #1
 8004d0a:	e9c4 0102 	strd	r0, r1, [r4, #8]
 8004d0e:	4628      	mov	r0, r5
 8004d10:	b00d      	add	sp, #52	; 0x34
 8004d12:	e8bd 8ff0 	ldmia.w	sp!, {r4, r5, r6, r7, r8, r9, sl, fp, pc}
 8004d16:	a39e      	add	r3, pc, #632	; (adr r3, 8004f90 <__ieee754_rem_pio2+0x2f0>)
 8004d18:	e9d3 2300 	ldrd	r2, r3, [r3]
 8004d1c:	f7fb fa1c 	bl	8000158 <__aeabi_dsub>
 8004d20:	a39d      	add	r3, pc, #628	; (adr r3, 8004f98 <__ieee754_rem_pio2+0x2f8>)
 8004d22:	e9d3 2300 	ldrd	r2, r3, [r3]
 8004d26:	4606      	mov	r6, r0
 8004d28:	460f      	mov	r7, r1
 8004d2a:	f7fb fa15 	bl	8000158 <__aeabi_dsub>
 8004d2e:	4602      	mov	r2, r0
 8004d30:	460b      	mov	r3, r1
 8004d32:	4630      	mov	r0, r6
 8004d34:	e9c4 2300 	strd	r2, r3, [r4]
 8004d38:	4639      	mov	r1, r7
 8004d3a:	f7fb fa0d 	bl	8000158 <__aeabi_dsub>
 8004d3e:	a396      	add	r3, pc, #600	; (adr r3, 8004f98 <__ieee754_rem_pio2+0x2f8>)
 8004d40:	e9d3 2300 	ldrd	r2, r3, [r3]
 8004d44:	e7de      	b.n	8004d04 <__ieee754_rem_pio2+0x64>
 8004d46:	f7fb fa09 	bl	800015c <__adddf3>
 8004d4a:	45aa      	cmp	sl, r5
 8004d4c:	4606      	mov	r6, r0
 8004d4e:	460f      	mov	r7, r1
 8004d50:	d016      	beq.n	8004d80 <__ieee754_rem_pio2+0xe0>
 8004d52:	a38d      	add	r3, pc, #564	; (adr r3, 8004f88 <__ieee754_rem_pio2+0x2e8>)
 8004d54:	e9d3 2300 	ldrd	r2, r3, [r3]
 8004d58:	f7fb fa00 	bl	800015c <__adddf3>
 8004d5c:	4602      	mov	r2, r0
 8004d5e:	460b      	mov	r3, r1
 8004d60:	4630      	mov	r0, r6
 8004d62:	e9c4 2300 	strd	r2, r3, [r4]
 8004d66:	4639      	mov	r1, r7
 8004d68:	f7fb f9f6 	bl	8000158 <__aeabi_dsub>
 8004d6c:	a386      	add	r3, pc, #536	; (adr r3, 8004f88 <__ieee754_rem_pio2+0x2e8>)
 8004d6e:	e9d3 2300 	ldrd	r2, r3, [r3]
 8004d72:	f7fb f9f3 	bl	800015c <__adddf3>
 8004d76:	f04f 35ff 	mov.w	r5, #4294967295
 8004d7a:	e9c4 0102 	strd	r0, r1, [r4, #8]
 8004d7e:	e7c6      	b.n	8004d0e <__ieee754_rem_pio2+0x6e>
 8004d80:	a383      	add	r3, pc, #524	; (adr r3, 8004f90 <__ieee754_rem_pio2+0x2f0>)
 8004d82:	e9d3 2300 	ldrd	r2, r3, [r3]
 8004d86:	f7fb f9e9 	bl	800015c <__adddf3>
 8004d8a:	a383      	add	r3, pc, #524	; (adr r3, 8004f98 <__ieee754_rem_pio2+0x2f8>)
 8004d8c:	e9d3 2300 	ldrd	r2, r3, [r3]
 8004d90:	4606      	mov	r6, r0
 8004d92:	460f      	mov	r7, r1
 8004d94:	f7fb f9e2 	bl	800015c <__adddf3>
 8004d98:	4602      	mov	r2, r0
 8004d9a:	460b      	mov	r3, r1
 8004d9c:	4630      	mov	r0, r6
 8004d9e:	e9c4 2300 	strd	r2, r3, [r4]
 8004da2:	4639      	mov	r1, r7
 8004da4:	f7fb f9d8 	bl	8000158 <__aeabi_dsub>
 8004da8:	a37b      	add	r3, pc, #492	; (adr r3, 8004f98 <__ieee754_rem_pio2+0x2f8>)
 8004daa:	e9d3 2300 	ldrd	r2, r3, [r3]
 8004dae:	e7e0      	b.n	8004d72 <__ieee754_rem_pio2+0xd2>
 8004db0:	4a84      	ldr	r2, [pc, #528]	; (8004fc4 <__ieee754_rem_pio2+0x324>)
 8004db2:	4592      	cmp	sl, r2
 8004db4:	f300 80d5 	bgt.w	8004f62 <__ieee754_rem_pio2+0x2c2>
 8004db8:	f001 f85c 	bl	8005e74 <fabs>
 8004dbc:	a378      	add	r3, pc, #480	; (adr r3, 8004fa0 <__ieee754_rem_pio2+0x300>)
 8004dbe:	e9d3 2300 	ldrd	r2, r3, [r3]
 8004dc2:	4606      	mov	r6, r0
 8004dc4:	460f      	mov	r7, r1
 8004dc6:	f7fb fb7f 	bl	80004c8 <__aeabi_dmul>
 8004dca:	2200      	movs	r2, #0
 8004dcc:	4b7e      	ldr	r3, [pc, #504]	; (8004fc8 <__ieee754_rem_pio2+0x328>)
 8004dce:	f7fb f9c5 	bl	800015c <__adddf3>
 8004dd2:	f7fb fe29 	bl	8000a28 <__aeabi_d2iz>
 8004dd6:	4605      	mov	r5, r0
 8004dd8:	f7fb fb0c 	bl	80003f4 <__aeabi_i2d>
 8004ddc:	4602      	mov	r2, r0
 8004dde:	460b      	mov	r3, r1
 8004de0:	e9cd 2302 	strd	r2, r3, [sp, #8]
 8004de4:	a366      	add	r3, pc, #408	; (adr r3, 8004f80 <__ieee754_rem_pio2+0x2e0>)
 8004de6:	e9d3 2300 	ldrd	r2, r3, [r3]
 8004dea:	f7fb fb6d 	bl	80004c8 <__aeabi_dmul>
 8004dee:	4602      	mov	r2, r0
 8004df0:	460b      	mov	r3, r1
 8004df2:	4630      	mov	r0, r6
 8004df4:	4639      	mov	r1, r7
 8004df6:	f7fb f9af 	bl	8000158 <__aeabi_dsub>
 8004dfa:	a363      	add	r3, pc, #396	; (adr r3, 8004f88 <__ieee754_rem_pio2+0x2e8>)
 8004dfc:	e9d3 2300 	ldrd	r2, r3, [r3]
 8004e00:	4680      	mov	r8, r0
 8004e02:	4689      	mov	r9, r1
 8004e04:	e9dd 0102 	ldrd	r0, r1, [sp, #8]
 8004e08:	f7fb fb5e 	bl	80004c8 <__aeabi_dmul>
 8004e0c:	2d1f      	cmp	r5, #31
 8004e0e:	4606      	mov	r6, r0
 8004e10:	460f      	mov	r7, r1
 8004e12:	dc0e      	bgt.n	8004e32 <__ieee754_rem_pio2+0x192>
 8004e14:	4b6d      	ldr	r3, [pc, #436]	; (8004fcc <__ieee754_rem_pio2+0x32c>)
 8004e16:	1e6a      	subs	r2, r5, #1
 8004e18:	f853 3022 	ldr.w	r3, [r3, r2, lsl #2]
 8004e1c:	4553      	cmp	r3, sl
 8004e1e:	d008      	beq.n	8004e32 <__ieee754_rem_pio2+0x192>
 8004e20:	4632      	mov	r2, r6
 8004e22:	463b      	mov	r3, r7
 8004e24:	4640      	mov	r0, r8
 8004e26:	4649      	mov	r1, r9
 8004e28:	f7fb f996 	bl	8000158 <__aeabi_dsub>
 8004e2c:	e9c4 0100 	strd	r0, r1, [r4]
 8004e30:	e013      	b.n	8004e5a <__ieee754_rem_pio2+0x1ba>
 8004e32:	463b      	mov	r3, r7
 8004e34:	4632      	mov	r2, r6
 8004e36:	4640      	mov	r0, r8
 8004e38:	4649      	mov	r1, r9
 8004e3a:	f7fb f98d 	bl	8000158 <__aeabi_dsub>
 8004e3e:	ea4f 532a 	mov.w	r3, sl, asr #20
 8004e42:	9305      	str	r3, [sp, #20]
 8004e44:	f3c1 530a 	ubfx	r3, r1, #20, #11
 8004e48:	ebc3 5a1a 	rsb	sl, r3, sl, lsr #20
 8004e4c:	f1ba 0f10 	cmp.w	sl, #16
 8004e50:	dc1f      	bgt.n	8004e92 <__ieee754_rem_pio2+0x1f2>
 8004e52:	4602      	mov	r2, r0
 8004e54:	460b      	mov	r3, r1
 8004e56:	e9c4 2300 	strd	r2, r3, [r4]
 8004e5a:	e9d4 2a00 	ldrd	r2, sl, [r4]
 8004e5e:	4640      	mov	r0, r8
 8004e60:	4653      	mov	r3, sl
 8004e62:	4649      	mov	r1, r9
 8004e64:	f7fb f978 	bl	8000158 <__aeabi_dsub>
 8004e68:	4632      	mov	r2, r6
 8004e6a:	463b      	mov	r3, r7
 8004e6c:	f7fb f974 	bl	8000158 <__aeabi_dsub>
 8004e70:	460b      	mov	r3, r1
 8004e72:	e9c4 0102 	strd	r0, r1, [r4, #8]
 8004e76:	9904      	ldr	r1, [sp, #16]
 8004e78:	4602      	mov	r2, r0
 8004e7a:	2900      	cmp	r1, #0
 8004e7c:	f6bf af47 	bge.w	8004d0e <__ieee754_rem_pio2+0x6e>
 8004e80:	f10a 4100 	add.w	r1, sl, #2147483648	; 0x80000000
 8004e84:	e9c4 1201 	strd	r1, r2, [r4, #4]
 8004e88:	f103 4300 	add.w	r3, r3, #2147483648	; 0x80000000
 8004e8c:	60e3      	str	r3, [r4, #12]
 8004e8e:	426d      	negs	r5, r5
 8004e90:	e73d      	b.n	8004d0e <__ieee754_rem_pio2+0x6e>
 8004e92:	a33f      	add	r3, pc, #252	; (adr r3, 8004f90 <__ieee754_rem_pio2+0x2f0>)
 8004e94:	e9d3 2300 	ldrd	r2, r3, [r3]
 8004e98:	e9dd 0102 	ldrd	r0, r1, [sp, #8]
 8004e9c:	f7fb fb14 	bl	80004c8 <__aeabi_dmul>
 8004ea0:	4606      	mov	r6, r0
 8004ea2:	460f      	mov	r7, r1
 8004ea4:	4602      	mov	r2, r0
 8004ea6:	460b      	mov	r3, r1
 8004ea8:	4640      	mov	r0, r8
 8004eaa:	4649      	mov	r1, r9
 8004eac:	f7fb f954 	bl	8000158 <__aeabi_dsub>
 8004eb0:	4602      	mov	r2, r0
 8004eb2:	460b      	mov	r3, r1
 8004eb4:	4682      	mov	sl, r0
 8004eb6:	468b      	mov	fp, r1
 8004eb8:	4640      	mov	r0, r8
 8004eba:	4649      	mov	r1, r9
 8004ebc:	f7fb f94c 	bl	8000158 <__aeabi_dsub>
 8004ec0:	4632      	mov	r2, r6
 8004ec2:	463b      	mov	r3, r7
 8004ec4:	f7fb f948 	bl	8000158 <__aeabi_dsub>
 8004ec8:	a333      	add	r3, pc, #204	; (adr r3, 8004f98 <__ieee754_rem_pio2+0x2f8>)
 8004eca:	e9d3 2300 	ldrd	r2, r3, [r3]
 8004ece:	4606      	mov	r6, r0
 8004ed0:	460f      	mov	r7, r1
 8004ed2:	e9dd 0102 	ldrd	r0, r1, [sp, #8]
 8004ed6:	f7fb faf7 	bl	80004c8 <__aeabi_dmul>
 8004eda:	4632      	mov	r2, r6
 8004edc:	463b      	mov	r3, r7
 8004ede:	f7fb f93b 	bl	8000158 <__aeabi_dsub>
 8004ee2:	4602      	mov	r2, r0
 8004ee4:	460b      	mov	r3, r1
 8004ee6:	4606      	mov	r6, r0
 8004ee8:	460f      	mov	r7, r1
 8004eea:	4650      	mov	r0, sl
 8004eec:	4659      	mov	r1, fp
 8004eee:	f7fb f933 	bl	8000158 <__aeabi_dsub>
 8004ef2:	9a05      	ldr	r2, [sp, #20]
 8004ef4:	f3c1 530a 	ubfx	r3, r1, #20, #11
 8004ef8:	1ad3      	subs	r3, r2, r3
 8004efa:	2b31      	cmp	r3, #49	; 0x31
 8004efc:	dc06      	bgt.n	8004f0c <__ieee754_rem_pio2+0x26c>
 8004efe:	4602      	mov	r2, r0
 8004f00:	460b      	mov	r3, r1
 8004f02:	46d0      	mov	r8, sl
 8004f04:	46d9      	mov	r9, fp
 8004f06:	e9c4 2300 	strd	r2, r3, [r4]
 8004f0a:	e7a6      	b.n	8004e5a <__ieee754_rem_pio2+0x1ba>
 8004f0c:	a326      	add	r3, pc, #152	; (adr r3, 8004fa8 <__ieee754_rem_pio2+0x308>)
 8004f0e:	e9d3 2300 	ldrd	r2, r3, [r3]
 8004f12:	e9dd 0102 	ldrd	r0, r1, [sp, #8]
 8004f16:	f7fb fad7 	bl	80004c8 <__aeabi_dmul>
 8004f1a:	4606      	mov	r6, r0
 8004f1c:	460f      	mov	r7, r1
 8004f1e:	4602      	mov	r2, r0
 8004f20:	460b      	mov	r3, r1
 8004f22:	4650      	mov	r0, sl
 8004f24:	4659      	mov	r1, fp
 8004f26:	f7fb f917 	bl	8000158 <__aeabi_dsub>
 8004f2a:	4602      	mov	r2, r0
 8004f2c:	460b      	mov	r3, r1
 8004f2e:	4680      	mov	r8, r0
 8004f30:	4689      	mov	r9, r1
 8004f32:	4650      	mov	r0, sl
 8004f34:	4659      	mov	r1, fp
 8004f36:	f7fb f90f 	bl	8000158 <__aeabi_dsub>
 8004f3a:	4632      	mov	r2, r6
 8004f3c:	463b      	mov	r3, r7
 8004f3e:	f7fb f90b 	bl	8000158 <__aeabi_dsub>
 8004f42:	a31b      	add	r3, pc, #108	; (adr r3, 8004fb0 <__ieee754_rem_pio2+0x310>)
 8004f44:	e9d3 2300 	ldrd	r2, r3, [r3]
 8004f48:	4606      	mov	r6, r0
 8004f4a:	460f      	mov	r7, r1
 8004f4c:	e9dd 0102 	ldrd	r0, r1, [sp, #8]
 8004f50:	f7fb faba 	bl	80004c8 <__aeabi_dmul>
 8004f54:	4632      	mov	r2, r6
 8004f56:	463b      	mov	r3, r7
 8004f58:	f7fb f8fe 	bl	8000158 <__aeabi_dsub>
 8004f5c:	4606      	mov	r6, r0
 8004f5e:	460f      	mov	r7, r1
 8004f60:	e75e      	b.n	8004e20 <__ieee754_rem_pio2+0x180>
 8004f62:	4a1b      	ldr	r2, [pc, #108]	; (8004fd0 <__ieee754_rem_pio2+0x330>)
 8004f64:	4592      	cmp	sl, r2
 8004f66:	dd35      	ble.n	8004fd4 <__ieee754_rem_pio2+0x334>
 8004f68:	4602      	mov	r2, r0
 8004f6a:	460b      	mov	r3, r1
 8004f6c:	f7fb f8f4 	bl	8000158 <__aeabi_dsub>
 8004f70:	e9c4 0102 	strd	r0, r1, [r4, #8]
 8004f74:	e9c4 0100 	strd	r0, r1, [r4]
 8004f78:	e6a2      	b.n	8004cc0 <__ieee754_rem_pio2+0x20>
 8004f7a:	bf00      	nop
 8004f7c:	f3af 8000 	nop.w
 8004f80:	54400000 	.word	0x54400000
 8004f84:	3ff921fb 	.word	0x3ff921fb
 8004f88:	1a626331 	.word	0x1a626331
 8004f8c:	3dd0b461 	.word	0x3dd0b461
 8004f90:	1a600000 	.word	0x1a600000
 8004f94:	3dd0b461 	.word	0x3dd0b461
 8004f98:	2e037073 	.word	0x2e037073
 8004f9c:	3ba3198a 	.word	0x3ba3198a
 8004fa0:	6dc9c883 	.word	0x6dc9c883
 8004fa4:	3fe45f30 	.word	0x3fe45f30
 8004fa8:	2e000000 	.word	0x2e000000
 8004fac:	3ba3198a 	.word	0x3ba3198a
 8004fb0:	252049c1 	.word	0x252049c1
 8004fb4:	397b839a 	.word	0x397b839a
 8004fb8:	3fe921fb 	.word	0x3fe921fb
 8004fbc:	4002d97b 	.word	0x4002d97b
 8004fc0:	3ff921fb 	.word	0x3ff921fb
 8004fc4:	413921fb 	.word	0x413921fb
 8004fc8:	3fe00000 	.word	0x3fe00000
 8004fcc:	08006128 	.word	0x08006128
 8004fd0:	7fefffff 	.word	0x7fefffff
 8004fd4:	ea4f 552a 	mov.w	r5, sl, asr #20
 8004fd8:	f2a5 4516 	subw	r5, r5, #1046	; 0x416
 8004fdc:	ebaa 5105 	sub.w	r1, sl, r5, lsl #20
 8004fe0:	460f      	mov	r7, r1
 8004fe2:	4606      	mov	r6, r0
 8004fe4:	f7fb fd20 	bl	8000a28 <__aeabi_d2iz>
 8004fe8:	f7fb fa04 	bl	80003f4 <__aeabi_i2d>
 8004fec:	4602      	mov	r2, r0
 8004fee:	460b      	mov	r3, r1
 8004ff0:	4630      	mov	r0, r6
 8004ff2:	4639      	mov	r1, r7
 8004ff4:	e9cd 2306 	strd	r2, r3, [sp, #24]
 8004ff8:	f7fb f8ae 	bl	8000158 <__aeabi_dsub>
 8004ffc:	2200      	movs	r2, #0
 8004ffe:	4b22      	ldr	r3, [pc, #136]	; (8005088 <__ieee754_rem_pio2+0x3e8>)
 8005000:	f7fb fa62 	bl	80004c8 <__aeabi_dmul>
 8005004:	460f      	mov	r7, r1
 8005006:	4606      	mov	r6, r0
 8005008:	f7fb fd0e 	bl	8000a28 <__aeabi_d2iz>
 800500c:	f7fb f9f2 	bl	80003f4 <__aeabi_i2d>
 8005010:	4602      	mov	r2, r0
 8005012:	460b      	mov	r3, r1
 8005014:	4630      	mov	r0, r6
 8005016:	4639      	mov	r1, r7
 8005018:	e9cd 2308 	strd	r2, r3, [sp, #32]
 800501c:	f7fb f89c 	bl	8000158 <__aeabi_dsub>
 8005020:	2200      	movs	r2, #0
 8005022:	4b19      	ldr	r3, [pc, #100]	; (8005088 <__ieee754_rem_pio2+0x3e8>)
 8005024:	f7fb fa50 	bl	80004c8 <__aeabi_dmul>
 8005028:	f04f 0803 	mov.w	r8, #3
 800502c:	2600      	movs	r6, #0
 800502e:	2700      	movs	r7, #0
 8005030:	e9cd 010a 	strd	r0, r1, [sp, #40]	; 0x28
 8005034:	f10d 0928 	add.w	r9, sp, #40	; 0x28
 8005038:	4632      	mov	r2, r6
 800503a:	e879 0102 	ldrd	r0, r1, [r9], #-8
 800503e:	463b      	mov	r3, r7
 8005040:	46c2      	mov	sl, r8
 8005042:	f108 38ff 	add.w	r8, r8, #4294967295
 8005046:	f7fb fca7 	bl	8000998 <__aeabi_dcmpeq>
 800504a:	2800      	cmp	r0, #0
 800504c:	d1f4      	bne.n	8005038 <__ieee754_rem_pio2+0x398>
 800504e:	4b0f      	ldr	r3, [pc, #60]	; (800508c <__ieee754_rem_pio2+0x3ec>)
 8005050:	462a      	mov	r2, r5
 8005052:	9301      	str	r3, [sp, #4]
 8005054:	2302      	movs	r3, #2
 8005056:	4621      	mov	r1, r4
 8005058:	9300      	str	r3, [sp, #0]
 800505a:	a806      	add	r0, sp, #24
 800505c:	4653      	mov	r3, sl
 800505e:	f000 f985 	bl	800536c <__kernel_rem_pio2>
 8005062:	9b04      	ldr	r3, [sp, #16]
 8005064:	4605      	mov	r5, r0
 8005066:	2b00      	cmp	r3, #0
 8005068:	f6bf ae51 	bge.w	8004d0e <__ieee754_rem_pio2+0x6e>
 800506c:	e9d4 2100 	ldrd	r2, r1, [r4]
 8005070:	f101 4300 	add.w	r3, r1, #2147483648	; 0x80000000
 8005074:	e9c4 2300 	strd	r2, r3, [r4]
 8005078:	e9d4 2102 	ldrd	r2, r1, [r4, #8]
 800507c:	f101 4300 	add.w	r3, r1, #2147483648	; 0x80000000
 8005080:	e9c4 2302 	strd	r2, r3, [r4, #8]
 8005084:	e703      	b.n	8004e8e <__ieee754_rem_pio2+0x1ee>
 8005086:	bf00      	nop
 8005088:	41700000 	.word	0x41700000
 800508c:	080061a8 	.word	0x080061a8

08005090 <__ieee754_sqrt>:
 8005090:	f8df c158 	ldr.w	ip, [pc, #344]	; 80051ec <__ieee754_sqrt+0x15c>
 8005094:	e92d 41f0 	stmdb	sp!, {r4, r5, r6, r7, r8, lr}
 8005098:	ea3c 0c01 	bics.w	ip, ip, r1
 800509c:	4606      	mov	r6, r0
 800509e:	460d      	mov	r5, r1
 80050a0:	460c      	mov	r4, r1
 80050a2:	460a      	mov	r2, r1
 80050a4:	4607      	mov	r7, r0
 80050a6:	4603      	mov	r3, r0
 80050a8:	d10f      	bne.n	80050ca <__ieee754_sqrt+0x3a>
 80050aa:	4602      	mov	r2, r0
 80050ac:	460b      	mov	r3, r1
 80050ae:	f7fb fa0b 	bl	80004c8 <__aeabi_dmul>
 80050b2:	4602      	mov	r2, r0
 80050b4:	460b      	mov	r3, r1
 80050b6:	4630      	mov	r0, r6
 80050b8:	4629      	mov	r1, r5
 80050ba:	f7fb f84f 	bl	800015c <__adddf3>
 80050be:	4606      	mov	r6, r0
 80050c0:	460d      	mov	r5, r1
 80050c2:	4630      	mov	r0, r6
 80050c4:	4629      	mov	r1, r5
 80050c6:	e8bd 81f0 	ldmia.w	sp!, {r4, r5, r6, r7, r8, pc}
 80050ca:	2900      	cmp	r1, #0
 80050cc:	dc0e      	bgt.n	80050ec <__ieee754_sqrt+0x5c>
 80050ce:	f021 4c00 	bic.w	ip, r1, #2147483648	; 0x80000000
 80050d2:	ea5c 0707 	orrs.w	r7, ip, r7
 80050d6:	d0f4      	beq.n	80050c2 <__ieee754_sqrt+0x32>
 80050d8:	b141      	cbz	r1, 80050ec <__ieee754_sqrt+0x5c>
 80050da:	4602      	mov	r2, r0
 80050dc:	460b      	mov	r3, r1
 80050de:	f7fb f83b 	bl	8000158 <__aeabi_dsub>
 80050e2:	4602      	mov	r2, r0
 80050e4:	460b      	mov	r3, r1
 80050e6:	f7fb fb19 	bl	800071c <__aeabi_ddiv>
 80050ea:	e7e8      	b.n	80050be <__ieee754_sqrt+0x2e>
 80050ec:	1521      	asrs	r1, r4, #20
 80050ee:	d075      	beq.n	80051dc <__ieee754_sqrt+0x14c>
 80050f0:	07cc      	lsls	r4, r1, #31
 80050f2:	f04f 0400 	mov.w	r4, #0
 80050f6:	f3c2 0213 	ubfx	r2, r2, #0, #20
 80050fa:	f2a1 37ff 	subw	r7, r1, #1023	; 0x3ff
 80050fe:	f442 1280 	orr.w	r2, r2, #1048576	; 0x100000
 8005102:	bf5e      	ittt	pl
 8005104:	0fd9      	lsrpl	r1, r3, #31
 8005106:	005b      	lslpl	r3, r3, #1
 8005108:	eb01 0242 	addpl.w	r2, r1, r2, lsl #1
 800510c:	0fd9      	lsrs	r1, r3, #31
 800510e:	eb01 0242 	add.w	r2, r1, r2, lsl #1
 8005112:	2516      	movs	r5, #22
 8005114:	4620      	mov	r0, r4
 8005116:	f44f 1100 	mov.w	r1, #2097152	; 0x200000
 800511a:	107f      	asrs	r7, r7, #1
 800511c:	005b      	lsls	r3, r3, #1
 800511e:	1846      	adds	r6, r0, r1
 8005120:	4296      	cmp	r6, r2
 8005122:	bfde      	ittt	le
 8005124:	1b92      	suble	r2, r2, r6
 8005126:	1870      	addle	r0, r6, r1
 8005128:	1864      	addle	r4, r4, r1
 800512a:	0052      	lsls	r2, r2, #1
 800512c:	3d01      	subs	r5, #1
 800512e:	eb02 72d3 	add.w	r2, r2, r3, lsr #31
 8005132:	ea4f 0151 	mov.w	r1, r1, lsr #1
 8005136:	ea4f 0343 	mov.w	r3, r3, lsl #1
 800513a:	d1f0      	bne.n	800511e <__ieee754_sqrt+0x8e>
 800513c:	4629      	mov	r1, r5
 800513e:	f04f 0e20 	mov.w	lr, #32
 8005142:	f04f 4600 	mov.w	r6, #2147483648	; 0x80000000
 8005146:	4282      	cmp	r2, r0
 8005148:	eb06 0c05 	add.w	ip, r6, r5
 800514c:	dc02      	bgt.n	8005154 <__ieee754_sqrt+0xc4>
 800514e:	d113      	bne.n	8005178 <__ieee754_sqrt+0xe8>
 8005150:	459c      	cmp	ip, r3
 8005152:	d811      	bhi.n	8005178 <__ieee754_sqrt+0xe8>
 8005154:	f1bc 0f00 	cmp.w	ip, #0
 8005158:	eb0c 0506 	add.w	r5, ip, r6
 800515c:	da43      	bge.n	80051e6 <__ieee754_sqrt+0x156>
 800515e:	2d00      	cmp	r5, #0
 8005160:	db41      	blt.n	80051e6 <__ieee754_sqrt+0x156>
 8005162:	f100 0801 	add.w	r8, r0, #1
 8005166:	1a12      	subs	r2, r2, r0
 8005168:	4640      	mov	r0, r8
 800516a:	459c      	cmp	ip, r3
 800516c:	bf88      	it	hi
 800516e:	f102 32ff 	addhi.w	r2, r2, #4294967295
 8005172:	eba3 030c 	sub.w	r3, r3, ip
 8005176:	4431      	add	r1, r6
 8005178:	ea4f 7cd3 	mov.w	ip, r3, lsr #31
 800517c:	f1be 0e01 	subs.w	lr, lr, #1
 8005180:	eb0c 0242 	add.w	r2, ip, r2, lsl #1
 8005184:	ea4f 0343 	mov.w	r3, r3, lsl #1
 8005188:	ea4f 0656 	mov.w	r6, r6, lsr #1
 800518c:	d1db      	bne.n	8005146 <__ieee754_sqrt+0xb6>
 800518e:	4313      	orrs	r3, r2
 8005190:	d006      	beq.n	80051a0 <__ieee754_sqrt+0x110>
 8005192:	1c48      	adds	r0, r1, #1
 8005194:	bf0b      	itete	eq
 8005196:	4671      	moveq	r1, lr
 8005198:	3101      	addne	r1, #1
 800519a:	3401      	addeq	r4, #1
 800519c:	f021 0101 	bicne.w	r1, r1, #1
 80051a0:	1063      	asrs	r3, r4, #1
 80051a2:	0849      	lsrs	r1, r1, #1
 80051a4:	f103 537f 	add.w	r3, r3, #1069547520	; 0x3fc00000
 80051a8:	07e2      	lsls	r2, r4, #31
 80051aa:	f503 1300 	add.w	r3, r3, #2097152	; 0x200000
 80051ae:	bf48      	it	mi
 80051b0:	f041 4100 	orrmi.w	r1, r1, #2147483648	; 0x80000000
 80051b4:	460e      	mov	r6, r1
 80051b6:	eb03 5507 	add.w	r5, r3, r7, lsl #20
 80051ba:	e782      	b.n	80050c2 <__ieee754_sqrt+0x32>
 80051bc:	0ada      	lsrs	r2, r3, #11
 80051be:	3815      	subs	r0, #21
 80051c0:	055b      	lsls	r3, r3, #21
 80051c2:	2a00      	cmp	r2, #0
 80051c4:	d0fa      	beq.n	80051bc <__ieee754_sqrt+0x12c>
 80051c6:	02d5      	lsls	r5, r2, #11
 80051c8:	d50a      	bpl.n	80051e0 <__ieee754_sqrt+0x150>
 80051ca:	f1c1 0420 	rsb	r4, r1, #32
 80051ce:	fa23 f404 	lsr.w	r4, r3, r4
 80051d2:	1e4d      	subs	r5, r1, #1
 80051d4:	408b      	lsls	r3, r1
 80051d6:	4322      	orrs	r2, r4
 80051d8:	1b41      	subs	r1, r0, r5
 80051da:	e789      	b.n	80050f0 <__ieee754_sqrt+0x60>
 80051dc:	4608      	mov	r0, r1
 80051de:	e7f0      	b.n	80051c2 <__ieee754_sqrt+0x132>
 80051e0:	0052      	lsls	r2, r2, #1
 80051e2:	3101      	adds	r1, #1
 80051e4:	e7ef      	b.n	80051c6 <__ieee754_sqrt+0x136>
 80051e6:	4680      	mov	r8, r0
 80051e8:	e7bd      	b.n	8005166 <__ieee754_sqrt+0xd6>
 80051ea:	bf00      	nop
 80051ec:	7ff00000 	.word	0x7ff00000

080051f0 <__kernel_cos>:
 80051f0:	e92d 4ff7 	stmdb	sp!, {r0, r1, r2, r4, r5, r6, r7, r8, r9, sl, fp, lr}
 80051f4:	f021 4600 	bic.w	r6, r1, #2147483648	; 0x80000000
 80051f8:	f1b6 5f79 	cmp.w	r6, #1044381696	; 0x3e400000
 80051fc:	4680      	mov	r8, r0
 80051fe:	460f      	mov	r7, r1
 8005200:	e9cd 2300 	strd	r2, r3, [sp]
 8005204:	da04      	bge.n	8005210 <__kernel_cos+0x20>
 8005206:	f7fb fc0f 	bl	8000a28 <__aeabi_d2iz>
 800520a:	2800      	cmp	r0, #0
 800520c:	f000 8086 	beq.w	800531c <__kernel_cos+0x12c>
 8005210:	4642      	mov	r2, r8
 8005212:	463b      	mov	r3, r7
 8005214:	4640      	mov	r0, r8
 8005216:	4639      	mov	r1, r7
 8005218:	f7fb f956 	bl	80004c8 <__aeabi_dmul>
 800521c:	2200      	movs	r2, #0
 800521e:	4b4e      	ldr	r3, [pc, #312]	; (8005358 <__kernel_cos+0x168>)
 8005220:	4604      	mov	r4, r0
 8005222:	460d      	mov	r5, r1
 8005224:	f7fb f950 	bl	80004c8 <__aeabi_dmul>
 8005228:	a33f      	add	r3, pc, #252	; (adr r3, 8005328 <__kernel_cos+0x138>)
 800522a:	e9d3 2300 	ldrd	r2, r3, [r3]
 800522e:	4682      	mov	sl, r0
 8005230:	468b      	mov	fp, r1
 8005232:	4620      	mov	r0, r4
 8005234:	4629      	mov	r1, r5
 8005236:	f7fb f947 	bl	80004c8 <__aeabi_dmul>
 800523a:	a33d      	add	r3, pc, #244	; (adr r3, 8005330 <__kernel_cos+0x140>)
 800523c:	e9d3 2300 	ldrd	r2, r3, [r3]
 8005240:	f7fa ff8c 	bl	800015c <__adddf3>
 8005244:	4622      	mov	r2, r4
 8005246:	462b      	mov	r3, r5
 8005248:	f7fb f93e 	bl	80004c8 <__aeabi_dmul>
 800524c:	a33a      	add	r3, pc, #232	; (adr r3, 8005338 <__kernel_cos+0x148>)
 800524e:	e9d3 2300 	ldrd	r2, r3, [r3]
 8005252:	f7fa ff81 	bl	8000158 <__aeabi_dsub>
 8005256:	4622      	mov	r2, r4
 8005258:	462b      	mov	r3, r5
 800525a:	f7fb f935 	bl	80004c8 <__aeabi_dmul>
 800525e:	a338      	add	r3, pc, #224	; (adr r3, 8005340 <__kernel_cos+0x150>)
 8005260:	e9d3 2300 	ldrd	r2, r3, [r3]
 8005264:	f7fa ff7a 	bl	800015c <__adddf3>
 8005268:	4622      	mov	r2, r4
 800526a:	462b      	mov	r3, r5
 800526c:	f7fb f92c 	bl	80004c8 <__aeabi_dmul>
 8005270:	a335      	add	r3, pc, #212	; (adr r3, 8005348 <__kernel_cos+0x158>)
 8005272:	e9d3 2300 	ldrd	r2, r3, [r3]
 8005276:	f7fa ff6f 	bl	8000158 <__aeabi_dsub>
 800527a:	4622      	mov	r2, r4
 800527c:	462b      	mov	r3, r5
 800527e:	f7fb f923 	bl	80004c8 <__aeabi_dmul>
 8005282:	a333      	add	r3, pc, #204	; (adr r3, 8005350 <__kernel_cos+0x160>)
 8005284:	e9d3 2300 	ldrd	r2, r3, [r3]
 8005288:	f7fa ff68 	bl	800015c <__adddf3>
 800528c:	4622      	mov	r2, r4
 800528e:	462b      	mov	r3, r5
 8005290:	f7fb f91a 	bl	80004c8 <__aeabi_dmul>
 8005294:	4622      	mov	r2, r4
 8005296:	462b      	mov	r3, r5
 8005298:	f7fb f916 	bl	80004c8 <__aeabi_dmul>
 800529c:	e9dd 2300 	ldrd	r2, r3, [sp]
 80052a0:	4604      	mov	r4, r0
 80052a2:	460d      	mov	r5, r1
 80052a4:	4640      	mov	r0, r8
 80052a6:	4639      	mov	r1, r7
 80052a8:	f7fb f90e 	bl	80004c8 <__aeabi_dmul>
 80052ac:	460b      	mov	r3, r1
 80052ae:	4602      	mov	r2, r0
 80052b0:	4629      	mov	r1, r5
 80052b2:	4620      	mov	r0, r4
 80052b4:	f7fa ff50 	bl	8000158 <__aeabi_dsub>
 80052b8:	4b28      	ldr	r3, [pc, #160]	; (800535c <__kernel_cos+0x16c>)
 80052ba:	4680      	mov	r8, r0
 80052bc:	429e      	cmp	r6, r3
 80052be:	4689      	mov	r9, r1
 80052c0:	dc0e      	bgt.n	80052e0 <__kernel_cos+0xf0>
 80052c2:	4602      	mov	r2, r0
 80052c4:	460b      	mov	r3, r1
 80052c6:	4650      	mov	r0, sl
 80052c8:	4659      	mov	r1, fp
 80052ca:	f7fa ff45 	bl	8000158 <__aeabi_dsub>
 80052ce:	4602      	mov	r2, r0
 80052d0:	2000      	movs	r0, #0
 80052d2:	460b      	mov	r3, r1
 80052d4:	4922      	ldr	r1, [pc, #136]	; (8005360 <__kernel_cos+0x170>)
 80052d6:	f7fa ff3f 	bl	8000158 <__aeabi_dsub>
 80052da:	b003      	add	sp, #12
 80052dc:	e8bd 8ff0 	ldmia.w	sp!, {r4, r5, r6, r7, r8, r9, sl, fp, pc}
 80052e0:	2400      	movs	r4, #0
 80052e2:	4b20      	ldr	r3, [pc, #128]	; (8005364 <__kernel_cos+0x174>)
 80052e4:	4622      	mov	r2, r4
 80052e6:	429e      	cmp	r6, r3
 80052e8:	bfcc      	ite	gt
 80052ea:	4d1f      	ldrgt	r5, [pc, #124]	; (8005368 <__kernel_cos+0x178>)
 80052ec:	f5a6 1500 	suble.w	r5, r6, #2097152	; 0x200000
 80052f0:	462b      	mov	r3, r5
 80052f2:	2000      	movs	r0, #0
 80052f4:	491a      	ldr	r1, [pc, #104]	; (8005360 <__kernel_cos+0x170>)
 80052f6:	f7fa ff2f 	bl	8000158 <__aeabi_dsub>
 80052fa:	4622      	mov	r2, r4
 80052fc:	4606      	mov	r6, r0
 80052fe:	460f      	mov	r7, r1
 8005300:	462b      	mov	r3, r5
 8005302:	4650      	mov	r0, sl
 8005304:	4659      	mov	r1, fp
 8005306:	f7fa ff27 	bl	8000158 <__aeabi_dsub>
 800530a:	4642      	mov	r2, r8
 800530c:	464b      	mov	r3, r9
 800530e:	f7fa ff23 	bl	8000158 <__aeabi_dsub>
 8005312:	4602      	mov	r2, r0
 8005314:	460b      	mov	r3, r1
 8005316:	4630      	mov	r0, r6
 8005318:	4639      	mov	r1, r7
 800531a:	e7dc      	b.n	80052d6 <__kernel_cos+0xe6>
 800531c:	2000      	movs	r0, #0
 800531e:	4910      	ldr	r1, [pc, #64]	; (8005360 <__kernel_cos+0x170>)
 8005320:	e7db      	b.n	80052da <__kernel_cos+0xea>
 8005322:	bf00      	nop
 8005324:	f3af 8000 	nop.w
 8005328:	be8838d4 	.word	0xbe8838d4
 800532c:	bda8fae9 	.word	0xbda8fae9
 8005330:	bdb4b1c4 	.word	0xbdb4b1c4
 8005334:	3e21ee9e 	.word	0x3e21ee9e
 8005338:	809c52ad 	.word	0x809c52ad
 800533c:	3e927e4f 	.word	0x3e927e4f
 8005340:	19cb1590 	.word	0x19cb1590
 8005344:	3efa01a0 	.word	0x3efa01a0
 8005348:	16c15177 	.word	0x16c15177
 800534c:	3f56c16c 	.word	0x3f56c16c
 8005350:	5555554c 	.word	0x5555554c
 8005354:	3fa55555 	.word	0x3fa55555
 8005358:	3fe00000 	.word	0x3fe00000
 800535c:	3fd33332 	.word	0x3fd33332
 8005360:	3ff00000 	.word	0x3ff00000
 8005364:	3fe90000 	.word	0x3fe90000
 8005368:	3fd20000 	.word	0x3fd20000

0800536c <__kernel_rem_pio2>:
 800536c:	e92d 4ff0 	stmdb	sp!, {r4, r5, r6, r7, r8, r9, sl, fp, lr}
 8005370:	f5ad 7d19 	sub.w	sp, sp, #612	; 0x264
 8005374:	9308      	str	r3, [sp, #32]
 8005376:	9106      	str	r1, [sp, #24]
 8005378:	4bb6      	ldr	r3, [pc, #728]	; (8005654 <__kernel_rem_pio2+0x2e8>)
 800537a:	99a2      	ldr	r1, [sp, #648]	; 0x288
 800537c:	f112 0f14 	cmn.w	r2, #20
 8005380:	f853 3021 	ldr.w	r3, [r3, r1, lsl #2]
 8005384:	bfa8      	it	ge
 8005386:	1ed4      	subge	r4, r2, #3
 8005388:	9302      	str	r3, [sp, #8]
 800538a:	9b08      	ldr	r3, [sp, #32]
 800538c:	bfb8      	it	lt
 800538e:	2400      	movlt	r4, #0
 8005390:	f103 33ff 	add.w	r3, r3, #4294967295
 8005394:	9307      	str	r3, [sp, #28]
 8005396:	bfa4      	itt	ge
 8005398:	2318      	movge	r3, #24
 800539a:	fb94 f4f3 	sdivge	r4, r4, r3
 800539e:	f06f 0317 	mvn.w	r3, #23
 80053a2:	fb04 3303 	mla	r3, r4, r3, r3
 80053a6:	eb03 0b02 	add.w	fp, r3, r2
 80053aa:	9a07      	ldr	r2, [sp, #28]
 80053ac:	9b02      	ldr	r3, [sp, #8]
 80053ae:	1aa7      	subs	r7, r4, r2
 80053b0:	eb03 0802 	add.w	r8, r3, r2
 80053b4:	9ba3      	ldr	r3, [sp, #652]	; 0x28c
 80053b6:	2500      	movs	r5, #0
 80053b8:	eb03 0987 	add.w	r9, r3, r7, lsl #2
 80053bc:	2200      	movs	r2, #0
 80053be:	2300      	movs	r3, #0
 80053c0:	9009      	str	r0, [sp, #36]	; 0x24
 80053c2:	ae20      	add	r6, sp, #128	; 0x80
 80053c4:	4545      	cmp	r5, r8
 80053c6:	dd14      	ble.n	80053f2 <__kernel_rem_pio2+0x86>
 80053c8:	f04f 0800 	mov.w	r8, #0
 80053cc:	9a08      	ldr	r2, [sp, #32]
 80053ce:	ab20      	add	r3, sp, #128	; 0x80
 80053d0:	eb03 05c2 	add.w	r5, r3, r2, lsl #3
 80053d4:	f50d 7ae0 	add.w	sl, sp, #448	; 0x1c0
 80053d8:	9b02      	ldr	r3, [sp, #8]
 80053da:	4598      	cmp	r8, r3
 80053dc:	dc35      	bgt.n	800544a <__kernel_rem_pio2+0xde>
 80053de:	9b09      	ldr	r3, [sp, #36]	; 0x24
 80053e0:	2200      	movs	r2, #0
 80053e2:	f1a3 0908 	sub.w	r9, r3, #8
 80053e6:	2300      	movs	r3, #0
 80053e8:	462f      	mov	r7, r5
 80053ea:	2600      	movs	r6, #0
 80053ec:	e9cd 2300 	strd	r2, r3, [sp]
 80053f0:	e01f      	b.n	8005432 <__kernel_rem_pio2+0xc6>
 80053f2:	42ef      	cmn	r7, r5
 80053f4:	d40b      	bmi.n	800540e <__kernel_rem_pio2+0xa2>
 80053f6:	f859 0025 	ldr.w	r0, [r9, r5, lsl #2]
 80053fa:	e9cd 2300 	strd	r2, r3, [sp]
 80053fe:	f7fa fff9 	bl	80003f4 <__aeabi_i2d>
 8005402:	e9dd 2300 	ldrd	r2, r3, [sp]
 8005406:	e8e6 0102 	strd	r0, r1, [r6], #8
 800540a:	3501      	adds	r5, #1
 800540c:	e7da      	b.n	80053c4 <__kernel_rem_pio2+0x58>
 800540e:	4610      	mov	r0, r2
 8005410:	4619      	mov	r1, r3
 8005412:	e7f8      	b.n	8005406 <__kernel_rem_pio2+0x9a>
 8005414:	e9d7 2300 	ldrd	r2, r3, [r7]
 8005418:	e9f9 0102 	ldrd	r0, r1, [r9, #8]!
 800541c:	f7fb f854 	bl	80004c8 <__aeabi_dmul>
 8005420:	4602      	mov	r2, r0
 8005422:	460b      	mov	r3, r1
 8005424:	e9dd 0100 	ldrd	r0, r1, [sp]
 8005428:	f7fa fe98 	bl	800015c <__adddf3>
 800542c:	e9cd 0100 	strd	r0, r1, [sp]
 8005430:	3601      	adds	r6, #1
 8005432:	9b07      	ldr	r3, [sp, #28]
 8005434:	3f08      	subs	r7, #8
 8005436:	429e      	cmp	r6, r3
 8005438:	ddec      	ble.n	8005414 <__kernel_rem_pio2+0xa8>
 800543a:	e9dd 2300 	ldrd	r2, r3, [sp]
 800543e:	f108 0801 	add.w	r8, r8, #1
 8005442:	e8ea 2302 	strd	r2, r3, [sl], #8
 8005446:	3508      	adds	r5, #8
 8005448:	e7c6      	b.n	80053d8 <__kernel_rem_pio2+0x6c>
 800544a:	9b02      	ldr	r3, [sp, #8]
 800544c:	aa0c      	add	r2, sp, #48	; 0x30
 800544e:	eb02 0383 	add.w	r3, r2, r3, lsl #2
 8005452:	930b      	str	r3, [sp, #44]	; 0x2c
 8005454:	9ba3      	ldr	r3, [sp, #652]	; 0x28c
 8005456:	9e02      	ldr	r6, [sp, #8]
 8005458:	eb03 0384 	add.w	r3, r3, r4, lsl #2
 800545c:	930a      	str	r3, [sp, #40]	; 0x28
 800545e:	ab98      	add	r3, sp, #608	; 0x260
 8005460:	eb03 03c6 	add.w	r3, r3, r6, lsl #3
 8005464:	e953 4528 	ldrd	r4, r5, [r3, #-160]	; 0xa0
 8005468:	ab70      	add	r3, sp, #448	; 0x1c0
 800546a:	eb03 0ac6 	add.w	sl, r3, r6, lsl #3
 800546e:	46d0      	mov	r8, sl
 8005470:	46b1      	mov	r9, r6
 8005472:	af0c      	add	r7, sp, #48	; 0x30
 8005474:	9700      	str	r7, [sp, #0]
 8005476:	f1b9 0f00 	cmp.w	r9, #0
 800547a:	f1a8 0808 	sub.w	r8, r8, #8
 800547e:	dc71      	bgt.n	8005564 <__kernel_rem_pio2+0x1f8>
 8005480:	465a      	mov	r2, fp
 8005482:	4620      	mov	r0, r4
 8005484:	4629      	mov	r1, r5
 8005486:	f000 fd7b 	bl	8005f80 <scalbn>
 800548a:	2200      	movs	r2, #0
 800548c:	f04f 537f 	mov.w	r3, #1069547520	; 0x3fc00000
 8005490:	4604      	mov	r4, r0
 8005492:	460d      	mov	r5, r1
 8005494:	f7fb f818 	bl	80004c8 <__aeabi_dmul>
 8005498:	f000 fcf2 	bl	8005e80 <floor>
 800549c:	2200      	movs	r2, #0
 800549e:	4b6e      	ldr	r3, [pc, #440]	; (8005658 <__kernel_rem_pio2+0x2ec>)
 80054a0:	f7fb f812 	bl	80004c8 <__aeabi_dmul>
 80054a4:	4602      	mov	r2, r0
 80054a6:	460b      	mov	r3, r1
 80054a8:	4620      	mov	r0, r4
 80054aa:	4629      	mov	r1, r5
 80054ac:	f7fa fe54 	bl	8000158 <__aeabi_dsub>
 80054b0:	460d      	mov	r5, r1
 80054b2:	4604      	mov	r4, r0
 80054b4:	f7fb fab8 	bl	8000a28 <__aeabi_d2iz>
 80054b8:	9004      	str	r0, [sp, #16]
 80054ba:	f7fa ff9b 	bl	80003f4 <__aeabi_i2d>
 80054be:	4602      	mov	r2, r0
 80054c0:	460b      	mov	r3, r1
 80054c2:	4620      	mov	r0, r4
 80054c4:	4629      	mov	r1, r5
 80054c6:	f7fa fe47 	bl	8000158 <__aeabi_dsub>
 80054ca:	f1bb 0f00 	cmp.w	fp, #0
 80054ce:	4680      	mov	r8, r0
 80054d0:	4689      	mov	r9, r1
 80054d2:	dd70      	ble.n	80055b6 <__kernel_rem_pio2+0x24a>
 80054d4:	1e72      	subs	r2, r6, #1
 80054d6:	ab0c      	add	r3, sp, #48	; 0x30
 80054d8:	f853 0022 	ldr.w	r0, [r3, r2, lsl #2]
 80054dc:	9c04      	ldr	r4, [sp, #16]
 80054de:	f1cb 0118 	rsb	r1, fp, #24
 80054e2:	fa40 f301 	asr.w	r3, r0, r1
 80054e6:	441c      	add	r4, r3
 80054e8:	408b      	lsls	r3, r1
 80054ea:	1ac0      	subs	r0, r0, r3
 80054ec:	ab0c      	add	r3, sp, #48	; 0x30
 80054ee:	f843 0022 	str.w	r0, [r3, r2, lsl #2]
 80054f2:	f1cb 0317 	rsb	r3, fp, #23
 80054f6:	9404      	str	r4, [sp, #16]
 80054f8:	fa40 f303 	asr.w	r3, r0, r3
 80054fc:	9300      	str	r3, [sp, #0]
 80054fe:	9b00      	ldr	r3, [sp, #0]
 8005500:	2b00      	cmp	r3, #0
 8005502:	dd66      	ble.n	80055d2 <__kernel_rem_pio2+0x266>
 8005504:	2200      	movs	r2, #0
 8005506:	f06f 417f 	mvn.w	r1, #4278190080	; 0xff000000
 800550a:	4614      	mov	r4, r2
 800550c:	9b04      	ldr	r3, [sp, #16]
 800550e:	3301      	adds	r3, #1
 8005510:	9304      	str	r3, [sp, #16]
 8005512:	4296      	cmp	r6, r2
 8005514:	f300 80ac 	bgt.w	8005670 <__kernel_rem_pio2+0x304>
 8005518:	f1bb 0f00 	cmp.w	fp, #0
 800551c:	dd07      	ble.n	800552e <__kernel_rem_pio2+0x1c2>
 800551e:	f1bb 0f01 	cmp.w	fp, #1
 8005522:	f000 80b4 	beq.w	800568e <__kernel_rem_pio2+0x322>
 8005526:	f1bb 0f02 	cmp.w	fp, #2
 800552a:	f000 80ba 	beq.w	80056a2 <__kernel_rem_pio2+0x336>
 800552e:	9b00      	ldr	r3, [sp, #0]
 8005530:	2b02      	cmp	r3, #2
 8005532:	d14e      	bne.n	80055d2 <__kernel_rem_pio2+0x266>
 8005534:	4642      	mov	r2, r8
 8005536:	464b      	mov	r3, r9
 8005538:	2000      	movs	r0, #0
 800553a:	4948      	ldr	r1, [pc, #288]	; (800565c <__kernel_rem_pio2+0x2f0>)
 800553c:	f7fa fe0c 	bl	8000158 <__aeabi_dsub>
 8005540:	4680      	mov	r8, r0
 8005542:	4689      	mov	r9, r1
 8005544:	2c00      	cmp	r4, #0
 8005546:	d044      	beq.n	80055d2 <__kernel_rem_pio2+0x266>
 8005548:	465a      	mov	r2, fp
 800554a:	2000      	movs	r0, #0
 800554c:	4943      	ldr	r1, [pc, #268]	; (800565c <__kernel_rem_pio2+0x2f0>)
 800554e:	f000 fd17 	bl	8005f80 <scalbn>
 8005552:	4602      	mov	r2, r0
 8005554:	460b      	mov	r3, r1
 8005556:	4640      	mov	r0, r8
 8005558:	4649      	mov	r1, r9
 800555a:	f7fa fdfd 	bl	8000158 <__aeabi_dsub>
 800555e:	4680      	mov	r8, r0
 8005560:	4689      	mov	r9, r1
 8005562:	e036      	b.n	80055d2 <__kernel_rem_pio2+0x266>
 8005564:	2200      	movs	r2, #0
 8005566:	4b3e      	ldr	r3, [pc, #248]	; (8005660 <__kernel_rem_pio2+0x2f4>)
 8005568:	4620      	mov	r0, r4
 800556a:	4629      	mov	r1, r5
 800556c:	f7fa ffac 	bl	80004c8 <__aeabi_dmul>
 8005570:	f7fb fa5a 	bl	8000a28 <__aeabi_d2iz>
 8005574:	f7fa ff3e 	bl	80003f4 <__aeabi_i2d>
 8005578:	4602      	mov	r2, r0
 800557a:	460b      	mov	r3, r1
 800557c:	e9cd 2304 	strd	r2, r3, [sp, #16]
 8005580:	2200      	movs	r2, #0
 8005582:	4b38      	ldr	r3, [pc, #224]	; (8005664 <__kernel_rem_pio2+0x2f8>)
 8005584:	f7fa ffa0 	bl	80004c8 <__aeabi_dmul>
 8005588:	4602      	mov	r2, r0
 800558a:	460b      	mov	r3, r1
 800558c:	4620      	mov	r0, r4
 800558e:	4629      	mov	r1, r5
 8005590:	f7fa fde2 	bl	8000158 <__aeabi_dsub>
 8005594:	f7fb fa48 	bl	8000a28 <__aeabi_d2iz>
 8005598:	9b00      	ldr	r3, [sp, #0]
 800559a:	f109 39ff 	add.w	r9, r9, #4294967295
 800559e:	f843 0b04 	str.w	r0, [r3], #4
 80055a2:	9300      	str	r3, [sp, #0]
 80055a4:	e9dd 0104 	ldrd	r0, r1, [sp, #16]
 80055a8:	e9d8 2300 	ldrd	r2, r3, [r8]
 80055ac:	f7fa fdd6 	bl	800015c <__adddf3>
 80055b0:	4604      	mov	r4, r0
 80055b2:	460d      	mov	r5, r1
 80055b4:	e75f      	b.n	8005476 <__kernel_rem_pio2+0x10a>
 80055b6:	d105      	bne.n	80055c4 <__kernel_rem_pio2+0x258>
 80055b8:	1e73      	subs	r3, r6, #1
 80055ba:	aa0c      	add	r2, sp, #48	; 0x30
 80055bc:	f852 0023 	ldr.w	r0, [r2, r3, lsl #2]
 80055c0:	15c3      	asrs	r3, r0, #23
 80055c2:	e79b      	b.n	80054fc <__kernel_rem_pio2+0x190>
 80055c4:	2200      	movs	r2, #0
 80055c6:	4b28      	ldr	r3, [pc, #160]	; (8005668 <__kernel_rem_pio2+0x2fc>)
 80055c8:	f7fb fa04 	bl	80009d4 <__aeabi_dcmpge>
 80055cc:	2800      	cmp	r0, #0
 80055ce:	d13e      	bne.n	800564e <__kernel_rem_pio2+0x2e2>
 80055d0:	9000      	str	r0, [sp, #0]
 80055d2:	2200      	movs	r2, #0
 80055d4:	2300      	movs	r3, #0
 80055d6:	4640      	mov	r0, r8
 80055d8:	4649      	mov	r1, r9
 80055da:	f7fb f9dd 	bl	8000998 <__aeabi_dcmpeq>
 80055de:	2800      	cmp	r0, #0
 80055e0:	f000 80b1 	beq.w	8005746 <__kernel_rem_pio2+0x3da>
 80055e4:	1e74      	subs	r4, r6, #1
 80055e6:	4623      	mov	r3, r4
 80055e8:	2200      	movs	r2, #0
 80055ea:	9902      	ldr	r1, [sp, #8]
 80055ec:	428b      	cmp	r3, r1
 80055ee:	da5f      	bge.n	80056b0 <__kernel_rem_pio2+0x344>
 80055f0:	2a00      	cmp	r2, #0
 80055f2:	d074      	beq.n	80056de <__kernel_rem_pio2+0x372>
 80055f4:	ab0c      	add	r3, sp, #48	; 0x30
 80055f6:	f853 3024 	ldr.w	r3, [r3, r4, lsl #2]
 80055fa:	f1ab 0b18 	sub.w	fp, fp, #24
 80055fe:	2b00      	cmp	r3, #0
 8005600:	f000 809f 	beq.w	8005742 <__kernel_rem_pio2+0x3d6>
 8005604:	465a      	mov	r2, fp
 8005606:	2000      	movs	r0, #0
 8005608:	4914      	ldr	r1, [pc, #80]	; (800565c <__kernel_rem_pio2+0x2f0>)
 800560a:	f000 fcb9 	bl	8005f80 <scalbn>
 800560e:	46a2      	mov	sl, r4
 8005610:	4606      	mov	r6, r0
 8005612:	460f      	mov	r7, r1
 8005614:	f04f 0800 	mov.w	r8, #0
 8005618:	ab70      	add	r3, sp, #448	; 0x1c0
 800561a:	f8df 9044 	ldr.w	r9, [pc, #68]	; 8005660 <__kernel_rem_pio2+0x2f4>
 800561e:	00e5      	lsls	r5, r4, #3
 8005620:	eb03 0bc4 	add.w	fp, r3, r4, lsl #3
 8005624:	f1ba 0f00 	cmp.w	sl, #0
 8005628:	f280 80c3 	bge.w	80057b2 <__kernel_rem_pio2+0x446>
 800562c:	4626      	mov	r6, r4
 800562e:	2e00      	cmp	r6, #0
 8005630:	f2c0 80f5 	blt.w	800581e <__kernel_rem_pio2+0x4b2>
 8005634:	4b0d      	ldr	r3, [pc, #52]	; (800566c <__kernel_rem_pio2+0x300>)
 8005636:	f04f 0a00 	mov.w	sl, #0
 800563a:	9307      	str	r3, [sp, #28]
 800563c:	ab70      	add	r3, sp, #448	; 0x1c0
 800563e:	f04f 0b00 	mov.w	fp, #0
 8005642:	f04f 0800 	mov.w	r8, #0
 8005646:	eb03 09c6 	add.w	r9, r3, r6, lsl #3
 800564a:	1ba7      	subs	r7, r4, r6
 800564c:	e0db      	b.n	8005806 <__kernel_rem_pio2+0x49a>
 800564e:	2302      	movs	r3, #2
 8005650:	9300      	str	r3, [sp, #0]
 8005652:	e757      	b.n	8005504 <__kernel_rem_pio2+0x198>
 8005654:	080062f0 	.word	0x080062f0
 8005658:	40200000 	.word	0x40200000
 800565c:	3ff00000 	.word	0x3ff00000
 8005660:	3e700000 	.word	0x3e700000
 8005664:	41700000 	.word	0x41700000
 8005668:	3fe00000 	.word	0x3fe00000
 800566c:	080062b0 	.word	0x080062b0
 8005670:	683b      	ldr	r3, [r7, #0]
 8005672:	b944      	cbnz	r4, 8005686 <__kernel_rem_pio2+0x31a>
 8005674:	b11b      	cbz	r3, 800567e <__kernel_rem_pio2+0x312>
 8005676:	f1c3 7380 	rsb	r3, r3, #16777216	; 0x1000000
 800567a:	603b      	str	r3, [r7, #0]
 800567c:	2301      	movs	r3, #1
 800567e:	461c      	mov	r4, r3
 8005680:	3201      	adds	r2, #1
 8005682:	3704      	adds	r7, #4
 8005684:	e745      	b.n	8005512 <__kernel_rem_pio2+0x1a6>
 8005686:	1acb      	subs	r3, r1, r3
 8005688:	603b      	str	r3, [r7, #0]
 800568a:	4623      	mov	r3, r4
 800568c:	e7f7      	b.n	800567e <__kernel_rem_pio2+0x312>
 800568e:	1e72      	subs	r2, r6, #1
 8005690:	ab0c      	add	r3, sp, #48	; 0x30
 8005692:	f853 3022 	ldr.w	r3, [r3, r2, lsl #2]
 8005696:	f3c3 0316 	ubfx	r3, r3, #0, #23
 800569a:	a90c      	add	r1, sp, #48	; 0x30
 800569c:	f841 3022 	str.w	r3, [r1, r2, lsl #2]
 80056a0:	e745      	b.n	800552e <__kernel_rem_pio2+0x1c2>
 80056a2:	1e72      	subs	r2, r6, #1
 80056a4:	ab0c      	add	r3, sp, #48	; 0x30
 80056a6:	f853 3022 	ldr.w	r3, [r3, r2, lsl #2]
 80056aa:	f3c3 0315 	ubfx	r3, r3, #0, #22
 80056ae:	e7f4      	b.n	800569a <__kernel_rem_pio2+0x32e>
 80056b0:	a90c      	add	r1, sp, #48	; 0x30
 80056b2:	f851 1023 	ldr.w	r1, [r1, r3, lsl #2]
 80056b6:	3b01      	subs	r3, #1
 80056b8:	430a      	orrs	r2, r1
 80056ba:	e796      	b.n	80055ea <__kernel_rem_pio2+0x27e>
 80056bc:	3401      	adds	r4, #1
 80056be:	f853 2d04 	ldr.w	r2, [r3, #-4]!
 80056c2:	2a00      	cmp	r2, #0
 80056c4:	d0fa      	beq.n	80056bc <__kernel_rem_pio2+0x350>
 80056c6:	9b08      	ldr	r3, [sp, #32]
 80056c8:	f106 0801 	add.w	r8, r6, #1
 80056cc:	18f5      	adds	r5, r6, r3
 80056ce:	ab20      	add	r3, sp, #128	; 0x80
 80056d0:	eb03 05c5 	add.w	r5, r3, r5, lsl #3
 80056d4:	4434      	add	r4, r6
 80056d6:	4544      	cmp	r4, r8
 80056d8:	da04      	bge.n	80056e4 <__kernel_rem_pio2+0x378>
 80056da:	4626      	mov	r6, r4
 80056dc:	e6bf      	b.n	800545e <__kernel_rem_pio2+0xf2>
 80056de:	2401      	movs	r4, #1
 80056e0:	9b0b      	ldr	r3, [sp, #44]	; 0x2c
 80056e2:	e7ec      	b.n	80056be <__kernel_rem_pio2+0x352>
 80056e4:	9b0a      	ldr	r3, [sp, #40]	; 0x28
 80056e6:	f04f 0900 	mov.w	r9, #0
 80056ea:	f853 0028 	ldr.w	r0, [r3, r8, lsl #2]
 80056ee:	f7fa fe81 	bl	80003f4 <__aeabi_i2d>
 80056f2:	2600      	movs	r6, #0
 80056f4:	2700      	movs	r7, #0
 80056f6:	9b09      	ldr	r3, [sp, #36]	; 0x24
 80056f8:	e9c5 0100 	strd	r0, r1, [r5]
 80056fc:	3b08      	subs	r3, #8
 80056fe:	9300      	str	r3, [sp, #0]
 8005700:	9504      	str	r5, [sp, #16]
 8005702:	9b07      	ldr	r3, [sp, #28]
 8005704:	4599      	cmp	r9, r3
 8005706:	dd05      	ble.n	8005714 <__kernel_rem_pio2+0x3a8>
 8005708:	e9ea 6702 	strd	r6, r7, [sl, #8]!
 800570c:	f108 0801 	add.w	r8, r8, #1
 8005710:	3508      	adds	r5, #8
 8005712:	e7e0      	b.n	80056d6 <__kernel_rem_pio2+0x36a>
 8005714:	f8dd c010 	ldr.w	ip, [sp, #16]
 8005718:	9900      	ldr	r1, [sp, #0]
 800571a:	f109 0901 	add.w	r9, r9, #1
 800571e:	e9f1 2302 	ldrd	r2, r3, [r1, #8]!
 8005722:	9100      	str	r1, [sp, #0]
 8005724:	e87c 0102 	ldrd	r0, r1, [ip], #-8
 8005728:	f8cd c010 	str.w	ip, [sp, #16]
 800572c:	f7fa fecc 	bl	80004c8 <__aeabi_dmul>
 8005730:	4602      	mov	r2, r0
 8005732:	460b      	mov	r3, r1
 8005734:	4630      	mov	r0, r6
 8005736:	4639      	mov	r1, r7
 8005738:	f7fa fd10 	bl	800015c <__adddf3>
 800573c:	4606      	mov	r6, r0
 800573e:	460f      	mov	r7, r1
 8005740:	e7df      	b.n	8005702 <__kernel_rem_pio2+0x396>
 8005742:	3c01      	subs	r4, #1
 8005744:	e756      	b.n	80055f4 <__kernel_rem_pio2+0x288>
 8005746:	f1cb 0200 	rsb	r2, fp, #0
 800574a:	4640      	mov	r0, r8
 800574c:	4649      	mov	r1, r9
 800574e:	f000 fc17 	bl	8005f80 <scalbn>
 8005752:	2200      	movs	r2, #0
 8005754:	4ba4      	ldr	r3, [pc, #656]	; (80059e8 <__kernel_rem_pio2+0x67c>)
 8005756:	4604      	mov	r4, r0
 8005758:	460d      	mov	r5, r1
 800575a:	f7fb f93b 	bl	80009d4 <__aeabi_dcmpge>
 800575e:	b1f8      	cbz	r0, 80057a0 <__kernel_rem_pio2+0x434>
 8005760:	2200      	movs	r2, #0
 8005762:	4ba2      	ldr	r3, [pc, #648]	; (80059ec <__kernel_rem_pio2+0x680>)
 8005764:	4620      	mov	r0, r4
 8005766:	4629      	mov	r1, r5
 8005768:	f7fa feae 	bl	80004c8 <__aeabi_dmul>
 800576c:	f7fb f95c 	bl	8000a28 <__aeabi_d2iz>
 8005770:	4607      	mov	r7, r0
 8005772:	f7fa fe3f 	bl	80003f4 <__aeabi_i2d>
 8005776:	2200      	movs	r2, #0
 8005778:	4b9b      	ldr	r3, [pc, #620]	; (80059e8 <__kernel_rem_pio2+0x67c>)
 800577a:	f7fa fea5 	bl	80004c8 <__aeabi_dmul>
 800577e:	460b      	mov	r3, r1
 8005780:	4602      	mov	r2, r0
 8005782:	4629      	mov	r1, r5
 8005784:	4620      	mov	r0, r4
 8005786:	f7fa fce7 	bl	8000158 <__aeabi_dsub>
 800578a:	f7fb f94d 	bl	8000a28 <__aeabi_d2iz>
 800578e:	1c74      	adds	r4, r6, #1
 8005790:	ab0c      	add	r3, sp, #48	; 0x30
 8005792:	f843 0026 	str.w	r0, [r3, r6, lsl #2]
 8005796:	f10b 0b18 	add.w	fp, fp, #24
 800579a:	f843 7024 	str.w	r7, [r3, r4, lsl #2]
 800579e:	e731      	b.n	8005604 <__kernel_rem_pio2+0x298>
 80057a0:	4620      	mov	r0, r4
 80057a2:	4629      	mov	r1, r5
 80057a4:	f7fb f940 	bl	8000a28 <__aeabi_d2iz>
 80057a8:	ab0c      	add	r3, sp, #48	; 0x30
 80057aa:	4634      	mov	r4, r6
 80057ac:	f843 0026 	str.w	r0, [r3, r6, lsl #2]
 80057b0:	e728      	b.n	8005604 <__kernel_rem_pio2+0x298>
 80057b2:	ab0c      	add	r3, sp, #48	; 0x30
 80057b4:	f853 002a 	ldr.w	r0, [r3, sl, lsl #2]
 80057b8:	f7fa fe1c 	bl	80003f4 <__aeabi_i2d>
 80057bc:	4632      	mov	r2, r6
 80057be:	463b      	mov	r3, r7
 80057c0:	f7fa fe82 	bl	80004c8 <__aeabi_dmul>
 80057c4:	4642      	mov	r2, r8
 80057c6:	e86b 0102 	strd	r0, r1, [fp], #-8
 80057ca:	464b      	mov	r3, r9
 80057cc:	4630      	mov	r0, r6
 80057ce:	4639      	mov	r1, r7
 80057d0:	f7fa fe7a 	bl	80004c8 <__aeabi_dmul>
 80057d4:	f10a 3aff 	add.w	sl, sl, #4294967295
 80057d8:	4606      	mov	r6, r0
 80057da:	460f      	mov	r7, r1
 80057dc:	e722      	b.n	8005624 <__kernel_rem_pio2+0x2b8>
 80057de:	f8dd c01c 	ldr.w	ip, [sp, #28]
 80057e2:	e8f9 2302 	ldrd	r2, r3, [r9], #8
 80057e6:	e8fc 0102 	ldrd	r0, r1, [ip], #8
 80057ea:	f8cd c01c 	str.w	ip, [sp, #28]
 80057ee:	f7fa fe6b 	bl	80004c8 <__aeabi_dmul>
 80057f2:	4602      	mov	r2, r0
 80057f4:	460b      	mov	r3, r1
 80057f6:	4650      	mov	r0, sl
 80057f8:	4659      	mov	r1, fp
 80057fa:	f7fa fcaf 	bl	800015c <__adddf3>
 80057fe:	4682      	mov	sl, r0
 8005800:	468b      	mov	fp, r1
 8005802:	f108 0801 	add.w	r8, r8, #1
 8005806:	9b02      	ldr	r3, [sp, #8]
 8005808:	4598      	cmp	r8, r3
 800580a:	dc01      	bgt.n	8005810 <__kernel_rem_pio2+0x4a4>
 800580c:	45b8      	cmp	r8, r7
 800580e:	dde6      	ble.n	80057de <__kernel_rem_pio2+0x472>
 8005810:	ab48      	add	r3, sp, #288	; 0x120
 8005812:	eb03 07c7 	add.w	r7, r3, r7, lsl #3
 8005816:	e9c7 ab00 	strd	sl, fp, [r7]
 800581a:	3e01      	subs	r6, #1
 800581c:	e707      	b.n	800562e <__kernel_rem_pio2+0x2c2>
 800581e:	9ba2      	ldr	r3, [sp, #648]	; 0x288
 8005820:	2b02      	cmp	r3, #2
 8005822:	dc09      	bgt.n	8005838 <__kernel_rem_pio2+0x4cc>
 8005824:	2b00      	cmp	r3, #0
 8005826:	dc32      	bgt.n	800588e <__kernel_rem_pio2+0x522>
 8005828:	d05a      	beq.n	80058e0 <__kernel_rem_pio2+0x574>
 800582a:	9b04      	ldr	r3, [sp, #16]
 800582c:	f003 0007 	and.w	r0, r3, #7
 8005830:	f50d 7d19 	add.w	sp, sp, #612	; 0x264
 8005834:	e8bd 8ff0 	ldmia.w	sp!, {r4, r5, r6, r7, r8, r9, sl, fp, pc}
 8005838:	9ba2      	ldr	r3, [sp, #648]	; 0x288
 800583a:	2b03      	cmp	r3, #3
 800583c:	d1f5      	bne.n	800582a <__kernel_rem_pio2+0x4be>
 800583e:	ab48      	add	r3, sp, #288	; 0x120
 8005840:	441d      	add	r5, r3
 8005842:	46aa      	mov	sl, r5
 8005844:	46a3      	mov	fp, r4
 8005846:	f1bb 0f00 	cmp.w	fp, #0
 800584a:	dc76      	bgt.n	800593a <__kernel_rem_pio2+0x5ce>
 800584c:	46aa      	mov	sl, r5
 800584e:	46a3      	mov	fp, r4
 8005850:	f1bb 0f01 	cmp.w	fp, #1
 8005854:	f300 8090 	bgt.w	8005978 <__kernel_rem_pio2+0x60c>
 8005858:	2700      	movs	r7, #0
 800585a:	463e      	mov	r6, r7
 800585c:	2c01      	cmp	r4, #1
 800585e:	f300 80aa 	bgt.w	80059b6 <__kernel_rem_pio2+0x64a>
 8005862:	e9dd 5048 	ldrd	r5, r0, [sp, #288]	; 0x120
 8005866:	e9dd 414a 	ldrd	r4, r1, [sp, #296]	; 0x128
 800586a:	9b00      	ldr	r3, [sp, #0]
 800586c:	2b00      	cmp	r3, #0
 800586e:	f040 80ac 	bne.w	80059ca <__kernel_rem_pio2+0x65e>
 8005872:	4603      	mov	r3, r0
 8005874:	462a      	mov	r2, r5
 8005876:	9806      	ldr	r0, [sp, #24]
 8005878:	e9c0 2300 	strd	r2, r3, [r0]
 800587c:	4622      	mov	r2, r4
 800587e:	460b      	mov	r3, r1
 8005880:	e9c0 2302 	strd	r2, r3, [r0, #8]
 8005884:	463a      	mov	r2, r7
 8005886:	4633      	mov	r3, r6
 8005888:	e9c0 2304 	strd	r2, r3, [r0, #16]
 800588c:	e7cd      	b.n	800582a <__kernel_rem_pio2+0x4be>
 800588e:	2000      	movs	r0, #0
 8005890:	46a0      	mov	r8, r4
 8005892:	4601      	mov	r1, r0
 8005894:	ab48      	add	r3, sp, #288	; 0x120
 8005896:	441d      	add	r5, r3
 8005898:	f1b8 0f00 	cmp.w	r8, #0
 800589c:	da3a      	bge.n	8005914 <__kernel_rem_pio2+0x5a8>
 800589e:	9b00      	ldr	r3, [sp, #0]
 80058a0:	2b00      	cmp	r3, #0
 80058a2:	d03e      	beq.n	8005922 <__kernel_rem_pio2+0x5b6>
 80058a4:	f101 4500 	add.w	r5, r1, #2147483648	; 0x80000000
 80058a8:	4602      	mov	r2, r0
 80058aa:	462b      	mov	r3, r5
 80058ac:	9d06      	ldr	r5, [sp, #24]
 80058ae:	2601      	movs	r6, #1
 80058b0:	e9c5 2300 	strd	r2, r3, [r5]
 80058b4:	460b      	mov	r3, r1
 80058b6:	e9dd 0148 	ldrd	r0, r1, [sp, #288]	; 0x120
 80058ba:	f7fa fc4d 	bl	8000158 <__aeabi_dsub>
 80058be:	4684      	mov	ip, r0
 80058c0:	460f      	mov	r7, r1
 80058c2:	ad48      	add	r5, sp, #288	; 0x120
 80058c4:	42b4      	cmp	r4, r6
 80058c6:	f105 0508 	add.w	r5, r5, #8
 80058ca:	da2c      	bge.n	8005926 <__kernel_rem_pio2+0x5ba>
 80058cc:	9b00      	ldr	r3, [sp, #0]
 80058ce:	b10b      	cbz	r3, 80058d4 <__kernel_rem_pio2+0x568>
 80058d0:	f107 4700 	add.w	r7, r7, #2147483648	; 0x80000000
 80058d4:	4662      	mov	r2, ip
 80058d6:	463b      	mov	r3, r7
 80058d8:	9906      	ldr	r1, [sp, #24]
 80058da:	e9c1 2302 	strd	r2, r3, [r1, #8]
 80058de:	e7a4      	b.n	800582a <__kernel_rem_pio2+0x4be>
 80058e0:	9ea2      	ldr	r6, [sp, #648]	; 0x288
 80058e2:	ab48      	add	r3, sp, #288	; 0x120
 80058e4:	4637      	mov	r7, r6
 80058e6:	441d      	add	r5, r3
 80058e8:	2c00      	cmp	r4, #0
 80058ea:	da09      	bge.n	8005900 <__kernel_rem_pio2+0x594>
 80058ec:	9b00      	ldr	r3, [sp, #0]
 80058ee:	b10b      	cbz	r3, 80058f4 <__kernel_rem_pio2+0x588>
 80058f0:	f107 4700 	add.w	r7, r7, #2147483648	; 0x80000000
 80058f4:	4632      	mov	r2, r6
 80058f6:	463b      	mov	r3, r7
 80058f8:	9906      	ldr	r1, [sp, #24]
 80058fa:	e9c1 2300 	strd	r2, r3, [r1]
 80058fe:	e794      	b.n	800582a <__kernel_rem_pio2+0x4be>
 8005900:	4630      	mov	r0, r6
 8005902:	e875 2302 	ldrd	r2, r3, [r5], #-8
 8005906:	4639      	mov	r1, r7
 8005908:	f7fa fc28 	bl	800015c <__adddf3>
 800590c:	3c01      	subs	r4, #1
 800590e:	4606      	mov	r6, r0
 8005910:	460f      	mov	r7, r1
 8005912:	e7e9      	b.n	80058e8 <__kernel_rem_pio2+0x57c>
 8005914:	e875 2302 	ldrd	r2, r3, [r5], #-8
 8005918:	f7fa fc20 	bl	800015c <__adddf3>
 800591c:	f108 38ff 	add.w	r8, r8, #4294967295
 8005920:	e7ba      	b.n	8005898 <__kernel_rem_pio2+0x52c>
 8005922:	460d      	mov	r5, r1
 8005924:	e7c0      	b.n	80058a8 <__kernel_rem_pio2+0x53c>
 8005926:	4660      	mov	r0, ip
 8005928:	e9d5 2300 	ldrd	r2, r3, [r5]
 800592c:	4639      	mov	r1, r7
 800592e:	f7fa fc15 	bl	800015c <__adddf3>
 8005932:	3601      	adds	r6, #1
 8005934:	4684      	mov	ip, r0
 8005936:	460f      	mov	r7, r1
 8005938:	e7c4      	b.n	80058c4 <__kernel_rem_pio2+0x558>
 800593a:	e9da 6700 	ldrd	r6, r7, [sl]
 800593e:	e95a 8902 	ldrd	r8, r9, [sl, #-8]
 8005942:	4632      	mov	r2, r6
 8005944:	463b      	mov	r3, r7
 8005946:	4640      	mov	r0, r8
 8005948:	4649      	mov	r1, r9
 800594a:	f7fa fc07 	bl	800015c <__adddf3>
 800594e:	4602      	mov	r2, r0
 8005950:	460b      	mov	r3, r1
 8005952:	e9cd 0102 	strd	r0, r1, [sp, #8]
 8005956:	4640      	mov	r0, r8
 8005958:	4649      	mov	r1, r9
 800595a:	f7fa fbfd 	bl	8000158 <__aeabi_dsub>
 800595e:	4632      	mov	r2, r6
 8005960:	463b      	mov	r3, r7
 8005962:	f7fa fbfb 	bl	800015c <__adddf3>
 8005966:	e9dd 2302 	ldrd	r2, r3, [sp, #8]
 800596a:	e86a 0102 	strd	r0, r1, [sl], #-8
 800596e:	f10b 3bff 	add.w	fp, fp, #4294967295
 8005972:	e9ca 2300 	strd	r2, r3, [sl]
 8005976:	e766      	b.n	8005846 <__kernel_rem_pio2+0x4da>
 8005978:	e9da 8900 	ldrd	r8, r9, [sl]
 800597c:	e95a 6702 	ldrd	r6, r7, [sl, #-8]
 8005980:	4642      	mov	r2, r8
 8005982:	464b      	mov	r3, r9
 8005984:	4630      	mov	r0, r6
 8005986:	4639      	mov	r1, r7
 8005988:	f7fa fbe8 	bl	800015c <__adddf3>
 800598c:	4602      	mov	r2, r0
 800598e:	460b      	mov	r3, r1
 8005990:	e9cd 0102 	strd	r0, r1, [sp, #8]
 8005994:	4630      	mov	r0, r6
 8005996:	4639      	mov	r1, r7
 8005998:	f7fa fbde 	bl	8000158 <__aeabi_dsub>
 800599c:	4642      	mov	r2, r8
 800599e:	464b      	mov	r3, r9
 80059a0:	f7fa fbdc 	bl	800015c <__adddf3>
 80059a4:	e9dd 2302 	ldrd	r2, r3, [sp, #8]
 80059a8:	e86a 0102 	strd	r0, r1, [sl], #-8
 80059ac:	f10b 3bff 	add.w	fp, fp, #4294967295
 80059b0:	e9ca 2300 	strd	r2, r3, [sl]
 80059b4:	e74c      	b.n	8005850 <__kernel_rem_pio2+0x4e4>
 80059b6:	4638      	mov	r0, r7
 80059b8:	e875 2302 	ldrd	r2, r3, [r5], #-8
 80059bc:	4631      	mov	r1, r6
 80059be:	f7fa fbcd 	bl	800015c <__adddf3>
 80059c2:	3c01      	subs	r4, #1
 80059c4:	4607      	mov	r7, r0
 80059c6:	460e      	mov	r6, r1
 80059c8:	e748      	b.n	800585c <__kernel_rem_pio2+0x4f0>
 80059ca:	9b06      	ldr	r3, [sp, #24]
 80059cc:	f100 4000 	add.w	r0, r0, #2147483648	; 0x80000000
 80059d0:	f101 4100 	add.w	r1, r1, #2147483648	; 0x80000000
 80059d4:	f106 4600 	add.w	r6, r6, #2147483648	; 0x80000000
 80059d8:	e9c3 0401 	strd	r0, r4, [r3, #4]
 80059dc:	e9c3 1703 	strd	r1, r7, [r3, #12]
 80059e0:	601d      	str	r5, [r3, #0]
 80059e2:	615e      	str	r6, [r3, #20]
 80059e4:	e721      	b.n	800582a <__kernel_rem_pio2+0x4be>
 80059e6:	bf00      	nop
 80059e8:	41700000 	.word	0x41700000
 80059ec:	3e700000 	.word	0x3e700000

080059f0 <__kernel_sin>:
 80059f0:	e92d 47f0 	stmdb	sp!, {r4, r5, r6, r7, r8, r9, sl, lr}
 80059f4:	b086      	sub	sp, #24
 80059f6:	e9cd 2300 	strd	r2, r3, [sp]
 80059fa:	f021 4300 	bic.w	r3, r1, #2147483648	; 0x80000000
 80059fe:	f1b3 5f79 	cmp.w	r3, #1044381696	; 0x3e400000
 8005a02:	4682      	mov	sl, r0
 8005a04:	460c      	mov	r4, r1
 8005a06:	9d0e      	ldr	r5, [sp, #56]	; 0x38
 8005a08:	da03      	bge.n	8005a12 <__kernel_sin+0x22>
 8005a0a:	f7fb f80d 	bl	8000a28 <__aeabi_d2iz>
 8005a0e:	2800      	cmp	r0, #0
 8005a10:	d050      	beq.n	8005ab4 <__kernel_sin+0xc4>
 8005a12:	4652      	mov	r2, sl
 8005a14:	4623      	mov	r3, r4
 8005a16:	4650      	mov	r0, sl
 8005a18:	4621      	mov	r1, r4
 8005a1a:	f7fa fd55 	bl	80004c8 <__aeabi_dmul>
 8005a1e:	4606      	mov	r6, r0
 8005a20:	460f      	mov	r7, r1
 8005a22:	4602      	mov	r2, r0
 8005a24:	460b      	mov	r3, r1
 8005a26:	4650      	mov	r0, sl
 8005a28:	4621      	mov	r1, r4
 8005a2a:	f7fa fd4d 	bl	80004c8 <__aeabi_dmul>
 8005a2e:	a33e      	add	r3, pc, #248	; (adr r3, 8005b28 <__kernel_sin+0x138>)
 8005a30:	e9d3 2300 	ldrd	r2, r3, [r3]
 8005a34:	4680      	mov	r8, r0
 8005a36:	4689      	mov	r9, r1
 8005a38:	4630      	mov	r0, r6
 8005a3a:	4639      	mov	r1, r7
 8005a3c:	f7fa fd44 	bl	80004c8 <__aeabi_dmul>
 8005a40:	a33b      	add	r3, pc, #236	; (adr r3, 8005b30 <__kernel_sin+0x140>)
 8005a42:	e9d3 2300 	ldrd	r2, r3, [r3]
 8005a46:	f7fa fb87 	bl	8000158 <__aeabi_dsub>
 8005a4a:	4632      	mov	r2, r6
 8005a4c:	463b      	mov	r3, r7
 8005a4e:	f7fa fd3b 	bl	80004c8 <__aeabi_dmul>
 8005a52:	a339      	add	r3, pc, #228	; (adr r3, 8005b38 <__kernel_sin+0x148>)
 8005a54:	e9d3 2300 	ldrd	r2, r3, [r3]
 8005a58:	f7fa fb80 	bl	800015c <__adddf3>
 8005a5c:	4632      	mov	r2, r6
 8005a5e:	463b      	mov	r3, r7
 8005a60:	f7fa fd32 	bl	80004c8 <__aeabi_dmul>
 8005a64:	a336      	add	r3, pc, #216	; (adr r3, 8005b40 <__kernel_sin+0x150>)
 8005a66:	e9d3 2300 	ldrd	r2, r3, [r3]
 8005a6a:	f7fa fb75 	bl	8000158 <__aeabi_dsub>
 8005a6e:	4632      	mov	r2, r6
 8005a70:	463b      	mov	r3, r7
 8005a72:	f7fa fd29 	bl	80004c8 <__aeabi_dmul>
 8005a76:	a334      	add	r3, pc, #208	; (adr r3, 8005b48 <__kernel_sin+0x158>)
 8005a78:	e9d3 2300 	ldrd	r2, r3, [r3]
 8005a7c:	f7fa fb6e 	bl	800015c <__adddf3>
 8005a80:	e9cd 0102 	strd	r0, r1, [sp, #8]
 8005a84:	b9dd      	cbnz	r5, 8005abe <__kernel_sin+0xce>
 8005a86:	4602      	mov	r2, r0
 8005a88:	460b      	mov	r3, r1
 8005a8a:	4630      	mov	r0, r6
 8005a8c:	4639      	mov	r1, r7
 8005a8e:	f7fa fd1b 	bl	80004c8 <__aeabi_dmul>
 8005a92:	a32f      	add	r3, pc, #188	; (adr r3, 8005b50 <__kernel_sin+0x160>)
 8005a94:	e9d3 2300 	ldrd	r2, r3, [r3]
 8005a98:	f7fa fb5e 	bl	8000158 <__aeabi_dsub>
 8005a9c:	4642      	mov	r2, r8
 8005a9e:	464b      	mov	r3, r9
 8005aa0:	f7fa fd12 	bl	80004c8 <__aeabi_dmul>
 8005aa4:	4602      	mov	r2, r0
 8005aa6:	460b      	mov	r3, r1
 8005aa8:	4650      	mov	r0, sl
 8005aaa:	4621      	mov	r1, r4
 8005aac:	f7fa fb56 	bl	800015c <__adddf3>
 8005ab0:	4682      	mov	sl, r0
 8005ab2:	460c      	mov	r4, r1
 8005ab4:	4650      	mov	r0, sl
 8005ab6:	4621      	mov	r1, r4
 8005ab8:	b006      	add	sp, #24
 8005aba:	e8bd 87f0 	ldmia.w	sp!, {r4, r5, r6, r7, r8, r9, sl, pc}
 8005abe:	2200      	movs	r2, #0
 8005ac0:	e9dd 0100 	ldrd	r0, r1, [sp]
 8005ac4:	4b24      	ldr	r3, [pc, #144]	; (8005b58 <__kernel_sin+0x168>)
 8005ac6:	f7fa fcff 	bl	80004c8 <__aeabi_dmul>
 8005aca:	e9dd 2302 	ldrd	r2, r3, [sp, #8]
 8005ace:	e9cd 0104 	strd	r0, r1, [sp, #16]
 8005ad2:	4640      	mov	r0, r8
 8005ad4:	4649      	mov	r1, r9
 8005ad6:	f7fa fcf7 	bl	80004c8 <__aeabi_dmul>
 8005ada:	4602      	mov	r2, r0
 8005adc:	460b      	mov	r3, r1
 8005ade:	e9dd 0104 	ldrd	r0, r1, [sp, #16]
 8005ae2:	f7fa fb39 	bl	8000158 <__aeabi_dsub>
 8005ae6:	4632      	mov	r2, r6
 8005ae8:	463b      	mov	r3, r7
 8005aea:	f7fa fced 	bl	80004c8 <__aeabi_dmul>
 8005aee:	e9dd 2300 	ldrd	r2, r3, [sp]
 8005af2:	f7fa fb31 	bl	8000158 <__aeabi_dsub>
 8005af6:	a316      	add	r3, pc, #88	; (adr r3, 8005b50 <__kernel_sin+0x160>)
 8005af8:	e9d3 2300 	ldrd	r2, r3, [r3]
 8005afc:	4606      	mov	r6, r0
 8005afe:	460f      	mov	r7, r1
 8005b00:	4640      	mov	r0, r8
 8005b02:	4649      	mov	r1, r9
 8005b04:	f7fa fce0 	bl	80004c8 <__aeabi_dmul>
 8005b08:	4602      	mov	r2, r0
 8005b0a:	460b      	mov	r3, r1
 8005b0c:	4630      	mov	r0, r6
 8005b0e:	4639      	mov	r1, r7
 8005b10:	f7fa fb24 	bl	800015c <__adddf3>
 8005b14:	4602      	mov	r2, r0
 8005b16:	460b      	mov	r3, r1
 8005b18:	4650      	mov	r0, sl
 8005b1a:	4621      	mov	r1, r4
 8005b1c:	f7fa fb1c 	bl	8000158 <__aeabi_dsub>
 8005b20:	e7c6      	b.n	8005ab0 <__kernel_sin+0xc0>
 8005b22:	bf00      	nop
 8005b24:	f3af 8000 	nop.w
 8005b28:	5acfd57c 	.word	0x5acfd57c
 8005b2c:	3de5d93a 	.word	0x3de5d93a
 8005b30:	8a2b9ceb 	.word	0x8a2b9ceb
 8005b34:	3e5ae5e6 	.word	0x3e5ae5e6
 8005b38:	57b1fe7d 	.word	0x57b1fe7d
 8005b3c:	3ec71de3 	.word	0x3ec71de3
 8005b40:	19c161d5 	.word	0x19c161d5
 8005b44:	3f2a01a0 	.word	0x3f2a01a0
 8005b48:	1110f8a6 	.word	0x1110f8a6
 8005b4c:	3f811111 	.word	0x3f811111
 8005b50:	55555549 	.word	0x55555549
 8005b54:	3fc55555 	.word	0x3fc55555
 8005b58:	3fe00000 	.word	0x3fe00000
 8005b5c:	00000000 	.word	0x00000000

08005b60 <atan>:
 8005b60:	e92d 4ff8 	stmdb	sp!, {r3, r4, r5, r6, r7, r8, r9, sl, fp, lr}
 8005b64:	4bb6      	ldr	r3, [pc, #728]	; (8005e40 <atan+0x2e0>)
 8005b66:	f021 4600 	bic.w	r6, r1, #2147483648	; 0x80000000
 8005b6a:	429e      	cmp	r6, r3
 8005b6c:	4604      	mov	r4, r0
 8005b6e:	460d      	mov	r5, r1
 8005b70:	468b      	mov	fp, r1
 8005b72:	dd17      	ble.n	8005ba4 <atan+0x44>
 8005b74:	4bb3      	ldr	r3, [pc, #716]	; (8005e44 <atan+0x2e4>)
 8005b76:	429e      	cmp	r6, r3
 8005b78:	dc01      	bgt.n	8005b7e <atan+0x1e>
 8005b7a:	d109      	bne.n	8005b90 <atan+0x30>
 8005b7c:	b140      	cbz	r0, 8005b90 <atan+0x30>
 8005b7e:	4622      	mov	r2, r4
 8005b80:	462b      	mov	r3, r5
 8005b82:	4620      	mov	r0, r4
 8005b84:	4629      	mov	r1, r5
 8005b86:	f7fa fae9 	bl	800015c <__adddf3>
 8005b8a:	4604      	mov	r4, r0
 8005b8c:	460d      	mov	r5, r1
 8005b8e:	e005      	b.n	8005b9c <atan+0x3c>
 8005b90:	f1bb 0f00 	cmp.w	fp, #0
 8005b94:	4cac      	ldr	r4, [pc, #688]	; (8005e48 <atan+0x2e8>)
 8005b96:	f300 8121 	bgt.w	8005ddc <atan+0x27c>
 8005b9a:	4dac      	ldr	r5, [pc, #688]	; (8005e4c <atan+0x2ec>)
 8005b9c:	4620      	mov	r0, r4
 8005b9e:	4629      	mov	r1, r5
 8005ba0:	e8bd 8ff8 	ldmia.w	sp!, {r3, r4, r5, r6, r7, r8, r9, sl, fp, pc}
 8005ba4:	4baa      	ldr	r3, [pc, #680]	; (8005e50 <atan+0x2f0>)
 8005ba6:	429e      	cmp	r6, r3
 8005ba8:	dc11      	bgt.n	8005bce <atan+0x6e>
 8005baa:	f1a3 73de 	sub.w	r3, r3, #29097984	; 0x1bc0000
 8005bae:	429e      	cmp	r6, r3
 8005bb0:	dc0a      	bgt.n	8005bc8 <atan+0x68>
 8005bb2:	a38b      	add	r3, pc, #556	; (adr r3, 8005de0 <atan+0x280>)
 8005bb4:	e9d3 2300 	ldrd	r2, r3, [r3]
 8005bb8:	f7fa fad0 	bl	800015c <__adddf3>
 8005bbc:	2200      	movs	r2, #0
 8005bbe:	4ba5      	ldr	r3, [pc, #660]	; (8005e54 <atan+0x2f4>)
 8005bc0:	f7fa ff12 	bl	80009e8 <__aeabi_dcmpgt>
 8005bc4:	2800      	cmp	r0, #0
 8005bc6:	d1e9      	bne.n	8005b9c <atan+0x3c>
 8005bc8:	f04f 3aff 	mov.w	sl, #4294967295
 8005bcc:	e027      	b.n	8005c1e <atan+0xbe>
 8005bce:	f000 f951 	bl	8005e74 <fabs>
 8005bd2:	4ba1      	ldr	r3, [pc, #644]	; (8005e58 <atan+0x2f8>)
 8005bd4:	4604      	mov	r4, r0
 8005bd6:	429e      	cmp	r6, r3
 8005bd8:	460d      	mov	r5, r1
 8005bda:	f300 80b8 	bgt.w	8005d4e <atan+0x1ee>
 8005bde:	f5a3 2350 	sub.w	r3, r3, #851968	; 0xd0000
 8005be2:	429e      	cmp	r6, r3
 8005be4:	f300 809c 	bgt.w	8005d20 <atan+0x1c0>
 8005be8:	4602      	mov	r2, r0
 8005bea:	460b      	mov	r3, r1
 8005bec:	f7fa fab6 	bl	800015c <__adddf3>
 8005bf0:	2200      	movs	r2, #0
 8005bf2:	4b98      	ldr	r3, [pc, #608]	; (8005e54 <atan+0x2f4>)
 8005bf4:	f7fa fab0 	bl	8000158 <__aeabi_dsub>
 8005bf8:	2200      	movs	r2, #0
 8005bfa:	4606      	mov	r6, r0
 8005bfc:	460f      	mov	r7, r1
 8005bfe:	f04f 4380 	mov.w	r3, #1073741824	; 0x40000000
 8005c02:	4620      	mov	r0, r4
 8005c04:	4629      	mov	r1, r5
 8005c06:	f7fa faa9 	bl	800015c <__adddf3>
 8005c0a:	4602      	mov	r2, r0
 8005c0c:	460b      	mov	r3, r1
 8005c0e:	4630      	mov	r0, r6
 8005c10:	4639      	mov	r1, r7
 8005c12:	f7fa fd83 	bl	800071c <__aeabi_ddiv>
 8005c16:	f04f 0a00 	mov.w	sl, #0
 8005c1a:	4604      	mov	r4, r0
 8005c1c:	460d      	mov	r5, r1
 8005c1e:	4622      	mov	r2, r4
 8005c20:	462b      	mov	r3, r5
 8005c22:	4620      	mov	r0, r4
 8005c24:	4629      	mov	r1, r5
 8005c26:	f7fa fc4f 	bl	80004c8 <__aeabi_dmul>
 8005c2a:	4602      	mov	r2, r0
 8005c2c:	460b      	mov	r3, r1
 8005c2e:	4680      	mov	r8, r0
 8005c30:	4689      	mov	r9, r1
 8005c32:	f7fa fc49 	bl	80004c8 <__aeabi_dmul>
 8005c36:	a36c      	add	r3, pc, #432	; (adr r3, 8005de8 <atan+0x288>)
 8005c38:	e9d3 2300 	ldrd	r2, r3, [r3]
 8005c3c:	4606      	mov	r6, r0
 8005c3e:	460f      	mov	r7, r1
 8005c40:	f7fa fc42 	bl	80004c8 <__aeabi_dmul>
 8005c44:	a36a      	add	r3, pc, #424	; (adr r3, 8005df0 <atan+0x290>)
 8005c46:	e9d3 2300 	ldrd	r2, r3, [r3]
 8005c4a:	f7fa fa87 	bl	800015c <__adddf3>
 8005c4e:	4632      	mov	r2, r6
 8005c50:	463b      	mov	r3, r7
 8005c52:	f7fa fc39 	bl	80004c8 <__aeabi_dmul>
 8005c56:	a368      	add	r3, pc, #416	; (adr r3, 8005df8 <atan+0x298>)
 8005c58:	e9d3 2300 	ldrd	r2, r3, [r3]
 8005c5c:	f7fa fa7e 	bl	800015c <__adddf3>
 8005c60:	4632      	mov	r2, r6
 8005c62:	463b      	mov	r3, r7
 8005c64:	f7fa fc30 	bl	80004c8 <__aeabi_dmul>
 8005c68:	a365      	add	r3, pc, #404	; (adr r3, 8005e00 <atan+0x2a0>)
 8005c6a:	e9d3 2300 	ldrd	r2, r3, [r3]
 8005c6e:	f7fa fa75 	bl	800015c <__adddf3>
 8005c72:	4632      	mov	r2, r6
 8005c74:	463b      	mov	r3, r7
 8005c76:	f7fa fc27 	bl	80004c8 <__aeabi_dmul>
 8005c7a:	a363      	add	r3, pc, #396	; (adr r3, 8005e08 <atan+0x2a8>)
 8005c7c:	e9d3 2300 	ldrd	r2, r3, [r3]
 8005c80:	f7fa fa6c 	bl	800015c <__adddf3>
 8005c84:	4632      	mov	r2, r6
 8005c86:	463b      	mov	r3, r7
 8005c88:	f7fa fc1e 	bl	80004c8 <__aeabi_dmul>
 8005c8c:	a360      	add	r3, pc, #384	; (adr r3, 8005e10 <atan+0x2b0>)
 8005c8e:	e9d3 2300 	ldrd	r2, r3, [r3]
 8005c92:	f7fa fa63 	bl	800015c <__adddf3>
 8005c96:	4642      	mov	r2, r8
 8005c98:	464b      	mov	r3, r9
 8005c9a:	f7fa fc15 	bl	80004c8 <__aeabi_dmul>
 8005c9e:	a35e      	add	r3, pc, #376	; (adr r3, 8005e18 <atan+0x2b8>)
 8005ca0:	e9d3 2300 	ldrd	r2, r3, [r3]
 8005ca4:	4680      	mov	r8, r0
 8005ca6:	4689      	mov	r9, r1
 8005ca8:	4630      	mov	r0, r6
 8005caa:	4639      	mov	r1, r7
 8005cac:	f7fa fc0c 	bl	80004c8 <__aeabi_dmul>
 8005cb0:	a35b      	add	r3, pc, #364	; (adr r3, 8005e20 <atan+0x2c0>)
 8005cb2:	e9d3 2300 	ldrd	r2, r3, [r3]
 8005cb6:	f7fa fa4f 	bl	8000158 <__aeabi_dsub>
 8005cba:	4632      	mov	r2, r6
 8005cbc:	463b      	mov	r3, r7
 8005cbe:	f7fa fc03 	bl	80004c8 <__aeabi_dmul>
 8005cc2:	a359      	add	r3, pc, #356	; (adr r3, 8005e28 <atan+0x2c8>)
 8005cc4:	e9d3 2300 	ldrd	r2, r3, [r3]
 8005cc8:	f7fa fa46 	bl	8000158 <__aeabi_dsub>
 8005ccc:	4632      	mov	r2, r6
 8005cce:	463b      	mov	r3, r7
 8005cd0:	f7fa fbfa 	bl	80004c8 <__aeabi_dmul>
 8005cd4:	a356      	add	r3, pc, #344	; (adr r3, 8005e30 <atan+0x2d0>)
 8005cd6:	e9d3 2300 	ldrd	r2, r3, [r3]
 8005cda:	f7fa fa3d 	bl	8000158 <__aeabi_dsub>
 8005cde:	4632      	mov	r2, r6
 8005ce0:	463b      	mov	r3, r7
 8005ce2:	f7fa fbf1 	bl	80004c8 <__aeabi_dmul>
 8005ce6:	a354      	add	r3, pc, #336	; (adr r3, 8005e38 <atan+0x2d8>)
 8005ce8:	e9d3 2300 	ldrd	r2, r3, [r3]
 8005cec:	f7fa fa34 	bl	8000158 <__aeabi_dsub>
 8005cf0:	4632      	mov	r2, r6
 8005cf2:	463b      	mov	r3, r7
 8005cf4:	f7fa fbe8 	bl	80004c8 <__aeabi_dmul>
 8005cf8:	4602      	mov	r2, r0
 8005cfa:	460b      	mov	r3, r1
 8005cfc:	4640      	mov	r0, r8
 8005cfe:	4649      	mov	r1, r9
 8005d00:	f7fa fa2c 	bl	800015c <__adddf3>
 8005d04:	4622      	mov	r2, r4
 8005d06:	462b      	mov	r3, r5
 8005d08:	f7fa fbde 	bl	80004c8 <__aeabi_dmul>
 8005d0c:	f1ba 3fff 	cmp.w	sl, #4294967295
 8005d10:	4602      	mov	r2, r0
 8005d12:	460b      	mov	r3, r1
 8005d14:	d144      	bne.n	8005da0 <atan+0x240>
 8005d16:	4620      	mov	r0, r4
 8005d18:	4629      	mov	r1, r5
 8005d1a:	f7fa fa1d 	bl	8000158 <__aeabi_dsub>
 8005d1e:	e734      	b.n	8005b8a <atan+0x2a>
 8005d20:	2200      	movs	r2, #0
 8005d22:	4b4c      	ldr	r3, [pc, #304]	; (8005e54 <atan+0x2f4>)
 8005d24:	f7fa fa18 	bl	8000158 <__aeabi_dsub>
 8005d28:	2200      	movs	r2, #0
 8005d2a:	4606      	mov	r6, r0
 8005d2c:	460f      	mov	r7, r1
 8005d2e:	4620      	mov	r0, r4
 8005d30:	4629      	mov	r1, r5
 8005d32:	4b48      	ldr	r3, [pc, #288]	; (8005e54 <atan+0x2f4>)
 8005d34:	f7fa fa12 	bl	800015c <__adddf3>
 8005d38:	4602      	mov	r2, r0
 8005d3a:	460b      	mov	r3, r1
 8005d3c:	4630      	mov	r0, r6
 8005d3e:	4639      	mov	r1, r7
 8005d40:	f7fa fcec 	bl	800071c <__aeabi_ddiv>
 8005d44:	f04f 0a01 	mov.w	sl, #1
 8005d48:	4604      	mov	r4, r0
 8005d4a:	460d      	mov	r5, r1
 8005d4c:	e767      	b.n	8005c1e <atan+0xbe>
 8005d4e:	4b43      	ldr	r3, [pc, #268]	; (8005e5c <atan+0x2fc>)
 8005d50:	429e      	cmp	r6, r3
 8005d52:	da1a      	bge.n	8005d8a <atan+0x22a>
 8005d54:	2200      	movs	r2, #0
 8005d56:	4b42      	ldr	r3, [pc, #264]	; (8005e60 <atan+0x300>)
 8005d58:	f7fa f9fe 	bl	8000158 <__aeabi_dsub>
 8005d5c:	2200      	movs	r2, #0
 8005d5e:	4606      	mov	r6, r0
 8005d60:	460f      	mov	r7, r1
 8005d62:	4620      	mov	r0, r4
 8005d64:	4629      	mov	r1, r5
 8005d66:	4b3e      	ldr	r3, [pc, #248]	; (8005e60 <atan+0x300>)
 8005d68:	f7fa fbae 	bl	80004c8 <__aeabi_dmul>
 8005d6c:	2200      	movs	r2, #0
 8005d6e:	4b39      	ldr	r3, [pc, #228]	; (8005e54 <atan+0x2f4>)
 8005d70:	f7fa f9f4 	bl	800015c <__adddf3>
 8005d74:	4602      	mov	r2, r0
 8005d76:	460b      	mov	r3, r1
 8005d78:	4630      	mov	r0, r6
 8005d7a:	4639      	mov	r1, r7
 8005d7c:	f7fa fcce 	bl	800071c <__aeabi_ddiv>
 8005d80:	f04f 0a02 	mov.w	sl, #2
 8005d84:	4604      	mov	r4, r0
 8005d86:	460d      	mov	r5, r1
 8005d88:	e749      	b.n	8005c1e <atan+0xbe>
 8005d8a:	4602      	mov	r2, r0
 8005d8c:	460b      	mov	r3, r1
 8005d8e:	2000      	movs	r0, #0
 8005d90:	4934      	ldr	r1, [pc, #208]	; (8005e64 <atan+0x304>)
 8005d92:	f7fa fcc3 	bl	800071c <__aeabi_ddiv>
 8005d96:	f04f 0a03 	mov.w	sl, #3
 8005d9a:	4604      	mov	r4, r0
 8005d9c:	460d      	mov	r5, r1
 8005d9e:	e73e      	b.n	8005c1e <atan+0xbe>
 8005da0:	4b31      	ldr	r3, [pc, #196]	; (8005e68 <atan+0x308>)
 8005da2:	4e32      	ldr	r6, [pc, #200]	; (8005e6c <atan+0x30c>)
 8005da4:	eb06 06ca 	add.w	r6, r6, sl, lsl #3
 8005da8:	eb03 0aca 	add.w	sl, r3, sl, lsl #3
 8005dac:	e9da 2300 	ldrd	r2, r3, [sl]
 8005db0:	f7fa f9d2 	bl	8000158 <__aeabi_dsub>
 8005db4:	4622      	mov	r2, r4
 8005db6:	462b      	mov	r3, r5
 8005db8:	f7fa f9ce 	bl	8000158 <__aeabi_dsub>
 8005dbc:	4602      	mov	r2, r0
 8005dbe:	460b      	mov	r3, r1
 8005dc0:	e9d6 0100 	ldrd	r0, r1, [r6]
 8005dc4:	f7fa f9c8 	bl	8000158 <__aeabi_dsub>
 8005dc8:	f1bb 0f00 	cmp.w	fp, #0
 8005dcc:	4604      	mov	r4, r0
 8005dce:	460d      	mov	r5, r1
 8005dd0:	f6bf aee4 	bge.w	8005b9c <atan+0x3c>
 8005dd4:	f101 4300 	add.w	r3, r1, #2147483648	; 0x80000000
 8005dd8:	461d      	mov	r5, r3
 8005dda:	e6df      	b.n	8005b9c <atan+0x3c>
 8005ddc:	4d24      	ldr	r5, [pc, #144]	; (8005e70 <atan+0x310>)
 8005dde:	e6dd      	b.n	8005b9c <atan+0x3c>
 8005de0:	8800759c 	.word	0x8800759c
 8005de4:	7e37e43c 	.word	0x7e37e43c
 8005de8:	e322da11 	.word	0xe322da11
 8005dec:	3f90ad3a 	.word	0x3f90ad3a
 8005df0:	24760deb 	.word	0x24760deb
 8005df4:	3fa97b4b 	.word	0x3fa97b4b
 8005df8:	a0d03d51 	.word	0xa0d03d51
 8005dfc:	3fb10d66 	.word	0x3fb10d66
 8005e00:	c54c206e 	.word	0xc54c206e
 8005e04:	3fb745cd 	.word	0x3fb745cd
 8005e08:	920083ff 	.word	0x920083ff
 8005e0c:	3fc24924 	.word	0x3fc24924
 8005e10:	5555550d 	.word	0x5555550d
 8005e14:	3fd55555 	.word	0x3fd55555
 8005e18:	2c6a6c2f 	.word	0x2c6a6c2f
 8005e1c:	bfa2b444 	.word	0xbfa2b444
 8005e20:	52defd9a 	.word	0x52defd9a
 8005e24:	3fadde2d 	.word	0x3fadde2d
 8005e28:	af749a6d 	.word	0xaf749a6d
 8005e2c:	3fb3b0f2 	.word	0x3fb3b0f2
 8005e30:	fe231671 	.word	0xfe231671
 8005e34:	3fbc71c6 	.word	0x3fbc71c6
 8005e38:	9998ebc4 	.word	0x9998ebc4
 8005e3c:	3fc99999 	.word	0x3fc99999
 8005e40:	440fffff 	.word	0x440fffff
 8005e44:	7ff00000 	.word	0x7ff00000
 8005e48:	54442d18 	.word	0x54442d18
 8005e4c:	bff921fb 	.word	0xbff921fb
 8005e50:	3fdbffff 	.word	0x3fdbffff
 8005e54:	3ff00000 	.word	0x3ff00000
 8005e58:	3ff2ffff 	.word	0x3ff2ffff
 8005e5c:	40038000 	.word	0x40038000
 8005e60:	3ff80000 	.word	0x3ff80000
 8005e64:	bff00000 	.word	0xbff00000
 8005e68:	08006320 	.word	0x08006320
 8005e6c:	08006300 	.word	0x08006300
 8005e70:	3ff921fb 	.word	0x3ff921fb

08005e74 <fabs>:
 8005e74:	f021 4100 	bic.w	r1, r1, #2147483648	; 0x80000000
 8005e78:	4770      	bx	lr
 8005e7a:	0000      	movs	r0, r0
 8005e7c:	0000      	movs	r0, r0
	...

08005e80 <floor>:
 8005e80:	e92d 43f8 	stmdb	sp!, {r3, r4, r5, r6, r7, r8, r9, lr}
 8005e84:	f3c1 580a 	ubfx	r8, r1, #20, #11
 8005e88:	f2a8 36ff 	subw	r6, r8, #1023	; 0x3ff
 8005e8c:	2e13      	cmp	r6, #19
 8005e8e:	4602      	mov	r2, r0
 8005e90:	460b      	mov	r3, r1
 8005e92:	4607      	mov	r7, r0
 8005e94:	460c      	mov	r4, r1
 8005e96:	4605      	mov	r5, r0
 8005e98:	dc33      	bgt.n	8005f02 <floor+0x82>
 8005e9a:	2e00      	cmp	r6, #0
 8005e9c:	da14      	bge.n	8005ec8 <floor+0x48>
 8005e9e:	a334      	add	r3, pc, #208	; (adr r3, 8005f70 <floor+0xf0>)
 8005ea0:	e9d3 2300 	ldrd	r2, r3, [r3]
 8005ea4:	f7fa f95a 	bl	800015c <__adddf3>
 8005ea8:	2200      	movs	r2, #0
 8005eaa:	2300      	movs	r3, #0
 8005eac:	f7fa fd9c 	bl	80009e8 <__aeabi_dcmpgt>
 8005eb0:	b138      	cbz	r0, 8005ec2 <floor+0x42>
 8005eb2:	2c00      	cmp	r4, #0
 8005eb4:	da58      	bge.n	8005f68 <floor+0xe8>
 8005eb6:	f024 4300 	bic.w	r3, r4, #2147483648	; 0x80000000
 8005eba:	431d      	orrs	r5, r3
 8005ebc:	d001      	beq.n	8005ec2 <floor+0x42>
 8005ebe:	2500      	movs	r5, #0
 8005ec0:	4c2d      	ldr	r4, [pc, #180]	; (8005f78 <floor+0xf8>)
 8005ec2:	4623      	mov	r3, r4
 8005ec4:	462f      	mov	r7, r5
 8005ec6:	e025      	b.n	8005f14 <floor+0x94>
 8005ec8:	4a2c      	ldr	r2, [pc, #176]	; (8005f7c <floor+0xfc>)
 8005eca:	fa42 f806 	asr.w	r8, r2, r6
 8005ece:	ea01 0208 	and.w	r2, r1, r8
 8005ed2:	4302      	orrs	r2, r0
 8005ed4:	d01e      	beq.n	8005f14 <floor+0x94>
 8005ed6:	a326      	add	r3, pc, #152	; (adr r3, 8005f70 <floor+0xf0>)
 8005ed8:	e9d3 2300 	ldrd	r2, r3, [r3]
 8005edc:	f7fa f93e 	bl	800015c <__adddf3>
 8005ee0:	2200      	movs	r2, #0
 8005ee2:	2300      	movs	r3, #0
 8005ee4:	f7fa fd80 	bl	80009e8 <__aeabi_dcmpgt>
 8005ee8:	2800      	cmp	r0, #0
 8005eea:	d0ea      	beq.n	8005ec2 <floor+0x42>
 8005eec:	2c00      	cmp	r4, #0
 8005eee:	bfbe      	ittt	lt
 8005ef0:	f44f 1380 	movlt.w	r3, #1048576	; 0x100000
 8005ef4:	fa43 f606 	asrlt.w	r6, r3, r6
 8005ef8:	19a4      	addlt	r4, r4, r6
 8005efa:	2500      	movs	r5, #0
 8005efc:	ea24 0408 	bic.w	r4, r4, r8
 8005f00:	e7df      	b.n	8005ec2 <floor+0x42>
 8005f02:	2e33      	cmp	r6, #51	; 0x33
 8005f04:	dd0a      	ble.n	8005f1c <floor+0x9c>
 8005f06:	f5b6 6f80 	cmp.w	r6, #1024	; 0x400
 8005f0a:	d103      	bne.n	8005f14 <floor+0x94>
 8005f0c:	f7fa f926 	bl	800015c <__adddf3>
 8005f10:	4607      	mov	r7, r0
 8005f12:	460b      	mov	r3, r1
 8005f14:	4638      	mov	r0, r7
 8005f16:	4619      	mov	r1, r3
 8005f18:	e8bd 83f8 	ldmia.w	sp!, {r3, r4, r5, r6, r7, r8, r9, pc}
 8005f1c:	f04f 32ff 	mov.w	r2, #4294967295
 8005f20:	f2a8 4813 	subw	r8, r8, #1043	; 0x413
 8005f24:	fa22 f808 	lsr.w	r8, r2, r8
 8005f28:	ea18 0f00 	tst.w	r8, r0
 8005f2c:	d0f2      	beq.n	8005f14 <floor+0x94>
 8005f2e:	a310      	add	r3, pc, #64	; (adr r3, 8005f70 <floor+0xf0>)
 8005f30:	e9d3 2300 	ldrd	r2, r3, [r3]
 8005f34:	f7fa f912 	bl	800015c <__adddf3>
 8005f38:	2200      	movs	r2, #0
 8005f3a:	2300      	movs	r3, #0
 8005f3c:	f7fa fd54 	bl	80009e8 <__aeabi_dcmpgt>
 8005f40:	2800      	cmp	r0, #0
 8005f42:	d0be      	beq.n	8005ec2 <floor+0x42>
 8005f44:	2c00      	cmp	r4, #0
 8005f46:	da02      	bge.n	8005f4e <floor+0xce>
 8005f48:	2e14      	cmp	r6, #20
 8005f4a:	d103      	bne.n	8005f54 <floor+0xd4>
 8005f4c:	3401      	adds	r4, #1
 8005f4e:	ea25 0508 	bic.w	r5, r5, r8
 8005f52:	e7b6      	b.n	8005ec2 <floor+0x42>
 8005f54:	2301      	movs	r3, #1
 8005f56:	f1c6 0634 	rsb	r6, r6, #52	; 0x34
 8005f5a:	fa03 f606 	lsl.w	r6, r3, r6
 8005f5e:	4435      	add	r5, r6
 8005f60:	42bd      	cmp	r5, r7
 8005f62:	bf38      	it	cc
 8005f64:	18e4      	addcc	r4, r4, r3
 8005f66:	e7f2      	b.n	8005f4e <floor+0xce>
 8005f68:	2500      	movs	r5, #0
 8005f6a:	462c      	mov	r4, r5
 8005f6c:	e7a9      	b.n	8005ec2 <floor+0x42>
 8005f6e:	bf00      	nop
 8005f70:	8800759c 	.word	0x8800759c
 8005f74:	7e37e43c 	.word	0x7e37e43c
 8005f78:	bff00000 	.word	0xbff00000
 8005f7c:	000fffff 	.word	0x000fffff

08005f80 <scalbn>:
 8005f80:	b5f8      	push	{r3, r4, r5, r6, r7, lr}
 8005f82:	f3c1 560a 	ubfx	r6, r1, #20, #11
 8005f86:	4604      	mov	r4, r0
 8005f88:	460d      	mov	r5, r1
 8005f8a:	4617      	mov	r7, r2
 8005f8c:	460b      	mov	r3, r1
 8005f8e:	b996      	cbnz	r6, 8005fb6 <scalbn+0x36>
 8005f90:	f021 4300 	bic.w	r3, r1, #2147483648	; 0x80000000
 8005f94:	4303      	orrs	r3, r0
 8005f96:	d039      	beq.n	800600c <scalbn+0x8c>
 8005f98:	4b33      	ldr	r3, [pc, #204]	; (8006068 <scalbn+0xe8>)
 8005f9a:	2200      	movs	r2, #0
 8005f9c:	f7fa fa94 	bl	80004c8 <__aeabi_dmul>
 8005fa0:	4b32      	ldr	r3, [pc, #200]	; (800606c <scalbn+0xec>)
 8005fa2:	4604      	mov	r4, r0
 8005fa4:	429f      	cmp	r7, r3
 8005fa6:	460d      	mov	r5, r1
 8005fa8:	da0f      	bge.n	8005fca <scalbn+0x4a>
 8005faa:	a32b      	add	r3, pc, #172	; (adr r3, 8006058 <scalbn+0xd8>)
 8005fac:	e9d3 2300 	ldrd	r2, r3, [r3]
 8005fb0:	f7fa fa8a 	bl	80004c8 <__aeabi_dmul>
 8005fb4:	e006      	b.n	8005fc4 <scalbn+0x44>
 8005fb6:	f240 72ff 	movw	r2, #2047	; 0x7ff
 8005fba:	4296      	cmp	r6, r2
 8005fbc:	d10a      	bne.n	8005fd4 <scalbn+0x54>
 8005fbe:	4602      	mov	r2, r0
 8005fc0:	f7fa f8cc 	bl	800015c <__adddf3>
 8005fc4:	4604      	mov	r4, r0
 8005fc6:	460d      	mov	r5, r1
 8005fc8:	e020      	b.n	800600c <scalbn+0x8c>
 8005fca:	460b      	mov	r3, r1
 8005fcc:	f3c1 510a 	ubfx	r1, r1, #20, #11
 8005fd0:	f1a1 0636 	sub.w	r6, r1, #54	; 0x36
 8005fd4:	f240 72fe 	movw	r2, #2046	; 0x7fe
 8005fd8:	19b9      	adds	r1, r7, r6
 8005fda:	4291      	cmp	r1, r2
 8005fdc:	dd0e      	ble.n	8005ffc <scalbn+0x7c>
 8005fde:	f005 4400 	and.w	r4, r5, #2147483648	; 0x80000000
 8005fe2:	f044 41fc 	orr.w	r1, r4, #2113929216	; 0x7e000000
 8005fe6:	f441 115f 	orr.w	r1, r1, #3653632	; 0x37c000
 8005fea:	f441 5110 	orr.w	r1, r1, #9216	; 0x2400
 8005fee:	4820      	ldr	r0, [pc, #128]	; (8006070 <scalbn+0xf0>)
 8005ff0:	f041 013c 	orr.w	r1, r1, #60	; 0x3c
 8005ff4:	a31a      	add	r3, pc, #104	; (adr r3, 8006060 <scalbn+0xe0>)
 8005ff6:	e9d3 2300 	ldrd	r2, r3, [r3]
 8005ffa:	e7d9      	b.n	8005fb0 <scalbn+0x30>
 8005ffc:	2900      	cmp	r1, #0
 8005ffe:	dd08      	ble.n	8006012 <scalbn+0x92>
 8006000:	f023 43ff 	bic.w	r3, r3, #2139095040	; 0x7f800000
 8006004:	f423 03e0 	bic.w	r3, r3, #7340032	; 0x700000
 8006008:	ea43 5501 	orr.w	r5, r3, r1, lsl #20
 800600c:	4620      	mov	r0, r4
 800600e:	4629      	mov	r1, r5
 8006010:	bdf8      	pop	{r3, r4, r5, r6, r7, pc}
 8006012:	f111 0f35 	cmn.w	r1, #53	; 0x35
 8006016:	da12      	bge.n	800603e <scalbn+0xbe>
 8006018:	f24c 3350 	movw	r3, #50000	; 0xc350
 800601c:	429f      	cmp	r7, r3
 800601e:	ea4f 73d5 	mov.w	r3, r5, lsr #31
 8006022:	ea4f 74c3 	mov.w	r4, r3, lsl #31
 8006026:	dcdc      	bgt.n	8005fe2 <scalbn+0x62>
 8006028:	a30b      	add	r3, pc, #44	; (adr r3, 8006058 <scalbn+0xd8>)
 800602a:	e9d3 2300 	ldrd	r2, r3, [r3]
 800602e:	f044 71d2 	orr.w	r1, r4, #27525120	; 0x1a40000
 8006032:	f441 31b7 	orr.w	r1, r1, #93696	; 0x16e00
 8006036:	480f      	ldr	r0, [pc, #60]	; (8006074 <scalbn+0xf4>)
 8006038:	f041 011f 	orr.w	r1, r1, #31
 800603c:	e7b8      	b.n	8005fb0 <scalbn+0x30>
 800603e:	f023 43ff 	bic.w	r3, r3, #2139095040	; 0x7f800000
 8006042:	3136      	adds	r1, #54	; 0x36
 8006044:	f423 03e0 	bic.w	r3, r3, #7340032	; 0x700000
 8006048:	ea43 5501 	orr.w	r5, r3, r1, lsl #20
 800604c:	4620      	mov	r0, r4
 800604e:	4629      	mov	r1, r5
 8006050:	2200      	movs	r2, #0
 8006052:	4b09      	ldr	r3, [pc, #36]	; (8006078 <scalbn+0xf8>)
 8006054:	e7ac      	b.n	8005fb0 <scalbn+0x30>
 8006056:	bf00      	nop
 8006058:	c2f8f359 	.word	0xc2f8f359
 800605c:	01a56e1f 	.word	0x01a56e1f
 8006060:	8800759c 	.word	0x8800759c
 8006064:	7e37e43c 	.word	0x7e37e43c
 8006068:	43500000 	.word	0x43500000
 800606c:	ffff3cb0 	.word	0xffff3cb0
 8006070:	8800759c 	.word	0x8800759c
 8006074:	c2f8f359 	.word	0xc2f8f359
 8006078:	3c900000 	.word	0x3c900000

0800607c <_init>:
 800607c:	b5f8      	push	{r3, r4, r5, r6, r7, lr}
 800607e:	bf00      	nop
 8006080:	bcf8      	pop	{r3, r4, r5, r6, r7}
 8006082:	bc08      	pop	{r3}
 8006084:	469e      	mov	lr, r3
 8006086:	4770      	bx	lr

08006088 <_fini>:
 8006088:	b5f8      	push	{r3, r4, r5, r6, r7, lr}
 800608a:	bf00      	nop
 800608c:	bcf8      	pop	{r3, r4, r5, r6, r7}
 800608e:	bc08      	pop	{r3}
 8006090:	469e      	mov	lr, r3
 8006092:	4770      	bx	lr
